ARM GAS  /tmp/ccqVt8hD.s 			page 1


   1              		.cpu cortex-m7
   2              		.eabi_attribute 27, 1
   3              		.eabi_attribute 28, 1
   4              		.eabi_attribute 20, 1
   5              		.eabi_attribute 21, 1
   6              		.eabi_attribute 23, 3
   7              		.eabi_attribute 24, 1
   8              		.eabi_attribute 25, 1
   9              		.eabi_attribute 26, 1
  10              		.eabi_attribute 30, 1
  11              		.eabi_attribute 34, 1
  12              		.eabi_attribute 18, 4
  13              		.file	"stm32f7xx_hal_hcd.c"
  14              		.text
  15              	.Ltext0:
  16              		.cfi_sections	.debug_frame
  17              		.section	.text.HCD_RXQLVL_IRQHandler,"ax",%progbits
  18              		.align	1
  19              		.syntax unified
  20              		.thumb
  21              		.thumb_func
  22              		.fpu fpv5-sp-d16
  24              	HCD_RXQLVL_IRQHandler:
  25              	.LFB166:
  26              		.file 1 "Drivers/STM32F7xx_HAL_Driver/Src/stm32f7xx_hal_hcd.c"
   1:Drivers/STM32F7xx_HAL_Driver/Src/stm32f7xx_hal_hcd.c **** /**
   2:Drivers/STM32F7xx_HAL_Driver/Src/stm32f7xx_hal_hcd.c ****   ******************************************************************************
   3:Drivers/STM32F7xx_HAL_Driver/Src/stm32f7xx_hal_hcd.c ****   * @file    stm32f7xx_hal_hcd.c
   4:Drivers/STM32F7xx_HAL_Driver/Src/stm32f7xx_hal_hcd.c ****   * @author  MCD Application Team
   5:Drivers/STM32F7xx_HAL_Driver/Src/stm32f7xx_hal_hcd.c ****   * @brief   HCD HAL module driver.
   6:Drivers/STM32F7xx_HAL_Driver/Src/stm32f7xx_hal_hcd.c ****   *          This file provides firmware functions to manage the following
   7:Drivers/STM32F7xx_HAL_Driver/Src/stm32f7xx_hal_hcd.c ****   *          functionalities of the USB Peripheral Controller:
   8:Drivers/STM32F7xx_HAL_Driver/Src/stm32f7xx_hal_hcd.c ****   *           + Initialization and de-initialization functions
   9:Drivers/STM32F7xx_HAL_Driver/Src/stm32f7xx_hal_hcd.c ****   *           + IO operation functions
  10:Drivers/STM32F7xx_HAL_Driver/Src/stm32f7xx_hal_hcd.c ****   *           + Peripheral Control functions
  11:Drivers/STM32F7xx_HAL_Driver/Src/stm32f7xx_hal_hcd.c ****   *           + Peripheral State functions
  12:Drivers/STM32F7xx_HAL_Driver/Src/stm32f7xx_hal_hcd.c ****   *
  13:Drivers/STM32F7xx_HAL_Driver/Src/stm32f7xx_hal_hcd.c ****   @verbatim
  14:Drivers/STM32F7xx_HAL_Driver/Src/stm32f7xx_hal_hcd.c ****   ==============================================================================
  15:Drivers/STM32F7xx_HAL_Driver/Src/stm32f7xx_hal_hcd.c ****                     ##### How to use this driver #####
  16:Drivers/STM32F7xx_HAL_Driver/Src/stm32f7xx_hal_hcd.c ****   ==============================================================================
  17:Drivers/STM32F7xx_HAL_Driver/Src/stm32f7xx_hal_hcd.c ****   [..]
  18:Drivers/STM32F7xx_HAL_Driver/Src/stm32f7xx_hal_hcd.c ****     (#)Declare a HCD_HandleTypeDef handle structure, for example:
  19:Drivers/STM32F7xx_HAL_Driver/Src/stm32f7xx_hal_hcd.c ****        HCD_HandleTypeDef  hhcd;
  20:Drivers/STM32F7xx_HAL_Driver/Src/stm32f7xx_hal_hcd.c **** 
  21:Drivers/STM32F7xx_HAL_Driver/Src/stm32f7xx_hal_hcd.c ****     (#)Fill parameters of Init structure in HCD handle
  22:Drivers/STM32F7xx_HAL_Driver/Src/stm32f7xx_hal_hcd.c **** 
  23:Drivers/STM32F7xx_HAL_Driver/Src/stm32f7xx_hal_hcd.c ****     (#)Call HAL_HCD_Init() API to initialize the HCD peripheral (Core, Host core, ...)
  24:Drivers/STM32F7xx_HAL_Driver/Src/stm32f7xx_hal_hcd.c **** 
  25:Drivers/STM32F7xx_HAL_Driver/Src/stm32f7xx_hal_hcd.c ****     (#)Initialize the HCD low level resources through the HAL_HCD_MspInit() API:
  26:Drivers/STM32F7xx_HAL_Driver/Src/stm32f7xx_hal_hcd.c ****         (##) Enable the HCD/USB Low Level interface clock using the following macros
  27:Drivers/STM32F7xx_HAL_Driver/Src/stm32f7xx_hal_hcd.c ****              (+++) __HAL_RCC_USB_OTG_FS_CLK_ENABLE();
  28:Drivers/STM32F7xx_HAL_Driver/Src/stm32f7xx_hal_hcd.c ****              (+++) __HAL_RCC_USB_OTG_HS_CLK_ENABLE(); (For High Speed Mode)
  29:Drivers/STM32F7xx_HAL_Driver/Src/stm32f7xx_hal_hcd.c ****              (+++) __HAL_RCC_USB_OTG_HS_ULPI_CLK_ENABLE(); (For High Speed Mode)
  30:Drivers/STM32F7xx_HAL_Driver/Src/stm32f7xx_hal_hcd.c **** 
  31:Drivers/STM32F7xx_HAL_Driver/Src/stm32f7xx_hal_hcd.c ****         (##) Initialize the related GPIO clocks
  32:Drivers/STM32F7xx_HAL_Driver/Src/stm32f7xx_hal_hcd.c ****         (##) Configure HCD pin-out
ARM GAS  /tmp/ccqVt8hD.s 			page 2


  33:Drivers/STM32F7xx_HAL_Driver/Src/stm32f7xx_hal_hcd.c ****         (##) Configure HCD NVIC interrupt
  34:Drivers/STM32F7xx_HAL_Driver/Src/stm32f7xx_hal_hcd.c **** 
  35:Drivers/STM32F7xx_HAL_Driver/Src/stm32f7xx_hal_hcd.c ****     (#)Associate the Upper USB Host stack to the HAL HCD Driver:
  36:Drivers/STM32F7xx_HAL_Driver/Src/stm32f7xx_hal_hcd.c ****         (##) hhcd.pData = phost;
  37:Drivers/STM32F7xx_HAL_Driver/Src/stm32f7xx_hal_hcd.c **** 
  38:Drivers/STM32F7xx_HAL_Driver/Src/stm32f7xx_hal_hcd.c ****     (#)Enable HCD transmission and reception:
  39:Drivers/STM32F7xx_HAL_Driver/Src/stm32f7xx_hal_hcd.c ****         (##) HAL_HCD_Start();
  40:Drivers/STM32F7xx_HAL_Driver/Src/stm32f7xx_hal_hcd.c **** 
  41:Drivers/STM32F7xx_HAL_Driver/Src/stm32f7xx_hal_hcd.c ****   @endverbatim
  42:Drivers/STM32F7xx_HAL_Driver/Src/stm32f7xx_hal_hcd.c ****   ******************************************************************************
  43:Drivers/STM32F7xx_HAL_Driver/Src/stm32f7xx_hal_hcd.c ****   * @attention
  44:Drivers/STM32F7xx_HAL_Driver/Src/stm32f7xx_hal_hcd.c ****   *
  45:Drivers/STM32F7xx_HAL_Driver/Src/stm32f7xx_hal_hcd.c ****   * <h2><center>&copy; Copyright (c) 2017 STMicroelectronics.
  46:Drivers/STM32F7xx_HAL_Driver/Src/stm32f7xx_hal_hcd.c ****   * All rights reserved.</center></h2>
  47:Drivers/STM32F7xx_HAL_Driver/Src/stm32f7xx_hal_hcd.c ****   *
  48:Drivers/STM32F7xx_HAL_Driver/Src/stm32f7xx_hal_hcd.c ****   * This software component is licensed by ST under BSD 3-Clause license,
  49:Drivers/STM32F7xx_HAL_Driver/Src/stm32f7xx_hal_hcd.c ****   * the "License"; You may not use this file except in compliance with the
  50:Drivers/STM32F7xx_HAL_Driver/Src/stm32f7xx_hal_hcd.c ****   * License. You may obtain a copy of the License at:
  51:Drivers/STM32F7xx_HAL_Driver/Src/stm32f7xx_hal_hcd.c ****   *                        opensource.org/licenses/BSD-3-Clause
  52:Drivers/STM32F7xx_HAL_Driver/Src/stm32f7xx_hal_hcd.c ****   *
  53:Drivers/STM32F7xx_HAL_Driver/Src/stm32f7xx_hal_hcd.c ****   ******************************************************************************
  54:Drivers/STM32F7xx_HAL_Driver/Src/stm32f7xx_hal_hcd.c ****   */
  55:Drivers/STM32F7xx_HAL_Driver/Src/stm32f7xx_hal_hcd.c **** 
  56:Drivers/STM32F7xx_HAL_Driver/Src/stm32f7xx_hal_hcd.c **** /* Includes ------------------------------------------------------------------*/
  57:Drivers/STM32F7xx_HAL_Driver/Src/stm32f7xx_hal_hcd.c **** #include "stm32f7xx_hal.h"
  58:Drivers/STM32F7xx_HAL_Driver/Src/stm32f7xx_hal_hcd.c **** 
  59:Drivers/STM32F7xx_HAL_Driver/Src/stm32f7xx_hal_hcd.c **** /** @addtogroup STM32F7xx_HAL_Driver
  60:Drivers/STM32F7xx_HAL_Driver/Src/stm32f7xx_hal_hcd.c ****   * @{
  61:Drivers/STM32F7xx_HAL_Driver/Src/stm32f7xx_hal_hcd.c ****   */
  62:Drivers/STM32F7xx_HAL_Driver/Src/stm32f7xx_hal_hcd.c **** 
  63:Drivers/STM32F7xx_HAL_Driver/Src/stm32f7xx_hal_hcd.c **** #ifdef HAL_HCD_MODULE_ENABLED
  64:Drivers/STM32F7xx_HAL_Driver/Src/stm32f7xx_hal_hcd.c **** 
  65:Drivers/STM32F7xx_HAL_Driver/Src/stm32f7xx_hal_hcd.c **** #if defined (USB_OTG_FS) || defined (USB_OTG_HS)
  66:Drivers/STM32F7xx_HAL_Driver/Src/stm32f7xx_hal_hcd.c **** 
  67:Drivers/STM32F7xx_HAL_Driver/Src/stm32f7xx_hal_hcd.c **** /** @defgroup HCD HCD
  68:Drivers/STM32F7xx_HAL_Driver/Src/stm32f7xx_hal_hcd.c ****   * @brief HCD HAL module driver
  69:Drivers/STM32F7xx_HAL_Driver/Src/stm32f7xx_hal_hcd.c ****   * @{
  70:Drivers/STM32F7xx_HAL_Driver/Src/stm32f7xx_hal_hcd.c ****   */
  71:Drivers/STM32F7xx_HAL_Driver/Src/stm32f7xx_hal_hcd.c **** 
  72:Drivers/STM32F7xx_HAL_Driver/Src/stm32f7xx_hal_hcd.c **** /* Private typedef -----------------------------------------------------------*/
  73:Drivers/STM32F7xx_HAL_Driver/Src/stm32f7xx_hal_hcd.c **** /* Private define ------------------------------------------------------------*/
  74:Drivers/STM32F7xx_HAL_Driver/Src/stm32f7xx_hal_hcd.c **** /* Private macro -------------------------------------------------------------*/
  75:Drivers/STM32F7xx_HAL_Driver/Src/stm32f7xx_hal_hcd.c **** /* Private variables ---------------------------------------------------------*/
  76:Drivers/STM32F7xx_HAL_Driver/Src/stm32f7xx_hal_hcd.c **** /* Private function prototypes -----------------------------------------------*/
  77:Drivers/STM32F7xx_HAL_Driver/Src/stm32f7xx_hal_hcd.c **** /** @defgroup HCD_Private_Functions HCD Private Functions
  78:Drivers/STM32F7xx_HAL_Driver/Src/stm32f7xx_hal_hcd.c ****   * @{
  79:Drivers/STM32F7xx_HAL_Driver/Src/stm32f7xx_hal_hcd.c ****   */
  80:Drivers/STM32F7xx_HAL_Driver/Src/stm32f7xx_hal_hcd.c **** static void HCD_HC_IN_IRQHandler(HCD_HandleTypeDef *hhcd, uint8_t chnum);
  81:Drivers/STM32F7xx_HAL_Driver/Src/stm32f7xx_hal_hcd.c **** static void HCD_HC_OUT_IRQHandler(HCD_HandleTypeDef *hhcd, uint8_t chnum);
  82:Drivers/STM32F7xx_HAL_Driver/Src/stm32f7xx_hal_hcd.c **** static void HCD_RXQLVL_IRQHandler(HCD_HandleTypeDef *hhcd);
  83:Drivers/STM32F7xx_HAL_Driver/Src/stm32f7xx_hal_hcd.c **** static void HCD_Port_IRQHandler(HCD_HandleTypeDef *hhcd);
  84:Drivers/STM32F7xx_HAL_Driver/Src/stm32f7xx_hal_hcd.c **** /**
  85:Drivers/STM32F7xx_HAL_Driver/Src/stm32f7xx_hal_hcd.c ****   * @}
  86:Drivers/STM32F7xx_HAL_Driver/Src/stm32f7xx_hal_hcd.c ****   */
  87:Drivers/STM32F7xx_HAL_Driver/Src/stm32f7xx_hal_hcd.c **** 
  88:Drivers/STM32F7xx_HAL_Driver/Src/stm32f7xx_hal_hcd.c **** /* Exported functions --------------------------------------------------------*/
  89:Drivers/STM32F7xx_HAL_Driver/Src/stm32f7xx_hal_hcd.c **** /** @defgroup HCD_Exported_Functions HCD Exported Functions
ARM GAS  /tmp/ccqVt8hD.s 			page 3


  90:Drivers/STM32F7xx_HAL_Driver/Src/stm32f7xx_hal_hcd.c ****   * @{
  91:Drivers/STM32F7xx_HAL_Driver/Src/stm32f7xx_hal_hcd.c ****   */
  92:Drivers/STM32F7xx_HAL_Driver/Src/stm32f7xx_hal_hcd.c **** 
  93:Drivers/STM32F7xx_HAL_Driver/Src/stm32f7xx_hal_hcd.c **** /** @defgroup HCD_Exported_Functions_Group1 Initialization and de-initialization functions
  94:Drivers/STM32F7xx_HAL_Driver/Src/stm32f7xx_hal_hcd.c ****  *  @brief    Initialization and Configuration functions
  95:Drivers/STM32F7xx_HAL_Driver/Src/stm32f7xx_hal_hcd.c ****  *
  96:Drivers/STM32F7xx_HAL_Driver/Src/stm32f7xx_hal_hcd.c **** @verbatim
  97:Drivers/STM32F7xx_HAL_Driver/Src/stm32f7xx_hal_hcd.c ****  ===============================================================================
  98:Drivers/STM32F7xx_HAL_Driver/Src/stm32f7xx_hal_hcd.c ****           ##### Initialization and de-initialization functions #####
  99:Drivers/STM32F7xx_HAL_Driver/Src/stm32f7xx_hal_hcd.c ****  ===============================================================================
 100:Drivers/STM32F7xx_HAL_Driver/Src/stm32f7xx_hal_hcd.c ****     [..]  This section provides functions allowing to:
 101:Drivers/STM32F7xx_HAL_Driver/Src/stm32f7xx_hal_hcd.c **** 
 102:Drivers/STM32F7xx_HAL_Driver/Src/stm32f7xx_hal_hcd.c **** @endverbatim
 103:Drivers/STM32F7xx_HAL_Driver/Src/stm32f7xx_hal_hcd.c ****   * @{
 104:Drivers/STM32F7xx_HAL_Driver/Src/stm32f7xx_hal_hcd.c ****   */
 105:Drivers/STM32F7xx_HAL_Driver/Src/stm32f7xx_hal_hcd.c **** 
 106:Drivers/STM32F7xx_HAL_Driver/Src/stm32f7xx_hal_hcd.c **** /**
 107:Drivers/STM32F7xx_HAL_Driver/Src/stm32f7xx_hal_hcd.c ****   * @brief  Initialize the host driver.
 108:Drivers/STM32F7xx_HAL_Driver/Src/stm32f7xx_hal_hcd.c ****   * @param  hhcd HCD handle
 109:Drivers/STM32F7xx_HAL_Driver/Src/stm32f7xx_hal_hcd.c ****   * @retval HAL status
 110:Drivers/STM32F7xx_HAL_Driver/Src/stm32f7xx_hal_hcd.c ****   */
 111:Drivers/STM32F7xx_HAL_Driver/Src/stm32f7xx_hal_hcd.c **** HAL_StatusTypeDef HAL_HCD_Init(HCD_HandleTypeDef *hhcd)
 112:Drivers/STM32F7xx_HAL_Driver/Src/stm32f7xx_hal_hcd.c **** {
 113:Drivers/STM32F7xx_HAL_Driver/Src/stm32f7xx_hal_hcd.c ****   USB_OTG_GlobalTypeDef *USBx;
 114:Drivers/STM32F7xx_HAL_Driver/Src/stm32f7xx_hal_hcd.c **** 
 115:Drivers/STM32F7xx_HAL_Driver/Src/stm32f7xx_hal_hcd.c ****   /* Check the HCD handle allocation */
 116:Drivers/STM32F7xx_HAL_Driver/Src/stm32f7xx_hal_hcd.c ****   if (hhcd == NULL)
 117:Drivers/STM32F7xx_HAL_Driver/Src/stm32f7xx_hal_hcd.c ****   {
 118:Drivers/STM32F7xx_HAL_Driver/Src/stm32f7xx_hal_hcd.c ****     return HAL_ERROR;
 119:Drivers/STM32F7xx_HAL_Driver/Src/stm32f7xx_hal_hcd.c ****   }
 120:Drivers/STM32F7xx_HAL_Driver/Src/stm32f7xx_hal_hcd.c **** 
 121:Drivers/STM32F7xx_HAL_Driver/Src/stm32f7xx_hal_hcd.c ****   /* Check the parameters */
 122:Drivers/STM32F7xx_HAL_Driver/Src/stm32f7xx_hal_hcd.c ****   assert_param(IS_HCD_ALL_INSTANCE(hhcd->Instance));
 123:Drivers/STM32F7xx_HAL_Driver/Src/stm32f7xx_hal_hcd.c **** 
 124:Drivers/STM32F7xx_HAL_Driver/Src/stm32f7xx_hal_hcd.c ****   USBx = hhcd->Instance;
 125:Drivers/STM32F7xx_HAL_Driver/Src/stm32f7xx_hal_hcd.c **** 
 126:Drivers/STM32F7xx_HAL_Driver/Src/stm32f7xx_hal_hcd.c ****   if (hhcd->State == HAL_HCD_STATE_RESET)
 127:Drivers/STM32F7xx_HAL_Driver/Src/stm32f7xx_hal_hcd.c ****   {
 128:Drivers/STM32F7xx_HAL_Driver/Src/stm32f7xx_hal_hcd.c ****     /* Allocate lock resource and initialize it */
 129:Drivers/STM32F7xx_HAL_Driver/Src/stm32f7xx_hal_hcd.c ****     hhcd->Lock = HAL_UNLOCKED;
 130:Drivers/STM32F7xx_HAL_Driver/Src/stm32f7xx_hal_hcd.c **** 
 131:Drivers/STM32F7xx_HAL_Driver/Src/stm32f7xx_hal_hcd.c **** #if (USE_HAL_HCD_REGISTER_CALLBACKS == 1U)
 132:Drivers/STM32F7xx_HAL_Driver/Src/stm32f7xx_hal_hcd.c ****     hhcd->SOFCallback = HAL_HCD_SOF_Callback;
 133:Drivers/STM32F7xx_HAL_Driver/Src/stm32f7xx_hal_hcd.c ****     hhcd->ConnectCallback = HAL_HCD_Connect_Callback;
 134:Drivers/STM32F7xx_HAL_Driver/Src/stm32f7xx_hal_hcd.c ****     hhcd->DisconnectCallback = HAL_HCD_Disconnect_Callback;
 135:Drivers/STM32F7xx_HAL_Driver/Src/stm32f7xx_hal_hcd.c ****     hhcd->PortEnabledCallback = HAL_HCD_PortEnabled_Callback;
 136:Drivers/STM32F7xx_HAL_Driver/Src/stm32f7xx_hal_hcd.c ****     hhcd->PortDisabledCallback = HAL_HCD_PortDisabled_Callback;
 137:Drivers/STM32F7xx_HAL_Driver/Src/stm32f7xx_hal_hcd.c ****     hhcd->HC_NotifyURBChangeCallback = HAL_HCD_HC_NotifyURBChange_Callback;
 138:Drivers/STM32F7xx_HAL_Driver/Src/stm32f7xx_hal_hcd.c **** 
 139:Drivers/STM32F7xx_HAL_Driver/Src/stm32f7xx_hal_hcd.c ****     if (hhcd->MspInitCallback == NULL)
 140:Drivers/STM32F7xx_HAL_Driver/Src/stm32f7xx_hal_hcd.c ****     {
 141:Drivers/STM32F7xx_HAL_Driver/Src/stm32f7xx_hal_hcd.c ****       hhcd->MspInitCallback = HAL_HCD_MspInit;
 142:Drivers/STM32F7xx_HAL_Driver/Src/stm32f7xx_hal_hcd.c ****     }
 143:Drivers/STM32F7xx_HAL_Driver/Src/stm32f7xx_hal_hcd.c **** 
 144:Drivers/STM32F7xx_HAL_Driver/Src/stm32f7xx_hal_hcd.c ****     /* Init the low level hardware */
 145:Drivers/STM32F7xx_HAL_Driver/Src/stm32f7xx_hal_hcd.c ****     hhcd->MspInitCallback(hhcd);
 146:Drivers/STM32F7xx_HAL_Driver/Src/stm32f7xx_hal_hcd.c **** #else
ARM GAS  /tmp/ccqVt8hD.s 			page 4


 147:Drivers/STM32F7xx_HAL_Driver/Src/stm32f7xx_hal_hcd.c ****     /* Init the low level hardware : GPIO, CLOCK, NVIC... */
 148:Drivers/STM32F7xx_HAL_Driver/Src/stm32f7xx_hal_hcd.c ****     HAL_HCD_MspInit(hhcd);
 149:Drivers/STM32F7xx_HAL_Driver/Src/stm32f7xx_hal_hcd.c **** #endif /* (USE_HAL_HCD_REGISTER_CALLBACKS) */
 150:Drivers/STM32F7xx_HAL_Driver/Src/stm32f7xx_hal_hcd.c ****   }
 151:Drivers/STM32F7xx_HAL_Driver/Src/stm32f7xx_hal_hcd.c **** 
 152:Drivers/STM32F7xx_HAL_Driver/Src/stm32f7xx_hal_hcd.c ****   hhcd->State = HAL_HCD_STATE_BUSY;
 153:Drivers/STM32F7xx_HAL_Driver/Src/stm32f7xx_hal_hcd.c **** 
 154:Drivers/STM32F7xx_HAL_Driver/Src/stm32f7xx_hal_hcd.c ****   /* Disable DMA mode for FS instance */
 155:Drivers/STM32F7xx_HAL_Driver/Src/stm32f7xx_hal_hcd.c ****   if ((USBx->CID & (0x1U << 8)) == 0U)
 156:Drivers/STM32F7xx_HAL_Driver/Src/stm32f7xx_hal_hcd.c ****   {
 157:Drivers/STM32F7xx_HAL_Driver/Src/stm32f7xx_hal_hcd.c ****     hhcd->Init.dma_enable = 0U;
 158:Drivers/STM32F7xx_HAL_Driver/Src/stm32f7xx_hal_hcd.c ****   }
 159:Drivers/STM32F7xx_HAL_Driver/Src/stm32f7xx_hal_hcd.c **** 
 160:Drivers/STM32F7xx_HAL_Driver/Src/stm32f7xx_hal_hcd.c ****   /* Disable the Interrupts */
 161:Drivers/STM32F7xx_HAL_Driver/Src/stm32f7xx_hal_hcd.c ****   __HAL_HCD_DISABLE(hhcd);
 162:Drivers/STM32F7xx_HAL_Driver/Src/stm32f7xx_hal_hcd.c **** 
 163:Drivers/STM32F7xx_HAL_Driver/Src/stm32f7xx_hal_hcd.c ****   /* Init the Core (common init.) */
 164:Drivers/STM32F7xx_HAL_Driver/Src/stm32f7xx_hal_hcd.c ****   (void)USB_CoreInit(hhcd->Instance, hhcd->Init);
 165:Drivers/STM32F7xx_HAL_Driver/Src/stm32f7xx_hal_hcd.c **** 
 166:Drivers/STM32F7xx_HAL_Driver/Src/stm32f7xx_hal_hcd.c ****   /* Force Host Mode*/
 167:Drivers/STM32F7xx_HAL_Driver/Src/stm32f7xx_hal_hcd.c ****   (void)USB_SetCurrentMode(hhcd->Instance, USB_HOST_MODE);
 168:Drivers/STM32F7xx_HAL_Driver/Src/stm32f7xx_hal_hcd.c **** 
 169:Drivers/STM32F7xx_HAL_Driver/Src/stm32f7xx_hal_hcd.c ****   /* Init Host */
 170:Drivers/STM32F7xx_HAL_Driver/Src/stm32f7xx_hal_hcd.c ****   (void)USB_HostInit(hhcd->Instance, hhcd->Init);
 171:Drivers/STM32F7xx_HAL_Driver/Src/stm32f7xx_hal_hcd.c **** 
 172:Drivers/STM32F7xx_HAL_Driver/Src/stm32f7xx_hal_hcd.c ****   hhcd->State = HAL_HCD_STATE_READY;
 173:Drivers/STM32F7xx_HAL_Driver/Src/stm32f7xx_hal_hcd.c **** 
 174:Drivers/STM32F7xx_HAL_Driver/Src/stm32f7xx_hal_hcd.c ****   return HAL_OK;
 175:Drivers/STM32F7xx_HAL_Driver/Src/stm32f7xx_hal_hcd.c **** }
 176:Drivers/STM32F7xx_HAL_Driver/Src/stm32f7xx_hal_hcd.c **** 
 177:Drivers/STM32F7xx_HAL_Driver/Src/stm32f7xx_hal_hcd.c **** /**
 178:Drivers/STM32F7xx_HAL_Driver/Src/stm32f7xx_hal_hcd.c ****   * @brief  Initialize a host channel.
 179:Drivers/STM32F7xx_HAL_Driver/Src/stm32f7xx_hal_hcd.c ****   * @param  hhcd HCD handle
 180:Drivers/STM32F7xx_HAL_Driver/Src/stm32f7xx_hal_hcd.c ****   * @param  ch_num Channel number.
 181:Drivers/STM32F7xx_HAL_Driver/Src/stm32f7xx_hal_hcd.c ****   *         This parameter can be a value from 1 to 15
 182:Drivers/STM32F7xx_HAL_Driver/Src/stm32f7xx_hal_hcd.c ****   * @param  epnum Endpoint number.
 183:Drivers/STM32F7xx_HAL_Driver/Src/stm32f7xx_hal_hcd.c ****   *          This parameter can be a value from 1 to 15
 184:Drivers/STM32F7xx_HAL_Driver/Src/stm32f7xx_hal_hcd.c ****   * @param  dev_address Current device address
 185:Drivers/STM32F7xx_HAL_Driver/Src/stm32f7xx_hal_hcd.c ****   *          This parameter can be a value from 0 to 255
 186:Drivers/STM32F7xx_HAL_Driver/Src/stm32f7xx_hal_hcd.c ****   * @param  speed Current device speed.
 187:Drivers/STM32F7xx_HAL_Driver/Src/stm32f7xx_hal_hcd.c ****   *          This parameter can be one of these values:
 188:Drivers/STM32F7xx_HAL_Driver/Src/stm32f7xx_hal_hcd.c ****   *            HCD_SPEED_HIGH: High speed mode,
 189:Drivers/STM32F7xx_HAL_Driver/Src/stm32f7xx_hal_hcd.c ****   *            HCD_SPEED_FULL: Full speed mode,
 190:Drivers/STM32F7xx_HAL_Driver/Src/stm32f7xx_hal_hcd.c ****   *            HCD_SPEED_LOW: Low speed mode
 191:Drivers/STM32F7xx_HAL_Driver/Src/stm32f7xx_hal_hcd.c ****   * @param  ep_type Endpoint Type.
 192:Drivers/STM32F7xx_HAL_Driver/Src/stm32f7xx_hal_hcd.c ****   *          This parameter can be one of these values:
 193:Drivers/STM32F7xx_HAL_Driver/Src/stm32f7xx_hal_hcd.c ****   *            EP_TYPE_CTRL: Control type,
 194:Drivers/STM32F7xx_HAL_Driver/Src/stm32f7xx_hal_hcd.c ****   *            EP_TYPE_ISOC: Isochronous type,
 195:Drivers/STM32F7xx_HAL_Driver/Src/stm32f7xx_hal_hcd.c ****   *            EP_TYPE_BULK: Bulk type,
 196:Drivers/STM32F7xx_HAL_Driver/Src/stm32f7xx_hal_hcd.c ****   *            EP_TYPE_INTR: Interrupt type
 197:Drivers/STM32F7xx_HAL_Driver/Src/stm32f7xx_hal_hcd.c ****   * @param  mps Max Packet Size.
 198:Drivers/STM32F7xx_HAL_Driver/Src/stm32f7xx_hal_hcd.c ****   *          This parameter can be a value from 0 to32K
 199:Drivers/STM32F7xx_HAL_Driver/Src/stm32f7xx_hal_hcd.c ****   * @retval HAL status
 200:Drivers/STM32F7xx_HAL_Driver/Src/stm32f7xx_hal_hcd.c ****   */
 201:Drivers/STM32F7xx_HAL_Driver/Src/stm32f7xx_hal_hcd.c **** HAL_StatusTypeDef HAL_HCD_HC_Init(HCD_HandleTypeDef *hhcd,
 202:Drivers/STM32F7xx_HAL_Driver/Src/stm32f7xx_hal_hcd.c ****                                   uint8_t ch_num,
 203:Drivers/STM32F7xx_HAL_Driver/Src/stm32f7xx_hal_hcd.c ****                                   uint8_t epnum,
ARM GAS  /tmp/ccqVt8hD.s 			page 5


 204:Drivers/STM32F7xx_HAL_Driver/Src/stm32f7xx_hal_hcd.c ****                                   uint8_t dev_address,
 205:Drivers/STM32F7xx_HAL_Driver/Src/stm32f7xx_hal_hcd.c ****                                   uint8_t speed,
 206:Drivers/STM32F7xx_HAL_Driver/Src/stm32f7xx_hal_hcd.c ****                                   uint8_t ep_type,
 207:Drivers/STM32F7xx_HAL_Driver/Src/stm32f7xx_hal_hcd.c ****                                   uint16_t mps)
 208:Drivers/STM32F7xx_HAL_Driver/Src/stm32f7xx_hal_hcd.c **** {
 209:Drivers/STM32F7xx_HAL_Driver/Src/stm32f7xx_hal_hcd.c ****   HAL_StatusTypeDef status;
 210:Drivers/STM32F7xx_HAL_Driver/Src/stm32f7xx_hal_hcd.c **** 
 211:Drivers/STM32F7xx_HAL_Driver/Src/stm32f7xx_hal_hcd.c ****   __HAL_LOCK(hhcd);
 212:Drivers/STM32F7xx_HAL_Driver/Src/stm32f7xx_hal_hcd.c ****   hhcd->hc[ch_num].do_ping = 0U;
 213:Drivers/STM32F7xx_HAL_Driver/Src/stm32f7xx_hal_hcd.c ****   hhcd->hc[ch_num].dev_addr = dev_address;
 214:Drivers/STM32F7xx_HAL_Driver/Src/stm32f7xx_hal_hcd.c ****   hhcd->hc[ch_num].max_packet = mps;
 215:Drivers/STM32F7xx_HAL_Driver/Src/stm32f7xx_hal_hcd.c ****   hhcd->hc[ch_num].ch_num = ch_num;
 216:Drivers/STM32F7xx_HAL_Driver/Src/stm32f7xx_hal_hcd.c ****   hhcd->hc[ch_num].ep_type = ep_type;
 217:Drivers/STM32F7xx_HAL_Driver/Src/stm32f7xx_hal_hcd.c ****   hhcd->hc[ch_num].ep_num = epnum & 0x7FU;
 218:Drivers/STM32F7xx_HAL_Driver/Src/stm32f7xx_hal_hcd.c **** 
 219:Drivers/STM32F7xx_HAL_Driver/Src/stm32f7xx_hal_hcd.c ****   if ((epnum & 0x80U) == 0x80U)
 220:Drivers/STM32F7xx_HAL_Driver/Src/stm32f7xx_hal_hcd.c ****   {
 221:Drivers/STM32F7xx_HAL_Driver/Src/stm32f7xx_hal_hcd.c ****     hhcd->hc[ch_num].ep_is_in = 1U;
 222:Drivers/STM32F7xx_HAL_Driver/Src/stm32f7xx_hal_hcd.c ****   }
 223:Drivers/STM32F7xx_HAL_Driver/Src/stm32f7xx_hal_hcd.c ****   else
 224:Drivers/STM32F7xx_HAL_Driver/Src/stm32f7xx_hal_hcd.c ****   {
 225:Drivers/STM32F7xx_HAL_Driver/Src/stm32f7xx_hal_hcd.c ****     hhcd->hc[ch_num].ep_is_in = 0U;
 226:Drivers/STM32F7xx_HAL_Driver/Src/stm32f7xx_hal_hcd.c ****   }
 227:Drivers/STM32F7xx_HAL_Driver/Src/stm32f7xx_hal_hcd.c **** 
 228:Drivers/STM32F7xx_HAL_Driver/Src/stm32f7xx_hal_hcd.c ****   hhcd->hc[ch_num].speed = speed;
 229:Drivers/STM32F7xx_HAL_Driver/Src/stm32f7xx_hal_hcd.c **** 
 230:Drivers/STM32F7xx_HAL_Driver/Src/stm32f7xx_hal_hcd.c ****   status =  USB_HC_Init(hhcd->Instance,
 231:Drivers/STM32F7xx_HAL_Driver/Src/stm32f7xx_hal_hcd.c ****                         ch_num,
 232:Drivers/STM32F7xx_HAL_Driver/Src/stm32f7xx_hal_hcd.c ****                         epnum,
 233:Drivers/STM32F7xx_HAL_Driver/Src/stm32f7xx_hal_hcd.c ****                         dev_address,
 234:Drivers/STM32F7xx_HAL_Driver/Src/stm32f7xx_hal_hcd.c ****                         speed,
 235:Drivers/STM32F7xx_HAL_Driver/Src/stm32f7xx_hal_hcd.c ****                         ep_type,
 236:Drivers/STM32F7xx_HAL_Driver/Src/stm32f7xx_hal_hcd.c ****                         mps);
 237:Drivers/STM32F7xx_HAL_Driver/Src/stm32f7xx_hal_hcd.c ****   __HAL_UNLOCK(hhcd);
 238:Drivers/STM32F7xx_HAL_Driver/Src/stm32f7xx_hal_hcd.c **** 
 239:Drivers/STM32F7xx_HAL_Driver/Src/stm32f7xx_hal_hcd.c ****   return status;
 240:Drivers/STM32F7xx_HAL_Driver/Src/stm32f7xx_hal_hcd.c **** }
 241:Drivers/STM32F7xx_HAL_Driver/Src/stm32f7xx_hal_hcd.c **** 
 242:Drivers/STM32F7xx_HAL_Driver/Src/stm32f7xx_hal_hcd.c **** /**
 243:Drivers/STM32F7xx_HAL_Driver/Src/stm32f7xx_hal_hcd.c ****   * @brief  Halt a host channel.
 244:Drivers/STM32F7xx_HAL_Driver/Src/stm32f7xx_hal_hcd.c ****   * @param  hhcd HCD handle
 245:Drivers/STM32F7xx_HAL_Driver/Src/stm32f7xx_hal_hcd.c ****   * @param  ch_num Channel number.
 246:Drivers/STM32F7xx_HAL_Driver/Src/stm32f7xx_hal_hcd.c ****   *         This parameter can be a value from 1 to 15
 247:Drivers/STM32F7xx_HAL_Driver/Src/stm32f7xx_hal_hcd.c ****   * @retval HAL status
 248:Drivers/STM32F7xx_HAL_Driver/Src/stm32f7xx_hal_hcd.c ****   */
 249:Drivers/STM32F7xx_HAL_Driver/Src/stm32f7xx_hal_hcd.c **** HAL_StatusTypeDef HAL_HCD_HC_Halt(HCD_HandleTypeDef *hhcd, uint8_t ch_num)
 250:Drivers/STM32F7xx_HAL_Driver/Src/stm32f7xx_hal_hcd.c **** {
 251:Drivers/STM32F7xx_HAL_Driver/Src/stm32f7xx_hal_hcd.c ****   HAL_StatusTypeDef status = HAL_OK;
 252:Drivers/STM32F7xx_HAL_Driver/Src/stm32f7xx_hal_hcd.c **** 
 253:Drivers/STM32F7xx_HAL_Driver/Src/stm32f7xx_hal_hcd.c ****   __HAL_LOCK(hhcd);
 254:Drivers/STM32F7xx_HAL_Driver/Src/stm32f7xx_hal_hcd.c ****   (void)USB_HC_Halt(hhcd->Instance, (uint8_t)ch_num);
 255:Drivers/STM32F7xx_HAL_Driver/Src/stm32f7xx_hal_hcd.c ****   __HAL_UNLOCK(hhcd);
 256:Drivers/STM32F7xx_HAL_Driver/Src/stm32f7xx_hal_hcd.c **** 
 257:Drivers/STM32F7xx_HAL_Driver/Src/stm32f7xx_hal_hcd.c ****   return status;
 258:Drivers/STM32F7xx_HAL_Driver/Src/stm32f7xx_hal_hcd.c **** }
 259:Drivers/STM32F7xx_HAL_Driver/Src/stm32f7xx_hal_hcd.c **** 
 260:Drivers/STM32F7xx_HAL_Driver/Src/stm32f7xx_hal_hcd.c **** /**
ARM GAS  /tmp/ccqVt8hD.s 			page 6


 261:Drivers/STM32F7xx_HAL_Driver/Src/stm32f7xx_hal_hcd.c ****   * @brief  DeInitialize the host driver.
 262:Drivers/STM32F7xx_HAL_Driver/Src/stm32f7xx_hal_hcd.c ****   * @param  hhcd HCD handle
 263:Drivers/STM32F7xx_HAL_Driver/Src/stm32f7xx_hal_hcd.c ****   * @retval HAL status
 264:Drivers/STM32F7xx_HAL_Driver/Src/stm32f7xx_hal_hcd.c ****   */
 265:Drivers/STM32F7xx_HAL_Driver/Src/stm32f7xx_hal_hcd.c **** HAL_StatusTypeDef HAL_HCD_DeInit(HCD_HandleTypeDef *hhcd)
 266:Drivers/STM32F7xx_HAL_Driver/Src/stm32f7xx_hal_hcd.c **** {
 267:Drivers/STM32F7xx_HAL_Driver/Src/stm32f7xx_hal_hcd.c ****   /* Check the HCD handle allocation */
 268:Drivers/STM32F7xx_HAL_Driver/Src/stm32f7xx_hal_hcd.c ****   if (hhcd == NULL)
 269:Drivers/STM32F7xx_HAL_Driver/Src/stm32f7xx_hal_hcd.c ****   {
 270:Drivers/STM32F7xx_HAL_Driver/Src/stm32f7xx_hal_hcd.c ****     return HAL_ERROR;
 271:Drivers/STM32F7xx_HAL_Driver/Src/stm32f7xx_hal_hcd.c ****   }
 272:Drivers/STM32F7xx_HAL_Driver/Src/stm32f7xx_hal_hcd.c **** 
 273:Drivers/STM32F7xx_HAL_Driver/Src/stm32f7xx_hal_hcd.c ****   hhcd->State = HAL_HCD_STATE_BUSY;
 274:Drivers/STM32F7xx_HAL_Driver/Src/stm32f7xx_hal_hcd.c **** 
 275:Drivers/STM32F7xx_HAL_Driver/Src/stm32f7xx_hal_hcd.c **** #if (USE_HAL_HCD_REGISTER_CALLBACKS == 1U)
 276:Drivers/STM32F7xx_HAL_Driver/Src/stm32f7xx_hal_hcd.c ****   if (hhcd->MspDeInitCallback == NULL)
 277:Drivers/STM32F7xx_HAL_Driver/Src/stm32f7xx_hal_hcd.c ****   {
 278:Drivers/STM32F7xx_HAL_Driver/Src/stm32f7xx_hal_hcd.c ****     hhcd->MspDeInitCallback = HAL_HCD_MspDeInit; /* Legacy weak MspDeInit  */
 279:Drivers/STM32F7xx_HAL_Driver/Src/stm32f7xx_hal_hcd.c ****   }
 280:Drivers/STM32F7xx_HAL_Driver/Src/stm32f7xx_hal_hcd.c **** 
 281:Drivers/STM32F7xx_HAL_Driver/Src/stm32f7xx_hal_hcd.c ****   /* DeInit the low level hardware */
 282:Drivers/STM32F7xx_HAL_Driver/Src/stm32f7xx_hal_hcd.c ****   hhcd->MspDeInitCallback(hhcd);
 283:Drivers/STM32F7xx_HAL_Driver/Src/stm32f7xx_hal_hcd.c **** #else
 284:Drivers/STM32F7xx_HAL_Driver/Src/stm32f7xx_hal_hcd.c ****   /* DeInit the low level hardware: CLOCK, NVIC.*/
 285:Drivers/STM32F7xx_HAL_Driver/Src/stm32f7xx_hal_hcd.c ****   HAL_HCD_MspDeInit(hhcd);
 286:Drivers/STM32F7xx_HAL_Driver/Src/stm32f7xx_hal_hcd.c **** #endif /* USE_HAL_HCD_REGISTER_CALLBACKS */
 287:Drivers/STM32F7xx_HAL_Driver/Src/stm32f7xx_hal_hcd.c **** 
 288:Drivers/STM32F7xx_HAL_Driver/Src/stm32f7xx_hal_hcd.c ****   __HAL_HCD_DISABLE(hhcd);
 289:Drivers/STM32F7xx_HAL_Driver/Src/stm32f7xx_hal_hcd.c **** 
 290:Drivers/STM32F7xx_HAL_Driver/Src/stm32f7xx_hal_hcd.c ****   hhcd->State = HAL_HCD_STATE_RESET;
 291:Drivers/STM32F7xx_HAL_Driver/Src/stm32f7xx_hal_hcd.c **** 
 292:Drivers/STM32F7xx_HAL_Driver/Src/stm32f7xx_hal_hcd.c ****   return HAL_OK;
 293:Drivers/STM32F7xx_HAL_Driver/Src/stm32f7xx_hal_hcd.c **** }
 294:Drivers/STM32F7xx_HAL_Driver/Src/stm32f7xx_hal_hcd.c **** 
 295:Drivers/STM32F7xx_HAL_Driver/Src/stm32f7xx_hal_hcd.c **** /**
 296:Drivers/STM32F7xx_HAL_Driver/Src/stm32f7xx_hal_hcd.c ****   * @brief  Initialize the HCD MSP.
 297:Drivers/STM32F7xx_HAL_Driver/Src/stm32f7xx_hal_hcd.c ****   * @param  hhcd HCD handle
 298:Drivers/STM32F7xx_HAL_Driver/Src/stm32f7xx_hal_hcd.c ****   * @retval None
 299:Drivers/STM32F7xx_HAL_Driver/Src/stm32f7xx_hal_hcd.c ****   */
 300:Drivers/STM32F7xx_HAL_Driver/Src/stm32f7xx_hal_hcd.c **** __weak void  HAL_HCD_MspInit(HCD_HandleTypeDef *hhcd)
 301:Drivers/STM32F7xx_HAL_Driver/Src/stm32f7xx_hal_hcd.c **** {
 302:Drivers/STM32F7xx_HAL_Driver/Src/stm32f7xx_hal_hcd.c ****   /* Prevent unused argument(s) compilation warning */
 303:Drivers/STM32F7xx_HAL_Driver/Src/stm32f7xx_hal_hcd.c ****   UNUSED(hhcd);
 304:Drivers/STM32F7xx_HAL_Driver/Src/stm32f7xx_hal_hcd.c **** 
 305:Drivers/STM32F7xx_HAL_Driver/Src/stm32f7xx_hal_hcd.c ****   /* NOTE : This function should not be modified, when the callback is needed,
 306:Drivers/STM32F7xx_HAL_Driver/Src/stm32f7xx_hal_hcd.c ****             the HAL_HCD_MspInit could be implemented in the user file
 307:Drivers/STM32F7xx_HAL_Driver/Src/stm32f7xx_hal_hcd.c ****    */
 308:Drivers/STM32F7xx_HAL_Driver/Src/stm32f7xx_hal_hcd.c **** }
 309:Drivers/STM32F7xx_HAL_Driver/Src/stm32f7xx_hal_hcd.c **** 
 310:Drivers/STM32F7xx_HAL_Driver/Src/stm32f7xx_hal_hcd.c **** /**
 311:Drivers/STM32F7xx_HAL_Driver/Src/stm32f7xx_hal_hcd.c ****   * @brief  DeInitialize the HCD MSP.
 312:Drivers/STM32F7xx_HAL_Driver/Src/stm32f7xx_hal_hcd.c ****   * @param  hhcd HCD handle
 313:Drivers/STM32F7xx_HAL_Driver/Src/stm32f7xx_hal_hcd.c ****   * @retval None
 314:Drivers/STM32F7xx_HAL_Driver/Src/stm32f7xx_hal_hcd.c ****   */
 315:Drivers/STM32F7xx_HAL_Driver/Src/stm32f7xx_hal_hcd.c **** __weak void  HAL_HCD_MspDeInit(HCD_HandleTypeDef *hhcd)
 316:Drivers/STM32F7xx_HAL_Driver/Src/stm32f7xx_hal_hcd.c **** {
 317:Drivers/STM32F7xx_HAL_Driver/Src/stm32f7xx_hal_hcd.c ****   /* Prevent unused argument(s) compilation warning */
ARM GAS  /tmp/ccqVt8hD.s 			page 7


 318:Drivers/STM32F7xx_HAL_Driver/Src/stm32f7xx_hal_hcd.c ****   UNUSED(hhcd);
 319:Drivers/STM32F7xx_HAL_Driver/Src/stm32f7xx_hal_hcd.c **** 
 320:Drivers/STM32F7xx_HAL_Driver/Src/stm32f7xx_hal_hcd.c ****   /* NOTE : This function should not be modified, when the callback is needed,
 321:Drivers/STM32F7xx_HAL_Driver/Src/stm32f7xx_hal_hcd.c ****             the HAL_HCD_MspDeInit could be implemented in the user file
 322:Drivers/STM32F7xx_HAL_Driver/Src/stm32f7xx_hal_hcd.c ****    */
 323:Drivers/STM32F7xx_HAL_Driver/Src/stm32f7xx_hal_hcd.c **** }
 324:Drivers/STM32F7xx_HAL_Driver/Src/stm32f7xx_hal_hcd.c **** 
 325:Drivers/STM32F7xx_HAL_Driver/Src/stm32f7xx_hal_hcd.c **** /**
 326:Drivers/STM32F7xx_HAL_Driver/Src/stm32f7xx_hal_hcd.c ****   * @}
 327:Drivers/STM32F7xx_HAL_Driver/Src/stm32f7xx_hal_hcd.c ****   */
 328:Drivers/STM32F7xx_HAL_Driver/Src/stm32f7xx_hal_hcd.c **** 
 329:Drivers/STM32F7xx_HAL_Driver/Src/stm32f7xx_hal_hcd.c **** /** @defgroup HCD_Exported_Functions_Group2 Input and Output operation functions
 330:Drivers/STM32F7xx_HAL_Driver/Src/stm32f7xx_hal_hcd.c ****   *  @brief   HCD IO operation functions
 331:Drivers/STM32F7xx_HAL_Driver/Src/stm32f7xx_hal_hcd.c ****   *
 332:Drivers/STM32F7xx_HAL_Driver/Src/stm32f7xx_hal_hcd.c **** @verbatim
 333:Drivers/STM32F7xx_HAL_Driver/Src/stm32f7xx_hal_hcd.c ****  ===============================================================================
 334:Drivers/STM32F7xx_HAL_Driver/Src/stm32f7xx_hal_hcd.c ****                       ##### IO operation functions #####
 335:Drivers/STM32F7xx_HAL_Driver/Src/stm32f7xx_hal_hcd.c ****  ===============================================================================
 336:Drivers/STM32F7xx_HAL_Driver/Src/stm32f7xx_hal_hcd.c ****  [..] This subsection provides a set of functions allowing to manage the USB Host Data
 337:Drivers/STM32F7xx_HAL_Driver/Src/stm32f7xx_hal_hcd.c ****     Transfer
 338:Drivers/STM32F7xx_HAL_Driver/Src/stm32f7xx_hal_hcd.c **** 
 339:Drivers/STM32F7xx_HAL_Driver/Src/stm32f7xx_hal_hcd.c **** @endverbatim
 340:Drivers/STM32F7xx_HAL_Driver/Src/stm32f7xx_hal_hcd.c ****   * @{
 341:Drivers/STM32F7xx_HAL_Driver/Src/stm32f7xx_hal_hcd.c ****   */
 342:Drivers/STM32F7xx_HAL_Driver/Src/stm32f7xx_hal_hcd.c **** 
 343:Drivers/STM32F7xx_HAL_Driver/Src/stm32f7xx_hal_hcd.c **** /**
 344:Drivers/STM32F7xx_HAL_Driver/Src/stm32f7xx_hal_hcd.c ****   * @brief  Submit a new URB for processing.
 345:Drivers/STM32F7xx_HAL_Driver/Src/stm32f7xx_hal_hcd.c ****   * @param  hhcd HCD handle
 346:Drivers/STM32F7xx_HAL_Driver/Src/stm32f7xx_hal_hcd.c ****   * @param  ch_num Channel number.
 347:Drivers/STM32F7xx_HAL_Driver/Src/stm32f7xx_hal_hcd.c ****   *         This parameter can be a value from 1 to 15
 348:Drivers/STM32F7xx_HAL_Driver/Src/stm32f7xx_hal_hcd.c ****   * @param  direction Channel number.
 349:Drivers/STM32F7xx_HAL_Driver/Src/stm32f7xx_hal_hcd.c ****   *          This parameter can be one of these values:
 350:Drivers/STM32F7xx_HAL_Driver/Src/stm32f7xx_hal_hcd.c ****   *           0 : Output / 1 : Input
 351:Drivers/STM32F7xx_HAL_Driver/Src/stm32f7xx_hal_hcd.c ****   * @param  ep_type Endpoint Type.
 352:Drivers/STM32F7xx_HAL_Driver/Src/stm32f7xx_hal_hcd.c ****   *          This parameter can be one of these values:
 353:Drivers/STM32F7xx_HAL_Driver/Src/stm32f7xx_hal_hcd.c ****   *            EP_TYPE_CTRL: Control type/
 354:Drivers/STM32F7xx_HAL_Driver/Src/stm32f7xx_hal_hcd.c ****   *            EP_TYPE_ISOC: Isochronous type/
 355:Drivers/STM32F7xx_HAL_Driver/Src/stm32f7xx_hal_hcd.c ****   *            EP_TYPE_BULK: Bulk type/
 356:Drivers/STM32F7xx_HAL_Driver/Src/stm32f7xx_hal_hcd.c ****   *            EP_TYPE_INTR: Interrupt type/
 357:Drivers/STM32F7xx_HAL_Driver/Src/stm32f7xx_hal_hcd.c ****   * @param  token Endpoint Type.
 358:Drivers/STM32F7xx_HAL_Driver/Src/stm32f7xx_hal_hcd.c ****   *          This parameter can be one of these values:
 359:Drivers/STM32F7xx_HAL_Driver/Src/stm32f7xx_hal_hcd.c ****   *            0: HC_PID_SETUP / 1: HC_PID_DATA1
 360:Drivers/STM32F7xx_HAL_Driver/Src/stm32f7xx_hal_hcd.c ****   * @param  pbuff pointer to URB data
 361:Drivers/STM32F7xx_HAL_Driver/Src/stm32f7xx_hal_hcd.c ****   * @param  length Length of URB data
 362:Drivers/STM32F7xx_HAL_Driver/Src/stm32f7xx_hal_hcd.c ****   * @param  do_ping activate do ping protocol (for high speed only).
 363:Drivers/STM32F7xx_HAL_Driver/Src/stm32f7xx_hal_hcd.c ****   *          This parameter can be one of these values:
 364:Drivers/STM32F7xx_HAL_Driver/Src/stm32f7xx_hal_hcd.c ****   *           0 : do ping inactive / 1 : do ping active
 365:Drivers/STM32F7xx_HAL_Driver/Src/stm32f7xx_hal_hcd.c ****   * @retval HAL status
 366:Drivers/STM32F7xx_HAL_Driver/Src/stm32f7xx_hal_hcd.c ****   */
 367:Drivers/STM32F7xx_HAL_Driver/Src/stm32f7xx_hal_hcd.c **** HAL_StatusTypeDef HAL_HCD_HC_SubmitRequest(HCD_HandleTypeDef *hhcd,
 368:Drivers/STM32F7xx_HAL_Driver/Src/stm32f7xx_hal_hcd.c ****                                            uint8_t ch_num,
 369:Drivers/STM32F7xx_HAL_Driver/Src/stm32f7xx_hal_hcd.c ****                                            uint8_t direction,
 370:Drivers/STM32F7xx_HAL_Driver/Src/stm32f7xx_hal_hcd.c ****                                            uint8_t ep_type,
 371:Drivers/STM32F7xx_HAL_Driver/Src/stm32f7xx_hal_hcd.c ****                                            uint8_t token,
 372:Drivers/STM32F7xx_HAL_Driver/Src/stm32f7xx_hal_hcd.c ****                                            uint8_t *pbuff,
 373:Drivers/STM32F7xx_HAL_Driver/Src/stm32f7xx_hal_hcd.c ****                                            uint16_t length,
 374:Drivers/STM32F7xx_HAL_Driver/Src/stm32f7xx_hal_hcd.c ****                                            uint8_t do_ping)
ARM GAS  /tmp/ccqVt8hD.s 			page 8


 375:Drivers/STM32F7xx_HAL_Driver/Src/stm32f7xx_hal_hcd.c **** {
 376:Drivers/STM32F7xx_HAL_Driver/Src/stm32f7xx_hal_hcd.c ****   hhcd->hc[ch_num].ep_is_in = direction;
 377:Drivers/STM32F7xx_HAL_Driver/Src/stm32f7xx_hal_hcd.c ****   hhcd->hc[ch_num].ep_type  = ep_type;
 378:Drivers/STM32F7xx_HAL_Driver/Src/stm32f7xx_hal_hcd.c **** 
 379:Drivers/STM32F7xx_HAL_Driver/Src/stm32f7xx_hal_hcd.c ****   if (token == 0U)
 380:Drivers/STM32F7xx_HAL_Driver/Src/stm32f7xx_hal_hcd.c ****   {
 381:Drivers/STM32F7xx_HAL_Driver/Src/stm32f7xx_hal_hcd.c ****     hhcd->hc[ch_num].data_pid = HC_PID_SETUP;
 382:Drivers/STM32F7xx_HAL_Driver/Src/stm32f7xx_hal_hcd.c ****     hhcd->hc[ch_num].do_ping = do_ping;
 383:Drivers/STM32F7xx_HAL_Driver/Src/stm32f7xx_hal_hcd.c ****   }
 384:Drivers/STM32F7xx_HAL_Driver/Src/stm32f7xx_hal_hcd.c ****   else
 385:Drivers/STM32F7xx_HAL_Driver/Src/stm32f7xx_hal_hcd.c ****   {
 386:Drivers/STM32F7xx_HAL_Driver/Src/stm32f7xx_hal_hcd.c ****     hhcd->hc[ch_num].data_pid = HC_PID_DATA1;
 387:Drivers/STM32F7xx_HAL_Driver/Src/stm32f7xx_hal_hcd.c ****   }
 388:Drivers/STM32F7xx_HAL_Driver/Src/stm32f7xx_hal_hcd.c **** 
 389:Drivers/STM32F7xx_HAL_Driver/Src/stm32f7xx_hal_hcd.c ****   /* Manage Data Toggle */
 390:Drivers/STM32F7xx_HAL_Driver/Src/stm32f7xx_hal_hcd.c ****   switch (ep_type)
 391:Drivers/STM32F7xx_HAL_Driver/Src/stm32f7xx_hal_hcd.c ****   {
 392:Drivers/STM32F7xx_HAL_Driver/Src/stm32f7xx_hal_hcd.c ****     case EP_TYPE_CTRL:
 393:Drivers/STM32F7xx_HAL_Driver/Src/stm32f7xx_hal_hcd.c ****       if ((token == 1U) && (direction == 0U)) /*send data */
 394:Drivers/STM32F7xx_HAL_Driver/Src/stm32f7xx_hal_hcd.c ****       {
 395:Drivers/STM32F7xx_HAL_Driver/Src/stm32f7xx_hal_hcd.c ****         if (length == 0U)
 396:Drivers/STM32F7xx_HAL_Driver/Src/stm32f7xx_hal_hcd.c ****         {
 397:Drivers/STM32F7xx_HAL_Driver/Src/stm32f7xx_hal_hcd.c ****           /* For Status OUT stage, Length==0, Status Out PID = 1 */
 398:Drivers/STM32F7xx_HAL_Driver/Src/stm32f7xx_hal_hcd.c ****           hhcd->hc[ch_num].toggle_out = 1U;
 399:Drivers/STM32F7xx_HAL_Driver/Src/stm32f7xx_hal_hcd.c ****         }
 400:Drivers/STM32F7xx_HAL_Driver/Src/stm32f7xx_hal_hcd.c **** 
 401:Drivers/STM32F7xx_HAL_Driver/Src/stm32f7xx_hal_hcd.c ****         /* Set the Data Toggle bit as per the Flag */
 402:Drivers/STM32F7xx_HAL_Driver/Src/stm32f7xx_hal_hcd.c ****         if (hhcd->hc[ch_num].toggle_out == 0U)
 403:Drivers/STM32F7xx_HAL_Driver/Src/stm32f7xx_hal_hcd.c ****         {
 404:Drivers/STM32F7xx_HAL_Driver/Src/stm32f7xx_hal_hcd.c ****           /* Put the PID 0 */
 405:Drivers/STM32F7xx_HAL_Driver/Src/stm32f7xx_hal_hcd.c ****           hhcd->hc[ch_num].data_pid = HC_PID_DATA0;
 406:Drivers/STM32F7xx_HAL_Driver/Src/stm32f7xx_hal_hcd.c ****         }
 407:Drivers/STM32F7xx_HAL_Driver/Src/stm32f7xx_hal_hcd.c ****         else
 408:Drivers/STM32F7xx_HAL_Driver/Src/stm32f7xx_hal_hcd.c ****         {
 409:Drivers/STM32F7xx_HAL_Driver/Src/stm32f7xx_hal_hcd.c ****           /* Put the PID 1 */
 410:Drivers/STM32F7xx_HAL_Driver/Src/stm32f7xx_hal_hcd.c ****           hhcd->hc[ch_num].data_pid = HC_PID_DATA1;
 411:Drivers/STM32F7xx_HAL_Driver/Src/stm32f7xx_hal_hcd.c ****         }
 412:Drivers/STM32F7xx_HAL_Driver/Src/stm32f7xx_hal_hcd.c ****       }
 413:Drivers/STM32F7xx_HAL_Driver/Src/stm32f7xx_hal_hcd.c ****       break;
 414:Drivers/STM32F7xx_HAL_Driver/Src/stm32f7xx_hal_hcd.c **** 
 415:Drivers/STM32F7xx_HAL_Driver/Src/stm32f7xx_hal_hcd.c ****     case EP_TYPE_BULK:
 416:Drivers/STM32F7xx_HAL_Driver/Src/stm32f7xx_hal_hcd.c ****       if (direction == 0U)
 417:Drivers/STM32F7xx_HAL_Driver/Src/stm32f7xx_hal_hcd.c ****       {
 418:Drivers/STM32F7xx_HAL_Driver/Src/stm32f7xx_hal_hcd.c ****         /* Set the Data Toggle bit as per the Flag */
 419:Drivers/STM32F7xx_HAL_Driver/Src/stm32f7xx_hal_hcd.c ****         if (hhcd->hc[ch_num].toggle_out == 0U)
 420:Drivers/STM32F7xx_HAL_Driver/Src/stm32f7xx_hal_hcd.c ****         {
 421:Drivers/STM32F7xx_HAL_Driver/Src/stm32f7xx_hal_hcd.c ****           /* Put the PID 0 */
 422:Drivers/STM32F7xx_HAL_Driver/Src/stm32f7xx_hal_hcd.c ****           hhcd->hc[ch_num].data_pid = HC_PID_DATA0;
 423:Drivers/STM32F7xx_HAL_Driver/Src/stm32f7xx_hal_hcd.c ****         }
 424:Drivers/STM32F7xx_HAL_Driver/Src/stm32f7xx_hal_hcd.c ****         else
 425:Drivers/STM32F7xx_HAL_Driver/Src/stm32f7xx_hal_hcd.c ****         {
 426:Drivers/STM32F7xx_HAL_Driver/Src/stm32f7xx_hal_hcd.c ****           /* Put the PID 1 */
 427:Drivers/STM32F7xx_HAL_Driver/Src/stm32f7xx_hal_hcd.c ****           hhcd->hc[ch_num].data_pid = HC_PID_DATA1;
 428:Drivers/STM32F7xx_HAL_Driver/Src/stm32f7xx_hal_hcd.c ****         }
 429:Drivers/STM32F7xx_HAL_Driver/Src/stm32f7xx_hal_hcd.c ****       }
 430:Drivers/STM32F7xx_HAL_Driver/Src/stm32f7xx_hal_hcd.c ****       else
 431:Drivers/STM32F7xx_HAL_Driver/Src/stm32f7xx_hal_hcd.c ****       {
ARM GAS  /tmp/ccqVt8hD.s 			page 9


 432:Drivers/STM32F7xx_HAL_Driver/Src/stm32f7xx_hal_hcd.c ****         if (hhcd->hc[ch_num].toggle_in == 0U)
 433:Drivers/STM32F7xx_HAL_Driver/Src/stm32f7xx_hal_hcd.c ****         {
 434:Drivers/STM32F7xx_HAL_Driver/Src/stm32f7xx_hal_hcd.c ****           hhcd->hc[ch_num].data_pid = HC_PID_DATA0;
 435:Drivers/STM32F7xx_HAL_Driver/Src/stm32f7xx_hal_hcd.c ****         }
 436:Drivers/STM32F7xx_HAL_Driver/Src/stm32f7xx_hal_hcd.c ****         else
 437:Drivers/STM32F7xx_HAL_Driver/Src/stm32f7xx_hal_hcd.c ****         {
 438:Drivers/STM32F7xx_HAL_Driver/Src/stm32f7xx_hal_hcd.c ****           hhcd->hc[ch_num].data_pid = HC_PID_DATA1;
 439:Drivers/STM32F7xx_HAL_Driver/Src/stm32f7xx_hal_hcd.c ****         }
 440:Drivers/STM32F7xx_HAL_Driver/Src/stm32f7xx_hal_hcd.c ****       }
 441:Drivers/STM32F7xx_HAL_Driver/Src/stm32f7xx_hal_hcd.c **** 
 442:Drivers/STM32F7xx_HAL_Driver/Src/stm32f7xx_hal_hcd.c ****       break;
 443:Drivers/STM32F7xx_HAL_Driver/Src/stm32f7xx_hal_hcd.c ****     case EP_TYPE_INTR:
 444:Drivers/STM32F7xx_HAL_Driver/Src/stm32f7xx_hal_hcd.c ****       if (direction == 0U)
 445:Drivers/STM32F7xx_HAL_Driver/Src/stm32f7xx_hal_hcd.c ****       {
 446:Drivers/STM32F7xx_HAL_Driver/Src/stm32f7xx_hal_hcd.c ****         /* Set the Data Toggle bit as per the Flag */
 447:Drivers/STM32F7xx_HAL_Driver/Src/stm32f7xx_hal_hcd.c ****         if (hhcd->hc[ch_num].toggle_out == 0U)
 448:Drivers/STM32F7xx_HAL_Driver/Src/stm32f7xx_hal_hcd.c ****         {
 449:Drivers/STM32F7xx_HAL_Driver/Src/stm32f7xx_hal_hcd.c ****           /* Put the PID 0 */
 450:Drivers/STM32F7xx_HAL_Driver/Src/stm32f7xx_hal_hcd.c ****           hhcd->hc[ch_num].data_pid = HC_PID_DATA0;
 451:Drivers/STM32F7xx_HAL_Driver/Src/stm32f7xx_hal_hcd.c ****         }
 452:Drivers/STM32F7xx_HAL_Driver/Src/stm32f7xx_hal_hcd.c ****         else
 453:Drivers/STM32F7xx_HAL_Driver/Src/stm32f7xx_hal_hcd.c ****         {
 454:Drivers/STM32F7xx_HAL_Driver/Src/stm32f7xx_hal_hcd.c ****           /* Put the PID 1 */
 455:Drivers/STM32F7xx_HAL_Driver/Src/stm32f7xx_hal_hcd.c ****           hhcd->hc[ch_num].data_pid = HC_PID_DATA1;
 456:Drivers/STM32F7xx_HAL_Driver/Src/stm32f7xx_hal_hcd.c ****         }
 457:Drivers/STM32F7xx_HAL_Driver/Src/stm32f7xx_hal_hcd.c ****       }
 458:Drivers/STM32F7xx_HAL_Driver/Src/stm32f7xx_hal_hcd.c ****       else
 459:Drivers/STM32F7xx_HAL_Driver/Src/stm32f7xx_hal_hcd.c ****       {
 460:Drivers/STM32F7xx_HAL_Driver/Src/stm32f7xx_hal_hcd.c ****         if (hhcd->hc[ch_num].toggle_in == 0U)
 461:Drivers/STM32F7xx_HAL_Driver/Src/stm32f7xx_hal_hcd.c ****         {
 462:Drivers/STM32F7xx_HAL_Driver/Src/stm32f7xx_hal_hcd.c ****           hhcd->hc[ch_num].data_pid = HC_PID_DATA0;
 463:Drivers/STM32F7xx_HAL_Driver/Src/stm32f7xx_hal_hcd.c ****         }
 464:Drivers/STM32F7xx_HAL_Driver/Src/stm32f7xx_hal_hcd.c ****         else
 465:Drivers/STM32F7xx_HAL_Driver/Src/stm32f7xx_hal_hcd.c ****         {
 466:Drivers/STM32F7xx_HAL_Driver/Src/stm32f7xx_hal_hcd.c ****           hhcd->hc[ch_num].data_pid = HC_PID_DATA1;
 467:Drivers/STM32F7xx_HAL_Driver/Src/stm32f7xx_hal_hcd.c ****         }
 468:Drivers/STM32F7xx_HAL_Driver/Src/stm32f7xx_hal_hcd.c ****       }
 469:Drivers/STM32F7xx_HAL_Driver/Src/stm32f7xx_hal_hcd.c ****       break;
 470:Drivers/STM32F7xx_HAL_Driver/Src/stm32f7xx_hal_hcd.c **** 
 471:Drivers/STM32F7xx_HAL_Driver/Src/stm32f7xx_hal_hcd.c ****     case EP_TYPE_ISOC:
 472:Drivers/STM32F7xx_HAL_Driver/Src/stm32f7xx_hal_hcd.c ****       hhcd->hc[ch_num].data_pid = HC_PID_DATA0;
 473:Drivers/STM32F7xx_HAL_Driver/Src/stm32f7xx_hal_hcd.c ****       break;
 474:Drivers/STM32F7xx_HAL_Driver/Src/stm32f7xx_hal_hcd.c **** 
 475:Drivers/STM32F7xx_HAL_Driver/Src/stm32f7xx_hal_hcd.c ****     default:
 476:Drivers/STM32F7xx_HAL_Driver/Src/stm32f7xx_hal_hcd.c ****       break;
 477:Drivers/STM32F7xx_HAL_Driver/Src/stm32f7xx_hal_hcd.c ****   }
 478:Drivers/STM32F7xx_HAL_Driver/Src/stm32f7xx_hal_hcd.c **** 
 479:Drivers/STM32F7xx_HAL_Driver/Src/stm32f7xx_hal_hcd.c ****   hhcd->hc[ch_num].xfer_buff = pbuff;
 480:Drivers/STM32F7xx_HAL_Driver/Src/stm32f7xx_hal_hcd.c ****   hhcd->hc[ch_num].xfer_len  = length;
 481:Drivers/STM32F7xx_HAL_Driver/Src/stm32f7xx_hal_hcd.c ****   hhcd->hc[ch_num].urb_state = URB_IDLE;
 482:Drivers/STM32F7xx_HAL_Driver/Src/stm32f7xx_hal_hcd.c ****   hhcd->hc[ch_num].xfer_count = 0U;
 483:Drivers/STM32F7xx_HAL_Driver/Src/stm32f7xx_hal_hcd.c ****   hhcd->hc[ch_num].ch_num = ch_num;
 484:Drivers/STM32F7xx_HAL_Driver/Src/stm32f7xx_hal_hcd.c ****   hhcd->hc[ch_num].state = HC_IDLE;
 485:Drivers/STM32F7xx_HAL_Driver/Src/stm32f7xx_hal_hcd.c **** 
 486:Drivers/STM32F7xx_HAL_Driver/Src/stm32f7xx_hal_hcd.c ****   return USB_HC_StartXfer(hhcd->Instance, &hhcd->hc[ch_num], (uint8_t)hhcd->Init.dma_enable);
 487:Drivers/STM32F7xx_HAL_Driver/Src/stm32f7xx_hal_hcd.c **** }
 488:Drivers/STM32F7xx_HAL_Driver/Src/stm32f7xx_hal_hcd.c **** 
ARM GAS  /tmp/ccqVt8hD.s 			page 10


 489:Drivers/STM32F7xx_HAL_Driver/Src/stm32f7xx_hal_hcd.c **** /**
 490:Drivers/STM32F7xx_HAL_Driver/Src/stm32f7xx_hal_hcd.c ****   * @brief  Handle HCD interrupt request.
 491:Drivers/STM32F7xx_HAL_Driver/Src/stm32f7xx_hal_hcd.c ****   * @param  hhcd HCD handle
 492:Drivers/STM32F7xx_HAL_Driver/Src/stm32f7xx_hal_hcd.c ****   * @retval None
 493:Drivers/STM32F7xx_HAL_Driver/Src/stm32f7xx_hal_hcd.c ****   */
 494:Drivers/STM32F7xx_HAL_Driver/Src/stm32f7xx_hal_hcd.c **** void HAL_HCD_IRQHandler(HCD_HandleTypeDef *hhcd)
 495:Drivers/STM32F7xx_HAL_Driver/Src/stm32f7xx_hal_hcd.c **** {
 496:Drivers/STM32F7xx_HAL_Driver/Src/stm32f7xx_hal_hcd.c ****   USB_OTG_GlobalTypeDef *USBx = hhcd->Instance;
 497:Drivers/STM32F7xx_HAL_Driver/Src/stm32f7xx_hal_hcd.c ****   uint32_t USBx_BASE = (uint32_t)USBx;
 498:Drivers/STM32F7xx_HAL_Driver/Src/stm32f7xx_hal_hcd.c ****   uint32_t i, interrupt;
 499:Drivers/STM32F7xx_HAL_Driver/Src/stm32f7xx_hal_hcd.c **** 
 500:Drivers/STM32F7xx_HAL_Driver/Src/stm32f7xx_hal_hcd.c ****   /* Ensure that we are in device mode */
 501:Drivers/STM32F7xx_HAL_Driver/Src/stm32f7xx_hal_hcd.c ****   if (USB_GetMode(hhcd->Instance) == USB_OTG_MODE_HOST)
 502:Drivers/STM32F7xx_HAL_Driver/Src/stm32f7xx_hal_hcd.c ****   {
 503:Drivers/STM32F7xx_HAL_Driver/Src/stm32f7xx_hal_hcd.c ****     /* Avoid spurious interrupt */
 504:Drivers/STM32F7xx_HAL_Driver/Src/stm32f7xx_hal_hcd.c ****     if (__HAL_HCD_IS_INVALID_INTERRUPT(hhcd))
 505:Drivers/STM32F7xx_HAL_Driver/Src/stm32f7xx_hal_hcd.c ****     {
 506:Drivers/STM32F7xx_HAL_Driver/Src/stm32f7xx_hal_hcd.c ****       return;
 507:Drivers/STM32F7xx_HAL_Driver/Src/stm32f7xx_hal_hcd.c ****     }
 508:Drivers/STM32F7xx_HAL_Driver/Src/stm32f7xx_hal_hcd.c **** 
 509:Drivers/STM32F7xx_HAL_Driver/Src/stm32f7xx_hal_hcd.c ****     if (__HAL_HCD_GET_FLAG(hhcd, USB_OTG_GINTSTS_PXFR_INCOMPISOOUT))
 510:Drivers/STM32F7xx_HAL_Driver/Src/stm32f7xx_hal_hcd.c ****     {
 511:Drivers/STM32F7xx_HAL_Driver/Src/stm32f7xx_hal_hcd.c ****       /* Incorrect mode, acknowledge the interrupt */
 512:Drivers/STM32F7xx_HAL_Driver/Src/stm32f7xx_hal_hcd.c ****       __HAL_HCD_CLEAR_FLAG(hhcd, USB_OTG_GINTSTS_PXFR_INCOMPISOOUT);
 513:Drivers/STM32F7xx_HAL_Driver/Src/stm32f7xx_hal_hcd.c ****     }
 514:Drivers/STM32F7xx_HAL_Driver/Src/stm32f7xx_hal_hcd.c **** 
 515:Drivers/STM32F7xx_HAL_Driver/Src/stm32f7xx_hal_hcd.c ****     if (__HAL_HCD_GET_FLAG(hhcd, USB_OTG_GINTSTS_IISOIXFR))
 516:Drivers/STM32F7xx_HAL_Driver/Src/stm32f7xx_hal_hcd.c ****     {
 517:Drivers/STM32F7xx_HAL_Driver/Src/stm32f7xx_hal_hcd.c ****       /* Incorrect mode, acknowledge the interrupt */
 518:Drivers/STM32F7xx_HAL_Driver/Src/stm32f7xx_hal_hcd.c ****       __HAL_HCD_CLEAR_FLAG(hhcd, USB_OTG_GINTSTS_IISOIXFR);
 519:Drivers/STM32F7xx_HAL_Driver/Src/stm32f7xx_hal_hcd.c ****     }
 520:Drivers/STM32F7xx_HAL_Driver/Src/stm32f7xx_hal_hcd.c **** 
 521:Drivers/STM32F7xx_HAL_Driver/Src/stm32f7xx_hal_hcd.c ****     if (__HAL_HCD_GET_FLAG(hhcd, USB_OTG_GINTSTS_PTXFE))
 522:Drivers/STM32F7xx_HAL_Driver/Src/stm32f7xx_hal_hcd.c ****     {
 523:Drivers/STM32F7xx_HAL_Driver/Src/stm32f7xx_hal_hcd.c ****       /* Incorrect mode, acknowledge the interrupt */
 524:Drivers/STM32F7xx_HAL_Driver/Src/stm32f7xx_hal_hcd.c ****       __HAL_HCD_CLEAR_FLAG(hhcd, USB_OTG_GINTSTS_PTXFE);
 525:Drivers/STM32F7xx_HAL_Driver/Src/stm32f7xx_hal_hcd.c ****     }
 526:Drivers/STM32F7xx_HAL_Driver/Src/stm32f7xx_hal_hcd.c **** 
 527:Drivers/STM32F7xx_HAL_Driver/Src/stm32f7xx_hal_hcd.c ****     if (__HAL_HCD_GET_FLAG(hhcd, USB_OTG_GINTSTS_MMIS))
 528:Drivers/STM32F7xx_HAL_Driver/Src/stm32f7xx_hal_hcd.c ****     {
 529:Drivers/STM32F7xx_HAL_Driver/Src/stm32f7xx_hal_hcd.c ****       /* Incorrect mode, acknowledge the interrupt */
 530:Drivers/STM32F7xx_HAL_Driver/Src/stm32f7xx_hal_hcd.c ****       __HAL_HCD_CLEAR_FLAG(hhcd, USB_OTG_GINTSTS_MMIS);
 531:Drivers/STM32F7xx_HAL_Driver/Src/stm32f7xx_hal_hcd.c ****     }
 532:Drivers/STM32F7xx_HAL_Driver/Src/stm32f7xx_hal_hcd.c **** 
 533:Drivers/STM32F7xx_HAL_Driver/Src/stm32f7xx_hal_hcd.c ****     /* Handle Host Disconnect Interrupts */
 534:Drivers/STM32F7xx_HAL_Driver/Src/stm32f7xx_hal_hcd.c ****     if (__HAL_HCD_GET_FLAG(hhcd, USB_OTG_GINTSTS_DISCINT))
 535:Drivers/STM32F7xx_HAL_Driver/Src/stm32f7xx_hal_hcd.c ****     {
 536:Drivers/STM32F7xx_HAL_Driver/Src/stm32f7xx_hal_hcd.c ****       __HAL_HCD_CLEAR_FLAG(hhcd, USB_OTG_GINTSTS_DISCINT);
 537:Drivers/STM32F7xx_HAL_Driver/Src/stm32f7xx_hal_hcd.c **** 
 538:Drivers/STM32F7xx_HAL_Driver/Src/stm32f7xx_hal_hcd.c ****       if ((USBx_HPRT0 & USB_OTG_HPRT_PCSTS) == 0U)
 539:Drivers/STM32F7xx_HAL_Driver/Src/stm32f7xx_hal_hcd.c ****       {
 540:Drivers/STM32F7xx_HAL_Driver/Src/stm32f7xx_hal_hcd.c ****         /* Handle Host Port Disconnect Interrupt */
 541:Drivers/STM32F7xx_HAL_Driver/Src/stm32f7xx_hal_hcd.c **** #if (USE_HAL_HCD_REGISTER_CALLBACKS == 1U)
 542:Drivers/STM32F7xx_HAL_Driver/Src/stm32f7xx_hal_hcd.c ****         hhcd->DisconnectCallback(hhcd);
 543:Drivers/STM32F7xx_HAL_Driver/Src/stm32f7xx_hal_hcd.c **** #else
 544:Drivers/STM32F7xx_HAL_Driver/Src/stm32f7xx_hal_hcd.c ****         HAL_HCD_Disconnect_Callback(hhcd);
 545:Drivers/STM32F7xx_HAL_Driver/Src/stm32f7xx_hal_hcd.c **** #endif /* USE_HAL_HCD_REGISTER_CALLBACKS */
ARM GAS  /tmp/ccqVt8hD.s 			page 11


 546:Drivers/STM32F7xx_HAL_Driver/Src/stm32f7xx_hal_hcd.c **** 
 547:Drivers/STM32F7xx_HAL_Driver/Src/stm32f7xx_hal_hcd.c ****         (void)USB_InitFSLSPClkSel(hhcd->Instance, HCFG_48_MHZ);
 548:Drivers/STM32F7xx_HAL_Driver/Src/stm32f7xx_hal_hcd.c ****       }
 549:Drivers/STM32F7xx_HAL_Driver/Src/stm32f7xx_hal_hcd.c ****     }
 550:Drivers/STM32F7xx_HAL_Driver/Src/stm32f7xx_hal_hcd.c **** 
 551:Drivers/STM32F7xx_HAL_Driver/Src/stm32f7xx_hal_hcd.c ****     /* Handle Host Port Interrupts */
 552:Drivers/STM32F7xx_HAL_Driver/Src/stm32f7xx_hal_hcd.c ****     if (__HAL_HCD_GET_FLAG(hhcd, USB_OTG_GINTSTS_HPRTINT))
 553:Drivers/STM32F7xx_HAL_Driver/Src/stm32f7xx_hal_hcd.c ****     {
 554:Drivers/STM32F7xx_HAL_Driver/Src/stm32f7xx_hal_hcd.c ****       HCD_Port_IRQHandler(hhcd);
 555:Drivers/STM32F7xx_HAL_Driver/Src/stm32f7xx_hal_hcd.c ****     }
 556:Drivers/STM32F7xx_HAL_Driver/Src/stm32f7xx_hal_hcd.c **** 
 557:Drivers/STM32F7xx_HAL_Driver/Src/stm32f7xx_hal_hcd.c ****     /* Handle Host SOF Interrupt */
 558:Drivers/STM32F7xx_HAL_Driver/Src/stm32f7xx_hal_hcd.c ****     if (__HAL_HCD_GET_FLAG(hhcd, USB_OTG_GINTSTS_SOF))
 559:Drivers/STM32F7xx_HAL_Driver/Src/stm32f7xx_hal_hcd.c ****     {
 560:Drivers/STM32F7xx_HAL_Driver/Src/stm32f7xx_hal_hcd.c **** #if (USE_HAL_HCD_REGISTER_CALLBACKS == 1U)
 561:Drivers/STM32F7xx_HAL_Driver/Src/stm32f7xx_hal_hcd.c ****       hhcd->SOFCallback(hhcd);
 562:Drivers/STM32F7xx_HAL_Driver/Src/stm32f7xx_hal_hcd.c **** #else
 563:Drivers/STM32F7xx_HAL_Driver/Src/stm32f7xx_hal_hcd.c ****       HAL_HCD_SOF_Callback(hhcd);
 564:Drivers/STM32F7xx_HAL_Driver/Src/stm32f7xx_hal_hcd.c **** #endif /* USE_HAL_HCD_REGISTER_CALLBACKS */
 565:Drivers/STM32F7xx_HAL_Driver/Src/stm32f7xx_hal_hcd.c **** 
 566:Drivers/STM32F7xx_HAL_Driver/Src/stm32f7xx_hal_hcd.c ****       __HAL_HCD_CLEAR_FLAG(hhcd, USB_OTG_GINTSTS_SOF);
 567:Drivers/STM32F7xx_HAL_Driver/Src/stm32f7xx_hal_hcd.c ****     }
 568:Drivers/STM32F7xx_HAL_Driver/Src/stm32f7xx_hal_hcd.c **** 
 569:Drivers/STM32F7xx_HAL_Driver/Src/stm32f7xx_hal_hcd.c ****     /* Handle Host channel Interrupt */
 570:Drivers/STM32F7xx_HAL_Driver/Src/stm32f7xx_hal_hcd.c ****     if (__HAL_HCD_GET_FLAG(hhcd, USB_OTG_GINTSTS_HCINT))
 571:Drivers/STM32F7xx_HAL_Driver/Src/stm32f7xx_hal_hcd.c ****     {
 572:Drivers/STM32F7xx_HAL_Driver/Src/stm32f7xx_hal_hcd.c ****       interrupt = USB_HC_ReadInterrupt(hhcd->Instance);
 573:Drivers/STM32F7xx_HAL_Driver/Src/stm32f7xx_hal_hcd.c ****       for (i = 0U; i < hhcd->Init.Host_channels; i++)
 574:Drivers/STM32F7xx_HAL_Driver/Src/stm32f7xx_hal_hcd.c ****       {
 575:Drivers/STM32F7xx_HAL_Driver/Src/stm32f7xx_hal_hcd.c ****         if ((interrupt & (1UL << (i & 0xFU))) != 0U)
 576:Drivers/STM32F7xx_HAL_Driver/Src/stm32f7xx_hal_hcd.c ****         {
 577:Drivers/STM32F7xx_HAL_Driver/Src/stm32f7xx_hal_hcd.c ****           if ((USBx_HC(i)->HCCHAR & USB_OTG_HCCHAR_EPDIR) == USB_OTG_HCCHAR_EPDIR)
 578:Drivers/STM32F7xx_HAL_Driver/Src/stm32f7xx_hal_hcd.c ****           {
 579:Drivers/STM32F7xx_HAL_Driver/Src/stm32f7xx_hal_hcd.c ****             HCD_HC_IN_IRQHandler(hhcd, (uint8_t)i);
 580:Drivers/STM32F7xx_HAL_Driver/Src/stm32f7xx_hal_hcd.c ****           }
 581:Drivers/STM32F7xx_HAL_Driver/Src/stm32f7xx_hal_hcd.c ****           else
 582:Drivers/STM32F7xx_HAL_Driver/Src/stm32f7xx_hal_hcd.c ****           {
 583:Drivers/STM32F7xx_HAL_Driver/Src/stm32f7xx_hal_hcd.c ****             HCD_HC_OUT_IRQHandler(hhcd, (uint8_t)i);
 584:Drivers/STM32F7xx_HAL_Driver/Src/stm32f7xx_hal_hcd.c ****           }
 585:Drivers/STM32F7xx_HAL_Driver/Src/stm32f7xx_hal_hcd.c ****         }
 586:Drivers/STM32F7xx_HAL_Driver/Src/stm32f7xx_hal_hcd.c ****       }
 587:Drivers/STM32F7xx_HAL_Driver/Src/stm32f7xx_hal_hcd.c ****       __HAL_HCD_CLEAR_FLAG(hhcd, USB_OTG_GINTSTS_HCINT);
 588:Drivers/STM32F7xx_HAL_Driver/Src/stm32f7xx_hal_hcd.c ****     }
 589:Drivers/STM32F7xx_HAL_Driver/Src/stm32f7xx_hal_hcd.c **** 
 590:Drivers/STM32F7xx_HAL_Driver/Src/stm32f7xx_hal_hcd.c ****     /* Handle Rx Queue Level Interrupts */
 591:Drivers/STM32F7xx_HAL_Driver/Src/stm32f7xx_hal_hcd.c ****     if ((__HAL_HCD_GET_FLAG(hhcd, USB_OTG_GINTSTS_RXFLVL)) != 0U)
 592:Drivers/STM32F7xx_HAL_Driver/Src/stm32f7xx_hal_hcd.c ****     {
 593:Drivers/STM32F7xx_HAL_Driver/Src/stm32f7xx_hal_hcd.c ****       USB_MASK_INTERRUPT(hhcd->Instance, USB_OTG_GINTSTS_RXFLVL);
 594:Drivers/STM32F7xx_HAL_Driver/Src/stm32f7xx_hal_hcd.c **** 
 595:Drivers/STM32F7xx_HAL_Driver/Src/stm32f7xx_hal_hcd.c ****       HCD_RXQLVL_IRQHandler(hhcd);
 596:Drivers/STM32F7xx_HAL_Driver/Src/stm32f7xx_hal_hcd.c **** 
 597:Drivers/STM32F7xx_HAL_Driver/Src/stm32f7xx_hal_hcd.c ****       USB_UNMASK_INTERRUPT(hhcd->Instance, USB_OTG_GINTSTS_RXFLVL);
 598:Drivers/STM32F7xx_HAL_Driver/Src/stm32f7xx_hal_hcd.c ****     }
 599:Drivers/STM32F7xx_HAL_Driver/Src/stm32f7xx_hal_hcd.c ****   }
 600:Drivers/STM32F7xx_HAL_Driver/Src/stm32f7xx_hal_hcd.c **** }
 601:Drivers/STM32F7xx_HAL_Driver/Src/stm32f7xx_hal_hcd.c **** 
 602:Drivers/STM32F7xx_HAL_Driver/Src/stm32f7xx_hal_hcd.c **** /**
ARM GAS  /tmp/ccqVt8hD.s 			page 12


 603:Drivers/STM32F7xx_HAL_Driver/Src/stm32f7xx_hal_hcd.c ****   * @brief  SOF callback.
 604:Drivers/STM32F7xx_HAL_Driver/Src/stm32f7xx_hal_hcd.c ****   * @param  hhcd HCD handle
 605:Drivers/STM32F7xx_HAL_Driver/Src/stm32f7xx_hal_hcd.c ****   * @retval None
 606:Drivers/STM32F7xx_HAL_Driver/Src/stm32f7xx_hal_hcd.c ****   */
 607:Drivers/STM32F7xx_HAL_Driver/Src/stm32f7xx_hal_hcd.c **** __weak void HAL_HCD_SOF_Callback(HCD_HandleTypeDef *hhcd)
 608:Drivers/STM32F7xx_HAL_Driver/Src/stm32f7xx_hal_hcd.c **** {
 609:Drivers/STM32F7xx_HAL_Driver/Src/stm32f7xx_hal_hcd.c ****   /* Prevent unused argument(s) compilation warning */
 610:Drivers/STM32F7xx_HAL_Driver/Src/stm32f7xx_hal_hcd.c ****   UNUSED(hhcd);
 611:Drivers/STM32F7xx_HAL_Driver/Src/stm32f7xx_hal_hcd.c **** 
 612:Drivers/STM32F7xx_HAL_Driver/Src/stm32f7xx_hal_hcd.c ****   /* NOTE : This function should not be modified, when the callback is needed,
 613:Drivers/STM32F7xx_HAL_Driver/Src/stm32f7xx_hal_hcd.c ****             the HAL_HCD_SOF_Callback could be implemented in the user file
 614:Drivers/STM32F7xx_HAL_Driver/Src/stm32f7xx_hal_hcd.c ****    */
 615:Drivers/STM32F7xx_HAL_Driver/Src/stm32f7xx_hal_hcd.c **** }
 616:Drivers/STM32F7xx_HAL_Driver/Src/stm32f7xx_hal_hcd.c **** 
 617:Drivers/STM32F7xx_HAL_Driver/Src/stm32f7xx_hal_hcd.c **** /**
 618:Drivers/STM32F7xx_HAL_Driver/Src/stm32f7xx_hal_hcd.c ****   * @brief Connection Event callback.
 619:Drivers/STM32F7xx_HAL_Driver/Src/stm32f7xx_hal_hcd.c ****   * @param  hhcd HCD handle
 620:Drivers/STM32F7xx_HAL_Driver/Src/stm32f7xx_hal_hcd.c ****   * @retval None
 621:Drivers/STM32F7xx_HAL_Driver/Src/stm32f7xx_hal_hcd.c ****   */
 622:Drivers/STM32F7xx_HAL_Driver/Src/stm32f7xx_hal_hcd.c **** __weak void HAL_HCD_Connect_Callback(HCD_HandleTypeDef *hhcd)
 623:Drivers/STM32F7xx_HAL_Driver/Src/stm32f7xx_hal_hcd.c **** {
 624:Drivers/STM32F7xx_HAL_Driver/Src/stm32f7xx_hal_hcd.c ****   /* Prevent unused argument(s) compilation warning */
 625:Drivers/STM32F7xx_HAL_Driver/Src/stm32f7xx_hal_hcd.c ****   UNUSED(hhcd);
 626:Drivers/STM32F7xx_HAL_Driver/Src/stm32f7xx_hal_hcd.c **** 
 627:Drivers/STM32F7xx_HAL_Driver/Src/stm32f7xx_hal_hcd.c ****   /* NOTE : This function should not be modified, when the callback is needed,
 628:Drivers/STM32F7xx_HAL_Driver/Src/stm32f7xx_hal_hcd.c ****             the HAL_HCD_Connect_Callback could be implemented in the user file
 629:Drivers/STM32F7xx_HAL_Driver/Src/stm32f7xx_hal_hcd.c ****    */
 630:Drivers/STM32F7xx_HAL_Driver/Src/stm32f7xx_hal_hcd.c **** }
 631:Drivers/STM32F7xx_HAL_Driver/Src/stm32f7xx_hal_hcd.c **** 
 632:Drivers/STM32F7xx_HAL_Driver/Src/stm32f7xx_hal_hcd.c **** /**
 633:Drivers/STM32F7xx_HAL_Driver/Src/stm32f7xx_hal_hcd.c ****   * @brief  Disconnection Event callback.
 634:Drivers/STM32F7xx_HAL_Driver/Src/stm32f7xx_hal_hcd.c ****   * @param  hhcd HCD handle
 635:Drivers/STM32F7xx_HAL_Driver/Src/stm32f7xx_hal_hcd.c ****   * @retval None
 636:Drivers/STM32F7xx_HAL_Driver/Src/stm32f7xx_hal_hcd.c ****   */
 637:Drivers/STM32F7xx_HAL_Driver/Src/stm32f7xx_hal_hcd.c **** __weak void HAL_HCD_Disconnect_Callback(HCD_HandleTypeDef *hhcd)
 638:Drivers/STM32F7xx_HAL_Driver/Src/stm32f7xx_hal_hcd.c **** {
 639:Drivers/STM32F7xx_HAL_Driver/Src/stm32f7xx_hal_hcd.c ****   /* Prevent unused argument(s) compilation warning */
 640:Drivers/STM32F7xx_HAL_Driver/Src/stm32f7xx_hal_hcd.c ****   UNUSED(hhcd);
 641:Drivers/STM32F7xx_HAL_Driver/Src/stm32f7xx_hal_hcd.c **** 
 642:Drivers/STM32F7xx_HAL_Driver/Src/stm32f7xx_hal_hcd.c ****   /* NOTE : This function should not be modified, when the callback is needed,
 643:Drivers/STM32F7xx_HAL_Driver/Src/stm32f7xx_hal_hcd.c ****             the HAL_HCD_Disconnect_Callback could be implemented in the user file
 644:Drivers/STM32F7xx_HAL_Driver/Src/stm32f7xx_hal_hcd.c ****    */
 645:Drivers/STM32F7xx_HAL_Driver/Src/stm32f7xx_hal_hcd.c **** }
 646:Drivers/STM32F7xx_HAL_Driver/Src/stm32f7xx_hal_hcd.c **** 
 647:Drivers/STM32F7xx_HAL_Driver/Src/stm32f7xx_hal_hcd.c **** /**
 648:Drivers/STM32F7xx_HAL_Driver/Src/stm32f7xx_hal_hcd.c ****   * @brief  Port Enabled  Event callback.
 649:Drivers/STM32F7xx_HAL_Driver/Src/stm32f7xx_hal_hcd.c ****   * @param  hhcd HCD handle
 650:Drivers/STM32F7xx_HAL_Driver/Src/stm32f7xx_hal_hcd.c ****   * @retval None
 651:Drivers/STM32F7xx_HAL_Driver/Src/stm32f7xx_hal_hcd.c ****   */
 652:Drivers/STM32F7xx_HAL_Driver/Src/stm32f7xx_hal_hcd.c **** __weak void HAL_HCD_PortEnabled_Callback(HCD_HandleTypeDef *hhcd)
 653:Drivers/STM32F7xx_HAL_Driver/Src/stm32f7xx_hal_hcd.c **** {
 654:Drivers/STM32F7xx_HAL_Driver/Src/stm32f7xx_hal_hcd.c ****   /* Prevent unused argument(s) compilation warning */
 655:Drivers/STM32F7xx_HAL_Driver/Src/stm32f7xx_hal_hcd.c ****   UNUSED(hhcd);
 656:Drivers/STM32F7xx_HAL_Driver/Src/stm32f7xx_hal_hcd.c **** 
 657:Drivers/STM32F7xx_HAL_Driver/Src/stm32f7xx_hal_hcd.c ****   /* NOTE : This function should not be modified, when the callback is needed,
 658:Drivers/STM32F7xx_HAL_Driver/Src/stm32f7xx_hal_hcd.c ****             the HAL_HCD_Disconnect_Callback could be implemented in the user file
 659:Drivers/STM32F7xx_HAL_Driver/Src/stm32f7xx_hal_hcd.c ****    */
ARM GAS  /tmp/ccqVt8hD.s 			page 13


 660:Drivers/STM32F7xx_HAL_Driver/Src/stm32f7xx_hal_hcd.c **** }
 661:Drivers/STM32F7xx_HAL_Driver/Src/stm32f7xx_hal_hcd.c **** 
 662:Drivers/STM32F7xx_HAL_Driver/Src/stm32f7xx_hal_hcd.c **** /**
 663:Drivers/STM32F7xx_HAL_Driver/Src/stm32f7xx_hal_hcd.c ****   * @brief  Port Disabled  Event callback.
 664:Drivers/STM32F7xx_HAL_Driver/Src/stm32f7xx_hal_hcd.c ****   * @param  hhcd HCD handle
 665:Drivers/STM32F7xx_HAL_Driver/Src/stm32f7xx_hal_hcd.c ****   * @retval None
 666:Drivers/STM32F7xx_HAL_Driver/Src/stm32f7xx_hal_hcd.c ****   */
 667:Drivers/STM32F7xx_HAL_Driver/Src/stm32f7xx_hal_hcd.c **** __weak void HAL_HCD_PortDisabled_Callback(HCD_HandleTypeDef *hhcd)
 668:Drivers/STM32F7xx_HAL_Driver/Src/stm32f7xx_hal_hcd.c **** {
 669:Drivers/STM32F7xx_HAL_Driver/Src/stm32f7xx_hal_hcd.c ****   /* Prevent unused argument(s) compilation warning */
 670:Drivers/STM32F7xx_HAL_Driver/Src/stm32f7xx_hal_hcd.c ****   UNUSED(hhcd);
 671:Drivers/STM32F7xx_HAL_Driver/Src/stm32f7xx_hal_hcd.c **** 
 672:Drivers/STM32F7xx_HAL_Driver/Src/stm32f7xx_hal_hcd.c ****   /* NOTE : This function should not be modified, when the callback is needed,
 673:Drivers/STM32F7xx_HAL_Driver/Src/stm32f7xx_hal_hcd.c ****             the HAL_HCD_Disconnect_Callback could be implemented in the user file
 674:Drivers/STM32F7xx_HAL_Driver/Src/stm32f7xx_hal_hcd.c ****    */
 675:Drivers/STM32F7xx_HAL_Driver/Src/stm32f7xx_hal_hcd.c **** }
 676:Drivers/STM32F7xx_HAL_Driver/Src/stm32f7xx_hal_hcd.c **** 
 677:Drivers/STM32F7xx_HAL_Driver/Src/stm32f7xx_hal_hcd.c **** /**
 678:Drivers/STM32F7xx_HAL_Driver/Src/stm32f7xx_hal_hcd.c ****   * @brief  Notify URB state change callback.
 679:Drivers/STM32F7xx_HAL_Driver/Src/stm32f7xx_hal_hcd.c ****   * @param  hhcd HCD handle
 680:Drivers/STM32F7xx_HAL_Driver/Src/stm32f7xx_hal_hcd.c ****   * @param  chnum Channel number.
 681:Drivers/STM32F7xx_HAL_Driver/Src/stm32f7xx_hal_hcd.c ****   *         This parameter can be a value from 1 to 15
 682:Drivers/STM32F7xx_HAL_Driver/Src/stm32f7xx_hal_hcd.c ****   * @param  urb_state:
 683:Drivers/STM32F7xx_HAL_Driver/Src/stm32f7xx_hal_hcd.c ****   *          This parameter can be one of these values:
 684:Drivers/STM32F7xx_HAL_Driver/Src/stm32f7xx_hal_hcd.c ****   *            URB_IDLE/
 685:Drivers/STM32F7xx_HAL_Driver/Src/stm32f7xx_hal_hcd.c ****   *            URB_DONE/
 686:Drivers/STM32F7xx_HAL_Driver/Src/stm32f7xx_hal_hcd.c ****   *            URB_NOTREADY/
 687:Drivers/STM32F7xx_HAL_Driver/Src/stm32f7xx_hal_hcd.c ****   *            URB_NYET/
 688:Drivers/STM32F7xx_HAL_Driver/Src/stm32f7xx_hal_hcd.c ****   *            URB_ERROR/
 689:Drivers/STM32F7xx_HAL_Driver/Src/stm32f7xx_hal_hcd.c ****   *            URB_STALL/
 690:Drivers/STM32F7xx_HAL_Driver/Src/stm32f7xx_hal_hcd.c ****   * @retval None
 691:Drivers/STM32F7xx_HAL_Driver/Src/stm32f7xx_hal_hcd.c ****   */
 692:Drivers/STM32F7xx_HAL_Driver/Src/stm32f7xx_hal_hcd.c **** __weak void HAL_HCD_HC_NotifyURBChange_Callback(HCD_HandleTypeDef *hhcd, uint8_t chnum, HCD_URBStat
 693:Drivers/STM32F7xx_HAL_Driver/Src/stm32f7xx_hal_hcd.c **** {
 694:Drivers/STM32F7xx_HAL_Driver/Src/stm32f7xx_hal_hcd.c ****   /* Prevent unused argument(s) compilation warning */
 695:Drivers/STM32F7xx_HAL_Driver/Src/stm32f7xx_hal_hcd.c ****   UNUSED(hhcd);
 696:Drivers/STM32F7xx_HAL_Driver/Src/stm32f7xx_hal_hcd.c ****   UNUSED(chnum);
 697:Drivers/STM32F7xx_HAL_Driver/Src/stm32f7xx_hal_hcd.c ****   UNUSED(urb_state);
 698:Drivers/STM32F7xx_HAL_Driver/Src/stm32f7xx_hal_hcd.c **** 
 699:Drivers/STM32F7xx_HAL_Driver/Src/stm32f7xx_hal_hcd.c ****   /* NOTE : This function should not be modified, when the callback is needed,
 700:Drivers/STM32F7xx_HAL_Driver/Src/stm32f7xx_hal_hcd.c ****             the HAL_HCD_HC_NotifyURBChange_Callback could be implemented in the user file
 701:Drivers/STM32F7xx_HAL_Driver/Src/stm32f7xx_hal_hcd.c ****    */
 702:Drivers/STM32F7xx_HAL_Driver/Src/stm32f7xx_hal_hcd.c **** }
 703:Drivers/STM32F7xx_HAL_Driver/Src/stm32f7xx_hal_hcd.c **** 
 704:Drivers/STM32F7xx_HAL_Driver/Src/stm32f7xx_hal_hcd.c **** #if (USE_HAL_HCD_REGISTER_CALLBACKS == 1U)
 705:Drivers/STM32F7xx_HAL_Driver/Src/stm32f7xx_hal_hcd.c **** /**
 706:Drivers/STM32F7xx_HAL_Driver/Src/stm32f7xx_hal_hcd.c ****   * @brief  Register a User USB HCD Callback
 707:Drivers/STM32F7xx_HAL_Driver/Src/stm32f7xx_hal_hcd.c ****   *         To be used instead of the weak predefined callback
 708:Drivers/STM32F7xx_HAL_Driver/Src/stm32f7xx_hal_hcd.c ****   * @param  hhcd USB HCD handle
 709:Drivers/STM32F7xx_HAL_Driver/Src/stm32f7xx_hal_hcd.c ****   * @param  CallbackID ID of the callback to be registered
 710:Drivers/STM32F7xx_HAL_Driver/Src/stm32f7xx_hal_hcd.c ****   *         This parameter can be one of the following values:
 711:Drivers/STM32F7xx_HAL_Driver/Src/stm32f7xx_hal_hcd.c ****   *          @arg @ref HAL_HCD_SOF_CB_ID USB HCD SOF callback ID
 712:Drivers/STM32F7xx_HAL_Driver/Src/stm32f7xx_hal_hcd.c ****   *          @arg @ref HAL_HCD_CONNECT_CB_ID USB HCD Connect callback ID
 713:Drivers/STM32F7xx_HAL_Driver/Src/stm32f7xx_hal_hcd.c ****   *          @arg @ref HAL_HCD_DISCONNECT_CB_ID OTG HCD Disconnect callback ID
 714:Drivers/STM32F7xx_HAL_Driver/Src/stm32f7xx_hal_hcd.c ****   *          @arg @ref HAL_HCD_PORT_ENABLED_CB_ID USB HCD Port Enable callback ID
 715:Drivers/STM32F7xx_HAL_Driver/Src/stm32f7xx_hal_hcd.c ****   *          @arg @ref HAL_HCD_PORT_DISABLED_CB_ID USB HCD Port Disable callback ID
 716:Drivers/STM32F7xx_HAL_Driver/Src/stm32f7xx_hal_hcd.c ****   *          @arg @ref HAL_HCD_MSPINIT_CB_ID MspDeInit callback ID
ARM GAS  /tmp/ccqVt8hD.s 			page 14


 717:Drivers/STM32F7xx_HAL_Driver/Src/stm32f7xx_hal_hcd.c ****   *          @arg @ref HAL_HCD_MSPDEINIT_CB_ID MspDeInit callback ID
 718:Drivers/STM32F7xx_HAL_Driver/Src/stm32f7xx_hal_hcd.c ****   * @param  pCallback pointer to the Callback function
 719:Drivers/STM32F7xx_HAL_Driver/Src/stm32f7xx_hal_hcd.c ****   * @retval HAL status
 720:Drivers/STM32F7xx_HAL_Driver/Src/stm32f7xx_hal_hcd.c ****   */
 721:Drivers/STM32F7xx_HAL_Driver/Src/stm32f7xx_hal_hcd.c **** HAL_StatusTypeDef HAL_HCD_RegisterCallback(HCD_HandleTypeDef *hhcd, HAL_HCD_CallbackIDTypeDef Callb
 722:Drivers/STM32F7xx_HAL_Driver/Src/stm32f7xx_hal_hcd.c **** {
 723:Drivers/STM32F7xx_HAL_Driver/Src/stm32f7xx_hal_hcd.c ****   HAL_StatusTypeDef status = HAL_OK;
 724:Drivers/STM32F7xx_HAL_Driver/Src/stm32f7xx_hal_hcd.c **** 
 725:Drivers/STM32F7xx_HAL_Driver/Src/stm32f7xx_hal_hcd.c ****   if (pCallback == NULL)
 726:Drivers/STM32F7xx_HAL_Driver/Src/stm32f7xx_hal_hcd.c ****   {
 727:Drivers/STM32F7xx_HAL_Driver/Src/stm32f7xx_hal_hcd.c ****     /* Update the error code */
 728:Drivers/STM32F7xx_HAL_Driver/Src/stm32f7xx_hal_hcd.c ****     hhcd->ErrorCode |= HAL_HCD_ERROR_INVALID_CALLBACK;
 729:Drivers/STM32F7xx_HAL_Driver/Src/stm32f7xx_hal_hcd.c ****     return HAL_ERROR;
 730:Drivers/STM32F7xx_HAL_Driver/Src/stm32f7xx_hal_hcd.c ****   }
 731:Drivers/STM32F7xx_HAL_Driver/Src/stm32f7xx_hal_hcd.c ****   /* Process locked */
 732:Drivers/STM32F7xx_HAL_Driver/Src/stm32f7xx_hal_hcd.c ****   __HAL_LOCK(hhcd);
 733:Drivers/STM32F7xx_HAL_Driver/Src/stm32f7xx_hal_hcd.c **** 
 734:Drivers/STM32F7xx_HAL_Driver/Src/stm32f7xx_hal_hcd.c ****   if (hhcd->State == HAL_HCD_STATE_READY)
 735:Drivers/STM32F7xx_HAL_Driver/Src/stm32f7xx_hal_hcd.c ****   {
 736:Drivers/STM32F7xx_HAL_Driver/Src/stm32f7xx_hal_hcd.c ****     switch (CallbackID)
 737:Drivers/STM32F7xx_HAL_Driver/Src/stm32f7xx_hal_hcd.c ****     {
 738:Drivers/STM32F7xx_HAL_Driver/Src/stm32f7xx_hal_hcd.c ****       case HAL_HCD_SOF_CB_ID :
 739:Drivers/STM32F7xx_HAL_Driver/Src/stm32f7xx_hal_hcd.c ****         hhcd->SOFCallback = pCallback;
 740:Drivers/STM32F7xx_HAL_Driver/Src/stm32f7xx_hal_hcd.c ****         break;
 741:Drivers/STM32F7xx_HAL_Driver/Src/stm32f7xx_hal_hcd.c **** 
 742:Drivers/STM32F7xx_HAL_Driver/Src/stm32f7xx_hal_hcd.c ****       case HAL_HCD_CONNECT_CB_ID :
 743:Drivers/STM32F7xx_HAL_Driver/Src/stm32f7xx_hal_hcd.c ****         hhcd->ConnectCallback = pCallback;
 744:Drivers/STM32F7xx_HAL_Driver/Src/stm32f7xx_hal_hcd.c ****         break;
 745:Drivers/STM32F7xx_HAL_Driver/Src/stm32f7xx_hal_hcd.c **** 
 746:Drivers/STM32F7xx_HAL_Driver/Src/stm32f7xx_hal_hcd.c ****       case HAL_HCD_DISCONNECT_CB_ID :
 747:Drivers/STM32F7xx_HAL_Driver/Src/stm32f7xx_hal_hcd.c ****         hhcd->DisconnectCallback = pCallback;
 748:Drivers/STM32F7xx_HAL_Driver/Src/stm32f7xx_hal_hcd.c ****         break;
 749:Drivers/STM32F7xx_HAL_Driver/Src/stm32f7xx_hal_hcd.c **** 
 750:Drivers/STM32F7xx_HAL_Driver/Src/stm32f7xx_hal_hcd.c ****       case HAL_HCD_PORT_ENABLED_CB_ID :
 751:Drivers/STM32F7xx_HAL_Driver/Src/stm32f7xx_hal_hcd.c ****         hhcd->PortEnabledCallback = pCallback;
 752:Drivers/STM32F7xx_HAL_Driver/Src/stm32f7xx_hal_hcd.c ****         break;
 753:Drivers/STM32F7xx_HAL_Driver/Src/stm32f7xx_hal_hcd.c **** 
 754:Drivers/STM32F7xx_HAL_Driver/Src/stm32f7xx_hal_hcd.c ****       case HAL_HCD_PORT_DISABLED_CB_ID :
 755:Drivers/STM32F7xx_HAL_Driver/Src/stm32f7xx_hal_hcd.c ****         hhcd->PortDisabledCallback = pCallback;
 756:Drivers/STM32F7xx_HAL_Driver/Src/stm32f7xx_hal_hcd.c ****         break;
 757:Drivers/STM32F7xx_HAL_Driver/Src/stm32f7xx_hal_hcd.c **** 
 758:Drivers/STM32F7xx_HAL_Driver/Src/stm32f7xx_hal_hcd.c ****       case HAL_HCD_MSPINIT_CB_ID :
 759:Drivers/STM32F7xx_HAL_Driver/Src/stm32f7xx_hal_hcd.c ****         hhcd->MspInitCallback = pCallback;
 760:Drivers/STM32F7xx_HAL_Driver/Src/stm32f7xx_hal_hcd.c ****         break;
 761:Drivers/STM32F7xx_HAL_Driver/Src/stm32f7xx_hal_hcd.c **** 
 762:Drivers/STM32F7xx_HAL_Driver/Src/stm32f7xx_hal_hcd.c ****       case HAL_HCD_MSPDEINIT_CB_ID :
 763:Drivers/STM32F7xx_HAL_Driver/Src/stm32f7xx_hal_hcd.c ****         hhcd->MspDeInitCallback = pCallback;
 764:Drivers/STM32F7xx_HAL_Driver/Src/stm32f7xx_hal_hcd.c ****         break;
 765:Drivers/STM32F7xx_HAL_Driver/Src/stm32f7xx_hal_hcd.c **** 
 766:Drivers/STM32F7xx_HAL_Driver/Src/stm32f7xx_hal_hcd.c ****       default :
 767:Drivers/STM32F7xx_HAL_Driver/Src/stm32f7xx_hal_hcd.c ****         /* Update the error code */
 768:Drivers/STM32F7xx_HAL_Driver/Src/stm32f7xx_hal_hcd.c ****         hhcd->ErrorCode |= HAL_HCD_ERROR_INVALID_CALLBACK;
 769:Drivers/STM32F7xx_HAL_Driver/Src/stm32f7xx_hal_hcd.c ****         /* Return error status */
 770:Drivers/STM32F7xx_HAL_Driver/Src/stm32f7xx_hal_hcd.c ****         status =  HAL_ERROR;
 771:Drivers/STM32F7xx_HAL_Driver/Src/stm32f7xx_hal_hcd.c ****         break;
 772:Drivers/STM32F7xx_HAL_Driver/Src/stm32f7xx_hal_hcd.c ****     }
 773:Drivers/STM32F7xx_HAL_Driver/Src/stm32f7xx_hal_hcd.c ****   }
ARM GAS  /tmp/ccqVt8hD.s 			page 15


 774:Drivers/STM32F7xx_HAL_Driver/Src/stm32f7xx_hal_hcd.c ****   else if (hhcd->State == HAL_HCD_STATE_RESET)
 775:Drivers/STM32F7xx_HAL_Driver/Src/stm32f7xx_hal_hcd.c ****   {
 776:Drivers/STM32F7xx_HAL_Driver/Src/stm32f7xx_hal_hcd.c ****     switch (CallbackID)
 777:Drivers/STM32F7xx_HAL_Driver/Src/stm32f7xx_hal_hcd.c ****     {
 778:Drivers/STM32F7xx_HAL_Driver/Src/stm32f7xx_hal_hcd.c ****       case HAL_HCD_MSPINIT_CB_ID :
 779:Drivers/STM32F7xx_HAL_Driver/Src/stm32f7xx_hal_hcd.c ****         hhcd->MspInitCallback = pCallback;
 780:Drivers/STM32F7xx_HAL_Driver/Src/stm32f7xx_hal_hcd.c ****         break;
 781:Drivers/STM32F7xx_HAL_Driver/Src/stm32f7xx_hal_hcd.c **** 
 782:Drivers/STM32F7xx_HAL_Driver/Src/stm32f7xx_hal_hcd.c ****       case HAL_HCD_MSPDEINIT_CB_ID :
 783:Drivers/STM32F7xx_HAL_Driver/Src/stm32f7xx_hal_hcd.c ****         hhcd->MspDeInitCallback = pCallback;
 784:Drivers/STM32F7xx_HAL_Driver/Src/stm32f7xx_hal_hcd.c ****         break;
 785:Drivers/STM32F7xx_HAL_Driver/Src/stm32f7xx_hal_hcd.c **** 
 786:Drivers/STM32F7xx_HAL_Driver/Src/stm32f7xx_hal_hcd.c ****       default :
 787:Drivers/STM32F7xx_HAL_Driver/Src/stm32f7xx_hal_hcd.c ****         /* Update the error code */
 788:Drivers/STM32F7xx_HAL_Driver/Src/stm32f7xx_hal_hcd.c ****         hhcd->ErrorCode |= HAL_HCD_ERROR_INVALID_CALLBACK;
 789:Drivers/STM32F7xx_HAL_Driver/Src/stm32f7xx_hal_hcd.c ****         /* Return error status */
 790:Drivers/STM32F7xx_HAL_Driver/Src/stm32f7xx_hal_hcd.c ****         status =  HAL_ERROR;
 791:Drivers/STM32F7xx_HAL_Driver/Src/stm32f7xx_hal_hcd.c ****         break;
 792:Drivers/STM32F7xx_HAL_Driver/Src/stm32f7xx_hal_hcd.c ****     }
 793:Drivers/STM32F7xx_HAL_Driver/Src/stm32f7xx_hal_hcd.c ****   }
 794:Drivers/STM32F7xx_HAL_Driver/Src/stm32f7xx_hal_hcd.c ****   else
 795:Drivers/STM32F7xx_HAL_Driver/Src/stm32f7xx_hal_hcd.c ****   {
 796:Drivers/STM32F7xx_HAL_Driver/Src/stm32f7xx_hal_hcd.c ****     /* Update the error code */
 797:Drivers/STM32F7xx_HAL_Driver/Src/stm32f7xx_hal_hcd.c ****     hhcd->ErrorCode |= HAL_HCD_ERROR_INVALID_CALLBACK;
 798:Drivers/STM32F7xx_HAL_Driver/Src/stm32f7xx_hal_hcd.c ****     /* Return error status */
 799:Drivers/STM32F7xx_HAL_Driver/Src/stm32f7xx_hal_hcd.c ****     status =  HAL_ERROR;
 800:Drivers/STM32F7xx_HAL_Driver/Src/stm32f7xx_hal_hcd.c ****   }
 801:Drivers/STM32F7xx_HAL_Driver/Src/stm32f7xx_hal_hcd.c **** 
 802:Drivers/STM32F7xx_HAL_Driver/Src/stm32f7xx_hal_hcd.c ****   /* Release Lock */
 803:Drivers/STM32F7xx_HAL_Driver/Src/stm32f7xx_hal_hcd.c ****   __HAL_UNLOCK(hhcd);
 804:Drivers/STM32F7xx_HAL_Driver/Src/stm32f7xx_hal_hcd.c ****   return status;
 805:Drivers/STM32F7xx_HAL_Driver/Src/stm32f7xx_hal_hcd.c **** }
 806:Drivers/STM32F7xx_HAL_Driver/Src/stm32f7xx_hal_hcd.c **** 
 807:Drivers/STM32F7xx_HAL_Driver/Src/stm32f7xx_hal_hcd.c **** /**
 808:Drivers/STM32F7xx_HAL_Driver/Src/stm32f7xx_hal_hcd.c ****   * @brief  Unregister an USB HCD Callback
 809:Drivers/STM32F7xx_HAL_Driver/Src/stm32f7xx_hal_hcd.c ****   *         USB HCD callabck is redirected to the weak predefined callback
 810:Drivers/STM32F7xx_HAL_Driver/Src/stm32f7xx_hal_hcd.c ****   * @param  hhcd USB HCD handle
 811:Drivers/STM32F7xx_HAL_Driver/Src/stm32f7xx_hal_hcd.c ****   * @param  CallbackID ID of the callback to be unregistered
 812:Drivers/STM32F7xx_HAL_Driver/Src/stm32f7xx_hal_hcd.c ****   *         This parameter can be one of the following values:
 813:Drivers/STM32F7xx_HAL_Driver/Src/stm32f7xx_hal_hcd.c ****   *          @arg @ref HAL_HCD_SOF_CB_ID USB HCD SOF callback ID
 814:Drivers/STM32F7xx_HAL_Driver/Src/stm32f7xx_hal_hcd.c ****   *          @arg @ref HAL_HCD_CONNECT_CB_ID USB HCD Connect callback ID
 815:Drivers/STM32F7xx_HAL_Driver/Src/stm32f7xx_hal_hcd.c ****   *          @arg @ref HAL_HCD_DISCONNECT_CB_ID OTG HCD Disconnect callback ID
 816:Drivers/STM32F7xx_HAL_Driver/Src/stm32f7xx_hal_hcd.c ****   *          @arg @ref HAL_HCD_PORT_ENABLED_CB_ID USB HCD Port Enabled callback ID
 817:Drivers/STM32F7xx_HAL_Driver/Src/stm32f7xx_hal_hcd.c ****   *          @arg @ref HAL_HCD_PORT_DISABLED_CB_ID USB HCD Port Disabled callback ID
 818:Drivers/STM32F7xx_HAL_Driver/Src/stm32f7xx_hal_hcd.c ****   *          @arg @ref HAL_HCD_MSPINIT_CB_ID MspDeInit callback ID
 819:Drivers/STM32F7xx_HAL_Driver/Src/stm32f7xx_hal_hcd.c ****   *          @arg @ref HAL_HCD_MSPDEINIT_CB_ID MspDeInit callback ID
 820:Drivers/STM32F7xx_HAL_Driver/Src/stm32f7xx_hal_hcd.c ****   * @retval HAL status
 821:Drivers/STM32F7xx_HAL_Driver/Src/stm32f7xx_hal_hcd.c ****   */
 822:Drivers/STM32F7xx_HAL_Driver/Src/stm32f7xx_hal_hcd.c **** HAL_StatusTypeDef HAL_HCD_UnRegisterCallback(HCD_HandleTypeDef *hhcd, HAL_HCD_CallbackIDTypeDef Cal
 823:Drivers/STM32F7xx_HAL_Driver/Src/stm32f7xx_hal_hcd.c **** {
 824:Drivers/STM32F7xx_HAL_Driver/Src/stm32f7xx_hal_hcd.c ****   HAL_StatusTypeDef status = HAL_OK;
 825:Drivers/STM32F7xx_HAL_Driver/Src/stm32f7xx_hal_hcd.c **** 
 826:Drivers/STM32F7xx_HAL_Driver/Src/stm32f7xx_hal_hcd.c ****   /* Process locked */
 827:Drivers/STM32F7xx_HAL_Driver/Src/stm32f7xx_hal_hcd.c ****   __HAL_LOCK(hhcd);
 828:Drivers/STM32F7xx_HAL_Driver/Src/stm32f7xx_hal_hcd.c **** 
 829:Drivers/STM32F7xx_HAL_Driver/Src/stm32f7xx_hal_hcd.c ****   /* Setup Legacy weak Callbacks  */
 830:Drivers/STM32F7xx_HAL_Driver/Src/stm32f7xx_hal_hcd.c ****   if (hhcd->State == HAL_HCD_STATE_READY)
ARM GAS  /tmp/ccqVt8hD.s 			page 16


 831:Drivers/STM32F7xx_HAL_Driver/Src/stm32f7xx_hal_hcd.c ****   {
 832:Drivers/STM32F7xx_HAL_Driver/Src/stm32f7xx_hal_hcd.c ****     switch (CallbackID)
 833:Drivers/STM32F7xx_HAL_Driver/Src/stm32f7xx_hal_hcd.c ****     {
 834:Drivers/STM32F7xx_HAL_Driver/Src/stm32f7xx_hal_hcd.c ****       case HAL_HCD_SOF_CB_ID :
 835:Drivers/STM32F7xx_HAL_Driver/Src/stm32f7xx_hal_hcd.c ****         hhcd->SOFCallback = HAL_HCD_SOF_Callback;
 836:Drivers/STM32F7xx_HAL_Driver/Src/stm32f7xx_hal_hcd.c ****         break;
 837:Drivers/STM32F7xx_HAL_Driver/Src/stm32f7xx_hal_hcd.c **** 
 838:Drivers/STM32F7xx_HAL_Driver/Src/stm32f7xx_hal_hcd.c ****       case HAL_HCD_CONNECT_CB_ID :
 839:Drivers/STM32F7xx_HAL_Driver/Src/stm32f7xx_hal_hcd.c ****         hhcd->ConnectCallback = HAL_HCD_Connect_Callback;
 840:Drivers/STM32F7xx_HAL_Driver/Src/stm32f7xx_hal_hcd.c ****         break;
 841:Drivers/STM32F7xx_HAL_Driver/Src/stm32f7xx_hal_hcd.c **** 
 842:Drivers/STM32F7xx_HAL_Driver/Src/stm32f7xx_hal_hcd.c ****       case HAL_HCD_DISCONNECT_CB_ID :
 843:Drivers/STM32F7xx_HAL_Driver/Src/stm32f7xx_hal_hcd.c ****         hhcd->DisconnectCallback = HAL_HCD_Disconnect_Callback;
 844:Drivers/STM32F7xx_HAL_Driver/Src/stm32f7xx_hal_hcd.c ****         break;
 845:Drivers/STM32F7xx_HAL_Driver/Src/stm32f7xx_hal_hcd.c **** 
 846:Drivers/STM32F7xx_HAL_Driver/Src/stm32f7xx_hal_hcd.c ****       case HAL_HCD_PORT_ENABLED_CB_ID :
 847:Drivers/STM32F7xx_HAL_Driver/Src/stm32f7xx_hal_hcd.c ****         hhcd->PortEnabledCallback = HAL_HCD_PortEnabled_Callback;
 848:Drivers/STM32F7xx_HAL_Driver/Src/stm32f7xx_hal_hcd.c ****         break;
 849:Drivers/STM32F7xx_HAL_Driver/Src/stm32f7xx_hal_hcd.c **** 
 850:Drivers/STM32F7xx_HAL_Driver/Src/stm32f7xx_hal_hcd.c ****       case HAL_HCD_PORT_DISABLED_CB_ID :
 851:Drivers/STM32F7xx_HAL_Driver/Src/stm32f7xx_hal_hcd.c ****         hhcd->PortDisabledCallback = HAL_HCD_PortDisabled_Callback;
 852:Drivers/STM32F7xx_HAL_Driver/Src/stm32f7xx_hal_hcd.c ****         break;
 853:Drivers/STM32F7xx_HAL_Driver/Src/stm32f7xx_hal_hcd.c **** 
 854:Drivers/STM32F7xx_HAL_Driver/Src/stm32f7xx_hal_hcd.c ****       case HAL_HCD_MSPINIT_CB_ID :
 855:Drivers/STM32F7xx_HAL_Driver/Src/stm32f7xx_hal_hcd.c ****         hhcd->MspInitCallback = HAL_HCD_MspInit;
 856:Drivers/STM32F7xx_HAL_Driver/Src/stm32f7xx_hal_hcd.c ****         break;
 857:Drivers/STM32F7xx_HAL_Driver/Src/stm32f7xx_hal_hcd.c **** 
 858:Drivers/STM32F7xx_HAL_Driver/Src/stm32f7xx_hal_hcd.c ****       case HAL_HCD_MSPDEINIT_CB_ID :
 859:Drivers/STM32F7xx_HAL_Driver/Src/stm32f7xx_hal_hcd.c ****         hhcd->MspDeInitCallback = HAL_HCD_MspDeInit;
 860:Drivers/STM32F7xx_HAL_Driver/Src/stm32f7xx_hal_hcd.c ****         break;
 861:Drivers/STM32F7xx_HAL_Driver/Src/stm32f7xx_hal_hcd.c **** 
 862:Drivers/STM32F7xx_HAL_Driver/Src/stm32f7xx_hal_hcd.c ****       default :
 863:Drivers/STM32F7xx_HAL_Driver/Src/stm32f7xx_hal_hcd.c ****         /* Update the error code */
 864:Drivers/STM32F7xx_HAL_Driver/Src/stm32f7xx_hal_hcd.c ****         hhcd->ErrorCode |= HAL_HCD_ERROR_INVALID_CALLBACK;
 865:Drivers/STM32F7xx_HAL_Driver/Src/stm32f7xx_hal_hcd.c **** 
 866:Drivers/STM32F7xx_HAL_Driver/Src/stm32f7xx_hal_hcd.c ****         /* Return error status */
 867:Drivers/STM32F7xx_HAL_Driver/Src/stm32f7xx_hal_hcd.c ****         status =  HAL_ERROR;
 868:Drivers/STM32F7xx_HAL_Driver/Src/stm32f7xx_hal_hcd.c ****         break;
 869:Drivers/STM32F7xx_HAL_Driver/Src/stm32f7xx_hal_hcd.c ****     }
 870:Drivers/STM32F7xx_HAL_Driver/Src/stm32f7xx_hal_hcd.c ****   }
 871:Drivers/STM32F7xx_HAL_Driver/Src/stm32f7xx_hal_hcd.c ****   else if (hhcd->State == HAL_HCD_STATE_RESET)
 872:Drivers/STM32F7xx_HAL_Driver/Src/stm32f7xx_hal_hcd.c ****   {
 873:Drivers/STM32F7xx_HAL_Driver/Src/stm32f7xx_hal_hcd.c ****     switch (CallbackID)
 874:Drivers/STM32F7xx_HAL_Driver/Src/stm32f7xx_hal_hcd.c ****     {
 875:Drivers/STM32F7xx_HAL_Driver/Src/stm32f7xx_hal_hcd.c ****       case HAL_HCD_MSPINIT_CB_ID :
 876:Drivers/STM32F7xx_HAL_Driver/Src/stm32f7xx_hal_hcd.c ****         hhcd->MspInitCallback = HAL_HCD_MspInit;
 877:Drivers/STM32F7xx_HAL_Driver/Src/stm32f7xx_hal_hcd.c ****         break;
 878:Drivers/STM32F7xx_HAL_Driver/Src/stm32f7xx_hal_hcd.c **** 
 879:Drivers/STM32F7xx_HAL_Driver/Src/stm32f7xx_hal_hcd.c ****       case HAL_HCD_MSPDEINIT_CB_ID :
 880:Drivers/STM32F7xx_HAL_Driver/Src/stm32f7xx_hal_hcd.c ****         hhcd->MspDeInitCallback = HAL_HCD_MspDeInit;
 881:Drivers/STM32F7xx_HAL_Driver/Src/stm32f7xx_hal_hcd.c ****         break;
 882:Drivers/STM32F7xx_HAL_Driver/Src/stm32f7xx_hal_hcd.c **** 
 883:Drivers/STM32F7xx_HAL_Driver/Src/stm32f7xx_hal_hcd.c ****       default :
 884:Drivers/STM32F7xx_HAL_Driver/Src/stm32f7xx_hal_hcd.c ****         /* Update the error code */
 885:Drivers/STM32F7xx_HAL_Driver/Src/stm32f7xx_hal_hcd.c ****         hhcd->ErrorCode |= HAL_HCD_ERROR_INVALID_CALLBACK;
 886:Drivers/STM32F7xx_HAL_Driver/Src/stm32f7xx_hal_hcd.c **** 
 887:Drivers/STM32F7xx_HAL_Driver/Src/stm32f7xx_hal_hcd.c ****         /* Return error status */
ARM GAS  /tmp/ccqVt8hD.s 			page 17


 888:Drivers/STM32F7xx_HAL_Driver/Src/stm32f7xx_hal_hcd.c ****         status =  HAL_ERROR;
 889:Drivers/STM32F7xx_HAL_Driver/Src/stm32f7xx_hal_hcd.c ****         break;
 890:Drivers/STM32F7xx_HAL_Driver/Src/stm32f7xx_hal_hcd.c ****     }
 891:Drivers/STM32F7xx_HAL_Driver/Src/stm32f7xx_hal_hcd.c ****   }
 892:Drivers/STM32F7xx_HAL_Driver/Src/stm32f7xx_hal_hcd.c ****   else
 893:Drivers/STM32F7xx_HAL_Driver/Src/stm32f7xx_hal_hcd.c ****   {
 894:Drivers/STM32F7xx_HAL_Driver/Src/stm32f7xx_hal_hcd.c ****     /* Update the error code */
 895:Drivers/STM32F7xx_HAL_Driver/Src/stm32f7xx_hal_hcd.c ****     hhcd->ErrorCode |= HAL_HCD_ERROR_INVALID_CALLBACK;
 896:Drivers/STM32F7xx_HAL_Driver/Src/stm32f7xx_hal_hcd.c **** 
 897:Drivers/STM32F7xx_HAL_Driver/Src/stm32f7xx_hal_hcd.c ****     /* Return error status */
 898:Drivers/STM32F7xx_HAL_Driver/Src/stm32f7xx_hal_hcd.c ****     status =  HAL_ERROR;
 899:Drivers/STM32F7xx_HAL_Driver/Src/stm32f7xx_hal_hcd.c ****   }
 900:Drivers/STM32F7xx_HAL_Driver/Src/stm32f7xx_hal_hcd.c **** 
 901:Drivers/STM32F7xx_HAL_Driver/Src/stm32f7xx_hal_hcd.c ****   /* Release Lock */
 902:Drivers/STM32F7xx_HAL_Driver/Src/stm32f7xx_hal_hcd.c ****   __HAL_UNLOCK(hhcd);
 903:Drivers/STM32F7xx_HAL_Driver/Src/stm32f7xx_hal_hcd.c ****   return status;
 904:Drivers/STM32F7xx_HAL_Driver/Src/stm32f7xx_hal_hcd.c **** }
 905:Drivers/STM32F7xx_HAL_Driver/Src/stm32f7xx_hal_hcd.c **** 
 906:Drivers/STM32F7xx_HAL_Driver/Src/stm32f7xx_hal_hcd.c **** /**
 907:Drivers/STM32F7xx_HAL_Driver/Src/stm32f7xx_hal_hcd.c ****   * @brief  Register USB HCD Host Channel Notify URB Change Callback
 908:Drivers/STM32F7xx_HAL_Driver/Src/stm32f7xx_hal_hcd.c ****   *         To be used instead of the weak HAL_HCD_HC_NotifyURBChange_Callback() predefined callbac
 909:Drivers/STM32F7xx_HAL_Driver/Src/stm32f7xx_hal_hcd.c ****   * @param  hhcd HCD handle
 910:Drivers/STM32F7xx_HAL_Driver/Src/stm32f7xx_hal_hcd.c ****   * @param  pCallback pointer to the USB HCD Host Channel Notify URB Change Callback function
 911:Drivers/STM32F7xx_HAL_Driver/Src/stm32f7xx_hal_hcd.c ****   * @retval HAL status
 912:Drivers/STM32F7xx_HAL_Driver/Src/stm32f7xx_hal_hcd.c ****   */
 913:Drivers/STM32F7xx_HAL_Driver/Src/stm32f7xx_hal_hcd.c **** HAL_StatusTypeDef HAL_HCD_RegisterHC_NotifyURBChangeCallback(HCD_HandleTypeDef *hhcd, pHCD_HC_Notif
 914:Drivers/STM32F7xx_HAL_Driver/Src/stm32f7xx_hal_hcd.c **** {
 915:Drivers/STM32F7xx_HAL_Driver/Src/stm32f7xx_hal_hcd.c ****   HAL_StatusTypeDef status = HAL_OK;
 916:Drivers/STM32F7xx_HAL_Driver/Src/stm32f7xx_hal_hcd.c **** 
 917:Drivers/STM32F7xx_HAL_Driver/Src/stm32f7xx_hal_hcd.c ****   if (pCallback == NULL)
 918:Drivers/STM32F7xx_HAL_Driver/Src/stm32f7xx_hal_hcd.c ****   {
 919:Drivers/STM32F7xx_HAL_Driver/Src/stm32f7xx_hal_hcd.c ****     /* Update the error code */
 920:Drivers/STM32F7xx_HAL_Driver/Src/stm32f7xx_hal_hcd.c ****     hhcd->ErrorCode |= HAL_HCD_ERROR_INVALID_CALLBACK;
 921:Drivers/STM32F7xx_HAL_Driver/Src/stm32f7xx_hal_hcd.c **** 
 922:Drivers/STM32F7xx_HAL_Driver/Src/stm32f7xx_hal_hcd.c ****     return HAL_ERROR;
 923:Drivers/STM32F7xx_HAL_Driver/Src/stm32f7xx_hal_hcd.c ****   }
 924:Drivers/STM32F7xx_HAL_Driver/Src/stm32f7xx_hal_hcd.c **** 
 925:Drivers/STM32F7xx_HAL_Driver/Src/stm32f7xx_hal_hcd.c ****   /* Process locked */
 926:Drivers/STM32F7xx_HAL_Driver/Src/stm32f7xx_hal_hcd.c ****   __HAL_LOCK(hhcd);
 927:Drivers/STM32F7xx_HAL_Driver/Src/stm32f7xx_hal_hcd.c **** 
 928:Drivers/STM32F7xx_HAL_Driver/Src/stm32f7xx_hal_hcd.c ****   if (hhcd->State == HAL_HCD_STATE_READY)
 929:Drivers/STM32F7xx_HAL_Driver/Src/stm32f7xx_hal_hcd.c ****   {
 930:Drivers/STM32F7xx_HAL_Driver/Src/stm32f7xx_hal_hcd.c ****     hhcd->HC_NotifyURBChangeCallback = pCallback;
 931:Drivers/STM32F7xx_HAL_Driver/Src/stm32f7xx_hal_hcd.c ****   }
 932:Drivers/STM32F7xx_HAL_Driver/Src/stm32f7xx_hal_hcd.c ****   else
 933:Drivers/STM32F7xx_HAL_Driver/Src/stm32f7xx_hal_hcd.c ****   {
 934:Drivers/STM32F7xx_HAL_Driver/Src/stm32f7xx_hal_hcd.c ****     /* Update the error code */
 935:Drivers/STM32F7xx_HAL_Driver/Src/stm32f7xx_hal_hcd.c ****     hhcd->ErrorCode |= HAL_HCD_ERROR_INVALID_CALLBACK;
 936:Drivers/STM32F7xx_HAL_Driver/Src/stm32f7xx_hal_hcd.c **** 
 937:Drivers/STM32F7xx_HAL_Driver/Src/stm32f7xx_hal_hcd.c ****     /* Return error status */
 938:Drivers/STM32F7xx_HAL_Driver/Src/stm32f7xx_hal_hcd.c ****     status =  HAL_ERROR;
 939:Drivers/STM32F7xx_HAL_Driver/Src/stm32f7xx_hal_hcd.c ****   }
 940:Drivers/STM32F7xx_HAL_Driver/Src/stm32f7xx_hal_hcd.c **** 
 941:Drivers/STM32F7xx_HAL_Driver/Src/stm32f7xx_hal_hcd.c ****   /* Release Lock */
 942:Drivers/STM32F7xx_HAL_Driver/Src/stm32f7xx_hal_hcd.c ****   __HAL_UNLOCK(hhcd);
 943:Drivers/STM32F7xx_HAL_Driver/Src/stm32f7xx_hal_hcd.c **** 
 944:Drivers/STM32F7xx_HAL_Driver/Src/stm32f7xx_hal_hcd.c ****   return status;
ARM GAS  /tmp/ccqVt8hD.s 			page 18


 945:Drivers/STM32F7xx_HAL_Driver/Src/stm32f7xx_hal_hcd.c **** }
 946:Drivers/STM32F7xx_HAL_Driver/Src/stm32f7xx_hal_hcd.c **** 
 947:Drivers/STM32F7xx_HAL_Driver/Src/stm32f7xx_hal_hcd.c **** /**
 948:Drivers/STM32F7xx_HAL_Driver/Src/stm32f7xx_hal_hcd.c ****   * @brief  UnRegister the USB HCD Host Channel Notify URB Change Callback
 949:Drivers/STM32F7xx_HAL_Driver/Src/stm32f7xx_hal_hcd.c ****   *         USB HCD Host Channel Notify URB Change Callback is redirected to the weak HAL_HCD_HC_No
 950:Drivers/STM32F7xx_HAL_Driver/Src/stm32f7xx_hal_hcd.c ****   * @param  hhcd HCD handle
 951:Drivers/STM32F7xx_HAL_Driver/Src/stm32f7xx_hal_hcd.c ****   * @retval HAL status
 952:Drivers/STM32F7xx_HAL_Driver/Src/stm32f7xx_hal_hcd.c ****   */
 953:Drivers/STM32F7xx_HAL_Driver/Src/stm32f7xx_hal_hcd.c **** HAL_StatusTypeDef HAL_HCD_UnRegisterHC_NotifyURBChangeCallback(HCD_HandleTypeDef *hhcd)
 954:Drivers/STM32F7xx_HAL_Driver/Src/stm32f7xx_hal_hcd.c **** {
 955:Drivers/STM32F7xx_HAL_Driver/Src/stm32f7xx_hal_hcd.c ****   HAL_StatusTypeDef status = HAL_OK;
 956:Drivers/STM32F7xx_HAL_Driver/Src/stm32f7xx_hal_hcd.c **** 
 957:Drivers/STM32F7xx_HAL_Driver/Src/stm32f7xx_hal_hcd.c ****   /* Process locked */
 958:Drivers/STM32F7xx_HAL_Driver/Src/stm32f7xx_hal_hcd.c ****   __HAL_LOCK(hhcd);
 959:Drivers/STM32F7xx_HAL_Driver/Src/stm32f7xx_hal_hcd.c **** 
 960:Drivers/STM32F7xx_HAL_Driver/Src/stm32f7xx_hal_hcd.c ****   if (hhcd->State == HAL_HCD_STATE_READY)
 961:Drivers/STM32F7xx_HAL_Driver/Src/stm32f7xx_hal_hcd.c ****   {
 962:Drivers/STM32F7xx_HAL_Driver/Src/stm32f7xx_hal_hcd.c ****     hhcd->HC_NotifyURBChangeCallback = HAL_HCD_HC_NotifyURBChange_Callback; /* Legacy weak DataOutS
 963:Drivers/STM32F7xx_HAL_Driver/Src/stm32f7xx_hal_hcd.c ****   }
 964:Drivers/STM32F7xx_HAL_Driver/Src/stm32f7xx_hal_hcd.c ****   else
 965:Drivers/STM32F7xx_HAL_Driver/Src/stm32f7xx_hal_hcd.c ****   {
 966:Drivers/STM32F7xx_HAL_Driver/Src/stm32f7xx_hal_hcd.c ****     /* Update the error code */
 967:Drivers/STM32F7xx_HAL_Driver/Src/stm32f7xx_hal_hcd.c ****     hhcd->ErrorCode |= HAL_HCD_ERROR_INVALID_CALLBACK;
 968:Drivers/STM32F7xx_HAL_Driver/Src/stm32f7xx_hal_hcd.c **** 
 969:Drivers/STM32F7xx_HAL_Driver/Src/stm32f7xx_hal_hcd.c ****     /* Return error status */
 970:Drivers/STM32F7xx_HAL_Driver/Src/stm32f7xx_hal_hcd.c ****     status =  HAL_ERROR;
 971:Drivers/STM32F7xx_HAL_Driver/Src/stm32f7xx_hal_hcd.c ****   }
 972:Drivers/STM32F7xx_HAL_Driver/Src/stm32f7xx_hal_hcd.c **** 
 973:Drivers/STM32F7xx_HAL_Driver/Src/stm32f7xx_hal_hcd.c ****   /* Release Lock */
 974:Drivers/STM32F7xx_HAL_Driver/Src/stm32f7xx_hal_hcd.c ****   __HAL_UNLOCK(hhcd);
 975:Drivers/STM32F7xx_HAL_Driver/Src/stm32f7xx_hal_hcd.c **** 
 976:Drivers/STM32F7xx_HAL_Driver/Src/stm32f7xx_hal_hcd.c ****   return status;
 977:Drivers/STM32F7xx_HAL_Driver/Src/stm32f7xx_hal_hcd.c **** }
 978:Drivers/STM32F7xx_HAL_Driver/Src/stm32f7xx_hal_hcd.c **** #endif /* USE_HAL_HCD_REGISTER_CALLBACKS */
 979:Drivers/STM32F7xx_HAL_Driver/Src/stm32f7xx_hal_hcd.c **** 
 980:Drivers/STM32F7xx_HAL_Driver/Src/stm32f7xx_hal_hcd.c **** /**
 981:Drivers/STM32F7xx_HAL_Driver/Src/stm32f7xx_hal_hcd.c ****   * @}
 982:Drivers/STM32F7xx_HAL_Driver/Src/stm32f7xx_hal_hcd.c ****   */
 983:Drivers/STM32F7xx_HAL_Driver/Src/stm32f7xx_hal_hcd.c **** 
 984:Drivers/STM32F7xx_HAL_Driver/Src/stm32f7xx_hal_hcd.c **** /** @defgroup HCD_Exported_Functions_Group3 Peripheral Control functions
 985:Drivers/STM32F7xx_HAL_Driver/Src/stm32f7xx_hal_hcd.c ****  *  @brief   Management functions
 986:Drivers/STM32F7xx_HAL_Driver/Src/stm32f7xx_hal_hcd.c ****  *
 987:Drivers/STM32F7xx_HAL_Driver/Src/stm32f7xx_hal_hcd.c **** @verbatim
 988:Drivers/STM32F7xx_HAL_Driver/Src/stm32f7xx_hal_hcd.c ****  ===============================================================================
 989:Drivers/STM32F7xx_HAL_Driver/Src/stm32f7xx_hal_hcd.c ****                       ##### Peripheral Control functions #####
 990:Drivers/STM32F7xx_HAL_Driver/Src/stm32f7xx_hal_hcd.c ****  ===============================================================================
 991:Drivers/STM32F7xx_HAL_Driver/Src/stm32f7xx_hal_hcd.c ****     [..]
 992:Drivers/STM32F7xx_HAL_Driver/Src/stm32f7xx_hal_hcd.c ****     This subsection provides a set of functions allowing to control the HCD data
 993:Drivers/STM32F7xx_HAL_Driver/Src/stm32f7xx_hal_hcd.c ****     transfers.
 994:Drivers/STM32F7xx_HAL_Driver/Src/stm32f7xx_hal_hcd.c **** 
 995:Drivers/STM32F7xx_HAL_Driver/Src/stm32f7xx_hal_hcd.c **** @endverbatim
 996:Drivers/STM32F7xx_HAL_Driver/Src/stm32f7xx_hal_hcd.c ****   * @{
 997:Drivers/STM32F7xx_HAL_Driver/Src/stm32f7xx_hal_hcd.c ****   */
 998:Drivers/STM32F7xx_HAL_Driver/Src/stm32f7xx_hal_hcd.c **** 
 999:Drivers/STM32F7xx_HAL_Driver/Src/stm32f7xx_hal_hcd.c **** /**
1000:Drivers/STM32F7xx_HAL_Driver/Src/stm32f7xx_hal_hcd.c ****   * @brief  Start the host driver.
1001:Drivers/STM32F7xx_HAL_Driver/Src/stm32f7xx_hal_hcd.c ****   * @param  hhcd HCD handle
ARM GAS  /tmp/ccqVt8hD.s 			page 19


1002:Drivers/STM32F7xx_HAL_Driver/Src/stm32f7xx_hal_hcd.c ****   * @retval HAL status
1003:Drivers/STM32F7xx_HAL_Driver/Src/stm32f7xx_hal_hcd.c ****   */
1004:Drivers/STM32F7xx_HAL_Driver/Src/stm32f7xx_hal_hcd.c **** HAL_StatusTypeDef HAL_HCD_Start(HCD_HandleTypeDef *hhcd)
1005:Drivers/STM32F7xx_HAL_Driver/Src/stm32f7xx_hal_hcd.c **** {
1006:Drivers/STM32F7xx_HAL_Driver/Src/stm32f7xx_hal_hcd.c ****   __HAL_LOCK(hhcd);
1007:Drivers/STM32F7xx_HAL_Driver/Src/stm32f7xx_hal_hcd.c ****   __HAL_HCD_ENABLE(hhcd);
1008:Drivers/STM32F7xx_HAL_Driver/Src/stm32f7xx_hal_hcd.c ****   (void)USB_DriveVbus(hhcd->Instance, 1U);
1009:Drivers/STM32F7xx_HAL_Driver/Src/stm32f7xx_hal_hcd.c ****   __HAL_UNLOCK(hhcd);
1010:Drivers/STM32F7xx_HAL_Driver/Src/stm32f7xx_hal_hcd.c **** 
1011:Drivers/STM32F7xx_HAL_Driver/Src/stm32f7xx_hal_hcd.c ****   return HAL_OK;
1012:Drivers/STM32F7xx_HAL_Driver/Src/stm32f7xx_hal_hcd.c **** }
1013:Drivers/STM32F7xx_HAL_Driver/Src/stm32f7xx_hal_hcd.c **** 
1014:Drivers/STM32F7xx_HAL_Driver/Src/stm32f7xx_hal_hcd.c **** /**
1015:Drivers/STM32F7xx_HAL_Driver/Src/stm32f7xx_hal_hcd.c ****   * @brief  Stop the host driver.
1016:Drivers/STM32F7xx_HAL_Driver/Src/stm32f7xx_hal_hcd.c ****   * @param  hhcd HCD handle
1017:Drivers/STM32F7xx_HAL_Driver/Src/stm32f7xx_hal_hcd.c ****   * @retval HAL status
1018:Drivers/STM32F7xx_HAL_Driver/Src/stm32f7xx_hal_hcd.c ****   */
1019:Drivers/STM32F7xx_HAL_Driver/Src/stm32f7xx_hal_hcd.c **** 
1020:Drivers/STM32F7xx_HAL_Driver/Src/stm32f7xx_hal_hcd.c **** HAL_StatusTypeDef HAL_HCD_Stop(HCD_HandleTypeDef *hhcd)
1021:Drivers/STM32F7xx_HAL_Driver/Src/stm32f7xx_hal_hcd.c **** {
1022:Drivers/STM32F7xx_HAL_Driver/Src/stm32f7xx_hal_hcd.c ****   __HAL_LOCK(hhcd);
1023:Drivers/STM32F7xx_HAL_Driver/Src/stm32f7xx_hal_hcd.c ****   (void)USB_StopHost(hhcd->Instance);
1024:Drivers/STM32F7xx_HAL_Driver/Src/stm32f7xx_hal_hcd.c ****   __HAL_UNLOCK(hhcd);
1025:Drivers/STM32F7xx_HAL_Driver/Src/stm32f7xx_hal_hcd.c **** 
1026:Drivers/STM32F7xx_HAL_Driver/Src/stm32f7xx_hal_hcd.c ****   return HAL_OK;
1027:Drivers/STM32F7xx_HAL_Driver/Src/stm32f7xx_hal_hcd.c **** }
1028:Drivers/STM32F7xx_HAL_Driver/Src/stm32f7xx_hal_hcd.c **** 
1029:Drivers/STM32F7xx_HAL_Driver/Src/stm32f7xx_hal_hcd.c **** /**
1030:Drivers/STM32F7xx_HAL_Driver/Src/stm32f7xx_hal_hcd.c ****   * @brief  Reset the host port.
1031:Drivers/STM32F7xx_HAL_Driver/Src/stm32f7xx_hal_hcd.c ****   * @param  hhcd HCD handle
1032:Drivers/STM32F7xx_HAL_Driver/Src/stm32f7xx_hal_hcd.c ****   * @retval HAL status
1033:Drivers/STM32F7xx_HAL_Driver/Src/stm32f7xx_hal_hcd.c ****   */
1034:Drivers/STM32F7xx_HAL_Driver/Src/stm32f7xx_hal_hcd.c **** HAL_StatusTypeDef HAL_HCD_ResetPort(HCD_HandleTypeDef *hhcd)
1035:Drivers/STM32F7xx_HAL_Driver/Src/stm32f7xx_hal_hcd.c **** {
1036:Drivers/STM32F7xx_HAL_Driver/Src/stm32f7xx_hal_hcd.c ****   return (USB_ResetPort(hhcd->Instance));
1037:Drivers/STM32F7xx_HAL_Driver/Src/stm32f7xx_hal_hcd.c **** }
1038:Drivers/STM32F7xx_HAL_Driver/Src/stm32f7xx_hal_hcd.c **** 
1039:Drivers/STM32F7xx_HAL_Driver/Src/stm32f7xx_hal_hcd.c **** /**
1040:Drivers/STM32F7xx_HAL_Driver/Src/stm32f7xx_hal_hcd.c ****   * @}
1041:Drivers/STM32F7xx_HAL_Driver/Src/stm32f7xx_hal_hcd.c ****   */
1042:Drivers/STM32F7xx_HAL_Driver/Src/stm32f7xx_hal_hcd.c **** 
1043:Drivers/STM32F7xx_HAL_Driver/Src/stm32f7xx_hal_hcd.c **** /** @defgroup HCD_Exported_Functions_Group4 Peripheral State functions
1044:Drivers/STM32F7xx_HAL_Driver/Src/stm32f7xx_hal_hcd.c ****  *  @brief   Peripheral State functions
1045:Drivers/STM32F7xx_HAL_Driver/Src/stm32f7xx_hal_hcd.c ****  *
1046:Drivers/STM32F7xx_HAL_Driver/Src/stm32f7xx_hal_hcd.c **** @verbatim
1047:Drivers/STM32F7xx_HAL_Driver/Src/stm32f7xx_hal_hcd.c ****  ===============================================================================
1048:Drivers/STM32F7xx_HAL_Driver/Src/stm32f7xx_hal_hcd.c ****                       ##### Peripheral State functions #####
1049:Drivers/STM32F7xx_HAL_Driver/Src/stm32f7xx_hal_hcd.c ****  ===============================================================================
1050:Drivers/STM32F7xx_HAL_Driver/Src/stm32f7xx_hal_hcd.c ****     [..]
1051:Drivers/STM32F7xx_HAL_Driver/Src/stm32f7xx_hal_hcd.c ****     This subsection permits to get in run-time the status of the peripheral
1052:Drivers/STM32F7xx_HAL_Driver/Src/stm32f7xx_hal_hcd.c ****     and the data flow.
1053:Drivers/STM32F7xx_HAL_Driver/Src/stm32f7xx_hal_hcd.c **** 
1054:Drivers/STM32F7xx_HAL_Driver/Src/stm32f7xx_hal_hcd.c **** @endverbatim
1055:Drivers/STM32F7xx_HAL_Driver/Src/stm32f7xx_hal_hcd.c ****   * @{
1056:Drivers/STM32F7xx_HAL_Driver/Src/stm32f7xx_hal_hcd.c ****   */
1057:Drivers/STM32F7xx_HAL_Driver/Src/stm32f7xx_hal_hcd.c **** 
1058:Drivers/STM32F7xx_HAL_Driver/Src/stm32f7xx_hal_hcd.c **** /**
ARM GAS  /tmp/ccqVt8hD.s 			page 20


1059:Drivers/STM32F7xx_HAL_Driver/Src/stm32f7xx_hal_hcd.c ****   * @brief  Return the HCD handle state.
1060:Drivers/STM32F7xx_HAL_Driver/Src/stm32f7xx_hal_hcd.c ****   * @param  hhcd HCD handle
1061:Drivers/STM32F7xx_HAL_Driver/Src/stm32f7xx_hal_hcd.c ****   * @retval HAL state
1062:Drivers/STM32F7xx_HAL_Driver/Src/stm32f7xx_hal_hcd.c ****   */
1063:Drivers/STM32F7xx_HAL_Driver/Src/stm32f7xx_hal_hcd.c **** HCD_StateTypeDef HAL_HCD_GetState(HCD_HandleTypeDef *hhcd)
1064:Drivers/STM32F7xx_HAL_Driver/Src/stm32f7xx_hal_hcd.c **** {
1065:Drivers/STM32F7xx_HAL_Driver/Src/stm32f7xx_hal_hcd.c ****   return hhcd->State;
1066:Drivers/STM32F7xx_HAL_Driver/Src/stm32f7xx_hal_hcd.c **** }
1067:Drivers/STM32F7xx_HAL_Driver/Src/stm32f7xx_hal_hcd.c **** 
1068:Drivers/STM32F7xx_HAL_Driver/Src/stm32f7xx_hal_hcd.c **** /**
1069:Drivers/STM32F7xx_HAL_Driver/Src/stm32f7xx_hal_hcd.c ****   * @brief  Return  URB state for a channel.
1070:Drivers/STM32F7xx_HAL_Driver/Src/stm32f7xx_hal_hcd.c ****   * @param  hhcd HCD handle
1071:Drivers/STM32F7xx_HAL_Driver/Src/stm32f7xx_hal_hcd.c ****   * @param  chnum Channel number.
1072:Drivers/STM32F7xx_HAL_Driver/Src/stm32f7xx_hal_hcd.c ****   *         This parameter can be a value from 1 to 15
1073:Drivers/STM32F7xx_HAL_Driver/Src/stm32f7xx_hal_hcd.c ****   * @retval URB state.
1074:Drivers/STM32F7xx_HAL_Driver/Src/stm32f7xx_hal_hcd.c ****   *          This parameter can be one of these values:
1075:Drivers/STM32F7xx_HAL_Driver/Src/stm32f7xx_hal_hcd.c ****   *            URB_IDLE/
1076:Drivers/STM32F7xx_HAL_Driver/Src/stm32f7xx_hal_hcd.c ****   *            URB_DONE/
1077:Drivers/STM32F7xx_HAL_Driver/Src/stm32f7xx_hal_hcd.c ****   *            URB_NOTREADY/
1078:Drivers/STM32F7xx_HAL_Driver/Src/stm32f7xx_hal_hcd.c ****   *            URB_NYET/
1079:Drivers/STM32F7xx_HAL_Driver/Src/stm32f7xx_hal_hcd.c ****   *            URB_ERROR/
1080:Drivers/STM32F7xx_HAL_Driver/Src/stm32f7xx_hal_hcd.c ****   *            URB_STALL
1081:Drivers/STM32F7xx_HAL_Driver/Src/stm32f7xx_hal_hcd.c ****   */
1082:Drivers/STM32F7xx_HAL_Driver/Src/stm32f7xx_hal_hcd.c **** HCD_URBStateTypeDef HAL_HCD_HC_GetURBState(HCD_HandleTypeDef *hhcd, uint8_t chnum)
1083:Drivers/STM32F7xx_HAL_Driver/Src/stm32f7xx_hal_hcd.c **** {
1084:Drivers/STM32F7xx_HAL_Driver/Src/stm32f7xx_hal_hcd.c ****   return hhcd->hc[chnum].urb_state;
1085:Drivers/STM32F7xx_HAL_Driver/Src/stm32f7xx_hal_hcd.c **** }
1086:Drivers/STM32F7xx_HAL_Driver/Src/stm32f7xx_hal_hcd.c **** 
1087:Drivers/STM32F7xx_HAL_Driver/Src/stm32f7xx_hal_hcd.c **** 
1088:Drivers/STM32F7xx_HAL_Driver/Src/stm32f7xx_hal_hcd.c **** /**
1089:Drivers/STM32F7xx_HAL_Driver/Src/stm32f7xx_hal_hcd.c ****   * @brief  Return the last host transfer size.
1090:Drivers/STM32F7xx_HAL_Driver/Src/stm32f7xx_hal_hcd.c ****   * @param  hhcd HCD handle
1091:Drivers/STM32F7xx_HAL_Driver/Src/stm32f7xx_hal_hcd.c ****   * @param  chnum Channel number.
1092:Drivers/STM32F7xx_HAL_Driver/Src/stm32f7xx_hal_hcd.c ****   *         This parameter can be a value from 1 to 15
1093:Drivers/STM32F7xx_HAL_Driver/Src/stm32f7xx_hal_hcd.c ****   * @retval last transfer size in byte
1094:Drivers/STM32F7xx_HAL_Driver/Src/stm32f7xx_hal_hcd.c ****   */
1095:Drivers/STM32F7xx_HAL_Driver/Src/stm32f7xx_hal_hcd.c **** uint32_t HAL_HCD_HC_GetXferCount(HCD_HandleTypeDef *hhcd, uint8_t chnum)
1096:Drivers/STM32F7xx_HAL_Driver/Src/stm32f7xx_hal_hcd.c **** {
1097:Drivers/STM32F7xx_HAL_Driver/Src/stm32f7xx_hal_hcd.c ****   return hhcd->hc[chnum].xfer_count;
1098:Drivers/STM32F7xx_HAL_Driver/Src/stm32f7xx_hal_hcd.c **** }
1099:Drivers/STM32F7xx_HAL_Driver/Src/stm32f7xx_hal_hcd.c **** 
1100:Drivers/STM32F7xx_HAL_Driver/Src/stm32f7xx_hal_hcd.c **** /**
1101:Drivers/STM32F7xx_HAL_Driver/Src/stm32f7xx_hal_hcd.c ****   * @brief  Return the Host Channel state.
1102:Drivers/STM32F7xx_HAL_Driver/Src/stm32f7xx_hal_hcd.c ****   * @param  hhcd HCD handle
1103:Drivers/STM32F7xx_HAL_Driver/Src/stm32f7xx_hal_hcd.c ****   * @param  chnum Channel number.
1104:Drivers/STM32F7xx_HAL_Driver/Src/stm32f7xx_hal_hcd.c ****   *         This parameter can be a value from 1 to 15
1105:Drivers/STM32F7xx_HAL_Driver/Src/stm32f7xx_hal_hcd.c ****   * @retval Host channel state
1106:Drivers/STM32F7xx_HAL_Driver/Src/stm32f7xx_hal_hcd.c ****   *          This parameter can be one of these values:
1107:Drivers/STM32F7xx_HAL_Driver/Src/stm32f7xx_hal_hcd.c ****   *            HC_IDLE/
1108:Drivers/STM32F7xx_HAL_Driver/Src/stm32f7xx_hal_hcd.c ****   *            HC_XFRC/
1109:Drivers/STM32F7xx_HAL_Driver/Src/stm32f7xx_hal_hcd.c ****   *            HC_HALTED/
1110:Drivers/STM32F7xx_HAL_Driver/Src/stm32f7xx_hal_hcd.c ****   *            HC_NYET/
1111:Drivers/STM32F7xx_HAL_Driver/Src/stm32f7xx_hal_hcd.c ****   *            HC_NAK/
1112:Drivers/STM32F7xx_HAL_Driver/Src/stm32f7xx_hal_hcd.c ****   *            HC_STALL/
1113:Drivers/STM32F7xx_HAL_Driver/Src/stm32f7xx_hal_hcd.c ****   *            HC_XACTERR/
1114:Drivers/STM32F7xx_HAL_Driver/Src/stm32f7xx_hal_hcd.c ****   *            HC_BBLERR/
1115:Drivers/STM32F7xx_HAL_Driver/Src/stm32f7xx_hal_hcd.c ****   *            HC_DATATGLERR
ARM GAS  /tmp/ccqVt8hD.s 			page 21


1116:Drivers/STM32F7xx_HAL_Driver/Src/stm32f7xx_hal_hcd.c ****   */
1117:Drivers/STM32F7xx_HAL_Driver/Src/stm32f7xx_hal_hcd.c **** HCD_HCStateTypeDef  HAL_HCD_HC_GetState(HCD_HandleTypeDef *hhcd, uint8_t chnum)
1118:Drivers/STM32F7xx_HAL_Driver/Src/stm32f7xx_hal_hcd.c **** {
1119:Drivers/STM32F7xx_HAL_Driver/Src/stm32f7xx_hal_hcd.c ****   return hhcd->hc[chnum].state;
1120:Drivers/STM32F7xx_HAL_Driver/Src/stm32f7xx_hal_hcd.c **** }
1121:Drivers/STM32F7xx_HAL_Driver/Src/stm32f7xx_hal_hcd.c **** 
1122:Drivers/STM32F7xx_HAL_Driver/Src/stm32f7xx_hal_hcd.c **** /**
1123:Drivers/STM32F7xx_HAL_Driver/Src/stm32f7xx_hal_hcd.c ****   * @brief  Return the current Host frame number.
1124:Drivers/STM32F7xx_HAL_Driver/Src/stm32f7xx_hal_hcd.c ****   * @param  hhcd HCD handle
1125:Drivers/STM32F7xx_HAL_Driver/Src/stm32f7xx_hal_hcd.c ****   * @retval Current Host frame number
1126:Drivers/STM32F7xx_HAL_Driver/Src/stm32f7xx_hal_hcd.c ****   */
1127:Drivers/STM32F7xx_HAL_Driver/Src/stm32f7xx_hal_hcd.c **** uint32_t HAL_HCD_GetCurrentFrame(HCD_HandleTypeDef *hhcd)
1128:Drivers/STM32F7xx_HAL_Driver/Src/stm32f7xx_hal_hcd.c **** {
1129:Drivers/STM32F7xx_HAL_Driver/Src/stm32f7xx_hal_hcd.c ****   return (USB_GetCurrentFrame(hhcd->Instance));
1130:Drivers/STM32F7xx_HAL_Driver/Src/stm32f7xx_hal_hcd.c **** }
1131:Drivers/STM32F7xx_HAL_Driver/Src/stm32f7xx_hal_hcd.c **** 
1132:Drivers/STM32F7xx_HAL_Driver/Src/stm32f7xx_hal_hcd.c **** /**
1133:Drivers/STM32F7xx_HAL_Driver/Src/stm32f7xx_hal_hcd.c ****   * @brief  Return the Host enumeration speed.
1134:Drivers/STM32F7xx_HAL_Driver/Src/stm32f7xx_hal_hcd.c ****   * @param  hhcd HCD handle
1135:Drivers/STM32F7xx_HAL_Driver/Src/stm32f7xx_hal_hcd.c ****   * @retval Enumeration speed
1136:Drivers/STM32F7xx_HAL_Driver/Src/stm32f7xx_hal_hcd.c ****   */
1137:Drivers/STM32F7xx_HAL_Driver/Src/stm32f7xx_hal_hcd.c **** uint32_t HAL_HCD_GetCurrentSpeed(HCD_HandleTypeDef *hhcd)
1138:Drivers/STM32F7xx_HAL_Driver/Src/stm32f7xx_hal_hcd.c **** {
1139:Drivers/STM32F7xx_HAL_Driver/Src/stm32f7xx_hal_hcd.c ****   return (USB_GetHostSpeed(hhcd->Instance));
1140:Drivers/STM32F7xx_HAL_Driver/Src/stm32f7xx_hal_hcd.c **** }
1141:Drivers/STM32F7xx_HAL_Driver/Src/stm32f7xx_hal_hcd.c **** 
1142:Drivers/STM32F7xx_HAL_Driver/Src/stm32f7xx_hal_hcd.c **** /**
1143:Drivers/STM32F7xx_HAL_Driver/Src/stm32f7xx_hal_hcd.c ****   * @}
1144:Drivers/STM32F7xx_HAL_Driver/Src/stm32f7xx_hal_hcd.c ****   */
1145:Drivers/STM32F7xx_HAL_Driver/Src/stm32f7xx_hal_hcd.c **** 
1146:Drivers/STM32F7xx_HAL_Driver/Src/stm32f7xx_hal_hcd.c **** /**
1147:Drivers/STM32F7xx_HAL_Driver/Src/stm32f7xx_hal_hcd.c ****   * @}
1148:Drivers/STM32F7xx_HAL_Driver/Src/stm32f7xx_hal_hcd.c ****   */
1149:Drivers/STM32F7xx_HAL_Driver/Src/stm32f7xx_hal_hcd.c **** 
1150:Drivers/STM32F7xx_HAL_Driver/Src/stm32f7xx_hal_hcd.c **** /** @addtogroup HCD_Private_Functions
1151:Drivers/STM32F7xx_HAL_Driver/Src/stm32f7xx_hal_hcd.c ****   * @{
1152:Drivers/STM32F7xx_HAL_Driver/Src/stm32f7xx_hal_hcd.c ****   */
1153:Drivers/STM32F7xx_HAL_Driver/Src/stm32f7xx_hal_hcd.c **** /**
1154:Drivers/STM32F7xx_HAL_Driver/Src/stm32f7xx_hal_hcd.c ****   * @brief  Handle Host Channel IN interrupt requests.
1155:Drivers/STM32F7xx_HAL_Driver/Src/stm32f7xx_hal_hcd.c ****   * @param  hhcd HCD handle
1156:Drivers/STM32F7xx_HAL_Driver/Src/stm32f7xx_hal_hcd.c ****   * @param  chnum Channel number.
1157:Drivers/STM32F7xx_HAL_Driver/Src/stm32f7xx_hal_hcd.c ****   *         This parameter can be a value from 1 to 15
1158:Drivers/STM32F7xx_HAL_Driver/Src/stm32f7xx_hal_hcd.c ****   * @retval none
1159:Drivers/STM32F7xx_HAL_Driver/Src/stm32f7xx_hal_hcd.c ****   */
1160:Drivers/STM32F7xx_HAL_Driver/Src/stm32f7xx_hal_hcd.c **** static void HCD_HC_IN_IRQHandler(HCD_HandleTypeDef *hhcd, uint8_t chnum)
1161:Drivers/STM32F7xx_HAL_Driver/Src/stm32f7xx_hal_hcd.c **** {
1162:Drivers/STM32F7xx_HAL_Driver/Src/stm32f7xx_hal_hcd.c ****   USB_OTG_GlobalTypeDef *USBx = hhcd->Instance;
1163:Drivers/STM32F7xx_HAL_Driver/Src/stm32f7xx_hal_hcd.c ****   uint32_t USBx_BASE = (uint32_t)USBx;
1164:Drivers/STM32F7xx_HAL_Driver/Src/stm32f7xx_hal_hcd.c ****   uint32_t ch_num = (uint32_t)chnum;
1165:Drivers/STM32F7xx_HAL_Driver/Src/stm32f7xx_hal_hcd.c **** 
1166:Drivers/STM32F7xx_HAL_Driver/Src/stm32f7xx_hal_hcd.c ****   uint32_t tmpreg;
1167:Drivers/STM32F7xx_HAL_Driver/Src/stm32f7xx_hal_hcd.c **** 
1168:Drivers/STM32F7xx_HAL_Driver/Src/stm32f7xx_hal_hcd.c ****   if ((USBx_HC(ch_num)->HCINT & USB_OTG_HCINT_AHBERR) == USB_OTG_HCINT_AHBERR)
1169:Drivers/STM32F7xx_HAL_Driver/Src/stm32f7xx_hal_hcd.c ****   {
1170:Drivers/STM32F7xx_HAL_Driver/Src/stm32f7xx_hal_hcd.c ****     __HAL_HCD_CLEAR_HC_INT(ch_num, USB_OTG_HCINT_AHBERR);
1171:Drivers/STM32F7xx_HAL_Driver/Src/stm32f7xx_hal_hcd.c ****     __HAL_HCD_UNMASK_HALT_HC_INT(ch_num);
1172:Drivers/STM32F7xx_HAL_Driver/Src/stm32f7xx_hal_hcd.c ****   }
ARM GAS  /tmp/ccqVt8hD.s 			page 22


1173:Drivers/STM32F7xx_HAL_Driver/Src/stm32f7xx_hal_hcd.c ****   else if ((USBx_HC(ch_num)->HCINT & USB_OTG_HCINT_BBERR) == USB_OTG_HCINT_BBERR)
1174:Drivers/STM32F7xx_HAL_Driver/Src/stm32f7xx_hal_hcd.c ****   {
1175:Drivers/STM32F7xx_HAL_Driver/Src/stm32f7xx_hal_hcd.c ****     __HAL_HCD_CLEAR_HC_INT(ch_num, USB_OTG_HCINT_BBERR);
1176:Drivers/STM32F7xx_HAL_Driver/Src/stm32f7xx_hal_hcd.c ****     hhcd->hc[ch_num].state = HC_BBLERR;
1177:Drivers/STM32F7xx_HAL_Driver/Src/stm32f7xx_hal_hcd.c ****     __HAL_HCD_UNMASK_HALT_HC_INT(ch_num);
1178:Drivers/STM32F7xx_HAL_Driver/Src/stm32f7xx_hal_hcd.c ****     (void)USB_HC_Halt(hhcd->Instance, (uint8_t)ch_num);
1179:Drivers/STM32F7xx_HAL_Driver/Src/stm32f7xx_hal_hcd.c ****   }
1180:Drivers/STM32F7xx_HAL_Driver/Src/stm32f7xx_hal_hcd.c ****   else if ((USBx_HC(ch_num)->HCINT & USB_OTG_HCINT_ACK) == USB_OTG_HCINT_ACK)
1181:Drivers/STM32F7xx_HAL_Driver/Src/stm32f7xx_hal_hcd.c ****   {
1182:Drivers/STM32F7xx_HAL_Driver/Src/stm32f7xx_hal_hcd.c ****     __HAL_HCD_CLEAR_HC_INT(ch_num, USB_OTG_HCINT_ACK);
1183:Drivers/STM32F7xx_HAL_Driver/Src/stm32f7xx_hal_hcd.c ****   }
1184:Drivers/STM32F7xx_HAL_Driver/Src/stm32f7xx_hal_hcd.c ****   else if ((USBx_HC(ch_num)->HCINT & USB_OTG_HCINT_STALL) == USB_OTG_HCINT_STALL)
1185:Drivers/STM32F7xx_HAL_Driver/Src/stm32f7xx_hal_hcd.c ****   {
1186:Drivers/STM32F7xx_HAL_Driver/Src/stm32f7xx_hal_hcd.c ****     __HAL_HCD_UNMASK_HALT_HC_INT(ch_num);
1187:Drivers/STM32F7xx_HAL_Driver/Src/stm32f7xx_hal_hcd.c ****     hhcd->hc[ch_num].state = HC_STALL;
1188:Drivers/STM32F7xx_HAL_Driver/Src/stm32f7xx_hal_hcd.c ****     __HAL_HCD_CLEAR_HC_INT(ch_num, USB_OTG_HCINT_NAK);
1189:Drivers/STM32F7xx_HAL_Driver/Src/stm32f7xx_hal_hcd.c ****     __HAL_HCD_CLEAR_HC_INT(ch_num, USB_OTG_HCINT_STALL);
1190:Drivers/STM32F7xx_HAL_Driver/Src/stm32f7xx_hal_hcd.c ****     (void)USB_HC_Halt(hhcd->Instance, (uint8_t)ch_num);
1191:Drivers/STM32F7xx_HAL_Driver/Src/stm32f7xx_hal_hcd.c ****   }
1192:Drivers/STM32F7xx_HAL_Driver/Src/stm32f7xx_hal_hcd.c ****   else if ((USBx_HC(ch_num)->HCINT & USB_OTG_HCINT_DTERR) == USB_OTG_HCINT_DTERR)
1193:Drivers/STM32F7xx_HAL_Driver/Src/stm32f7xx_hal_hcd.c ****   {
1194:Drivers/STM32F7xx_HAL_Driver/Src/stm32f7xx_hal_hcd.c ****     __HAL_HCD_UNMASK_HALT_HC_INT(ch_num);
1195:Drivers/STM32F7xx_HAL_Driver/Src/stm32f7xx_hal_hcd.c ****     (void)USB_HC_Halt(hhcd->Instance, (uint8_t)ch_num);
1196:Drivers/STM32F7xx_HAL_Driver/Src/stm32f7xx_hal_hcd.c ****     __HAL_HCD_CLEAR_HC_INT(ch_num, USB_OTG_HCINT_NAK);
1197:Drivers/STM32F7xx_HAL_Driver/Src/stm32f7xx_hal_hcd.c ****     hhcd->hc[ch_num].state = HC_DATATGLERR;
1198:Drivers/STM32F7xx_HAL_Driver/Src/stm32f7xx_hal_hcd.c ****     __HAL_HCD_CLEAR_HC_INT(ch_num, USB_OTG_HCINT_DTERR);
1199:Drivers/STM32F7xx_HAL_Driver/Src/stm32f7xx_hal_hcd.c ****   }
1200:Drivers/STM32F7xx_HAL_Driver/Src/stm32f7xx_hal_hcd.c ****   else
1201:Drivers/STM32F7xx_HAL_Driver/Src/stm32f7xx_hal_hcd.c ****   {
1202:Drivers/STM32F7xx_HAL_Driver/Src/stm32f7xx_hal_hcd.c ****     /* ... */
1203:Drivers/STM32F7xx_HAL_Driver/Src/stm32f7xx_hal_hcd.c ****   }
1204:Drivers/STM32F7xx_HAL_Driver/Src/stm32f7xx_hal_hcd.c **** 
1205:Drivers/STM32F7xx_HAL_Driver/Src/stm32f7xx_hal_hcd.c ****   if ((USBx_HC(ch_num)->HCINT & USB_OTG_HCINT_FRMOR) == USB_OTG_HCINT_FRMOR)
1206:Drivers/STM32F7xx_HAL_Driver/Src/stm32f7xx_hal_hcd.c ****   {
1207:Drivers/STM32F7xx_HAL_Driver/Src/stm32f7xx_hal_hcd.c ****     __HAL_HCD_UNMASK_HALT_HC_INT(ch_num);
1208:Drivers/STM32F7xx_HAL_Driver/Src/stm32f7xx_hal_hcd.c ****     (void)USB_HC_Halt(hhcd->Instance, (uint8_t)ch_num);
1209:Drivers/STM32F7xx_HAL_Driver/Src/stm32f7xx_hal_hcd.c ****     __HAL_HCD_CLEAR_HC_INT(ch_num, USB_OTG_HCINT_FRMOR);
1210:Drivers/STM32F7xx_HAL_Driver/Src/stm32f7xx_hal_hcd.c ****   }
1211:Drivers/STM32F7xx_HAL_Driver/Src/stm32f7xx_hal_hcd.c ****   else if ((USBx_HC(ch_num)->HCINT & USB_OTG_HCINT_XFRC) == USB_OTG_HCINT_XFRC)
1212:Drivers/STM32F7xx_HAL_Driver/Src/stm32f7xx_hal_hcd.c ****   {
1213:Drivers/STM32F7xx_HAL_Driver/Src/stm32f7xx_hal_hcd.c ****     if (hhcd->Init.dma_enable != 0U)
1214:Drivers/STM32F7xx_HAL_Driver/Src/stm32f7xx_hal_hcd.c ****     {
1215:Drivers/STM32F7xx_HAL_Driver/Src/stm32f7xx_hal_hcd.c ****       hhcd->hc[ch_num].xfer_count = hhcd->hc[ch_num].xfer_len - \
1216:Drivers/STM32F7xx_HAL_Driver/Src/stm32f7xx_hal_hcd.c ****                                     (USBx_HC(ch_num)->HCTSIZ & USB_OTG_HCTSIZ_XFRSIZ);
1217:Drivers/STM32F7xx_HAL_Driver/Src/stm32f7xx_hal_hcd.c ****     }
1218:Drivers/STM32F7xx_HAL_Driver/Src/stm32f7xx_hal_hcd.c **** 
1219:Drivers/STM32F7xx_HAL_Driver/Src/stm32f7xx_hal_hcd.c ****     hhcd->hc[ch_num].state = HC_XFRC;
1220:Drivers/STM32F7xx_HAL_Driver/Src/stm32f7xx_hal_hcd.c ****     hhcd->hc[ch_num].ErrCnt = 0U;
1221:Drivers/STM32F7xx_HAL_Driver/Src/stm32f7xx_hal_hcd.c ****     __HAL_HCD_CLEAR_HC_INT(ch_num, USB_OTG_HCINT_XFRC);
1222:Drivers/STM32F7xx_HAL_Driver/Src/stm32f7xx_hal_hcd.c **** 
1223:Drivers/STM32F7xx_HAL_Driver/Src/stm32f7xx_hal_hcd.c ****     if ((hhcd->hc[ch_num].ep_type == EP_TYPE_CTRL) ||
1224:Drivers/STM32F7xx_HAL_Driver/Src/stm32f7xx_hal_hcd.c ****         (hhcd->hc[ch_num].ep_type == EP_TYPE_BULK))
1225:Drivers/STM32F7xx_HAL_Driver/Src/stm32f7xx_hal_hcd.c ****     {
1226:Drivers/STM32F7xx_HAL_Driver/Src/stm32f7xx_hal_hcd.c ****       __HAL_HCD_UNMASK_HALT_HC_INT(ch_num);
1227:Drivers/STM32F7xx_HAL_Driver/Src/stm32f7xx_hal_hcd.c ****       (void)USB_HC_Halt(hhcd->Instance, (uint8_t)ch_num);
1228:Drivers/STM32F7xx_HAL_Driver/Src/stm32f7xx_hal_hcd.c ****       __HAL_HCD_CLEAR_HC_INT(ch_num, USB_OTG_HCINT_NAK);
1229:Drivers/STM32F7xx_HAL_Driver/Src/stm32f7xx_hal_hcd.c ****     }
ARM GAS  /tmp/ccqVt8hD.s 			page 23


1230:Drivers/STM32F7xx_HAL_Driver/Src/stm32f7xx_hal_hcd.c ****     else if (hhcd->hc[ch_num].ep_type == EP_TYPE_INTR)
1231:Drivers/STM32F7xx_HAL_Driver/Src/stm32f7xx_hal_hcd.c ****     {
1232:Drivers/STM32F7xx_HAL_Driver/Src/stm32f7xx_hal_hcd.c ****       USBx_HC(ch_num)->HCCHAR |= USB_OTG_HCCHAR_ODDFRM;
1233:Drivers/STM32F7xx_HAL_Driver/Src/stm32f7xx_hal_hcd.c ****       hhcd->hc[ch_num].urb_state = URB_DONE;
1234:Drivers/STM32F7xx_HAL_Driver/Src/stm32f7xx_hal_hcd.c **** 
1235:Drivers/STM32F7xx_HAL_Driver/Src/stm32f7xx_hal_hcd.c **** #if (USE_HAL_HCD_REGISTER_CALLBACKS == 1U)
1236:Drivers/STM32F7xx_HAL_Driver/Src/stm32f7xx_hal_hcd.c ****       hhcd->HC_NotifyURBChangeCallback(hhcd, (uint8_t)ch_num, hhcd->hc[ch_num].urb_state);
1237:Drivers/STM32F7xx_HAL_Driver/Src/stm32f7xx_hal_hcd.c **** #else
1238:Drivers/STM32F7xx_HAL_Driver/Src/stm32f7xx_hal_hcd.c ****       HAL_HCD_HC_NotifyURBChange_Callback(hhcd, (uint8_t)ch_num, hhcd->hc[ch_num].urb_state);
1239:Drivers/STM32F7xx_HAL_Driver/Src/stm32f7xx_hal_hcd.c **** #endif /* USE_HAL_HCD_REGISTER_CALLBACKS */
1240:Drivers/STM32F7xx_HAL_Driver/Src/stm32f7xx_hal_hcd.c ****     }
1241:Drivers/STM32F7xx_HAL_Driver/Src/stm32f7xx_hal_hcd.c ****     else if (hhcd->hc[ch_num].ep_type == EP_TYPE_ISOC)
1242:Drivers/STM32F7xx_HAL_Driver/Src/stm32f7xx_hal_hcd.c ****     {
1243:Drivers/STM32F7xx_HAL_Driver/Src/stm32f7xx_hal_hcd.c ****       hhcd->hc[ch_num].urb_state = URB_DONE;
1244:Drivers/STM32F7xx_HAL_Driver/Src/stm32f7xx_hal_hcd.c ****       hhcd->hc[ch_num].toggle_in ^= 1U;
1245:Drivers/STM32F7xx_HAL_Driver/Src/stm32f7xx_hal_hcd.c **** 
1246:Drivers/STM32F7xx_HAL_Driver/Src/stm32f7xx_hal_hcd.c **** #if (USE_HAL_HCD_REGISTER_CALLBACKS == 1U)
1247:Drivers/STM32F7xx_HAL_Driver/Src/stm32f7xx_hal_hcd.c ****       hhcd->HC_NotifyURBChangeCallback(hhcd, (uint8_t)ch_num, hhcd->hc[ch_num].urb_state);
1248:Drivers/STM32F7xx_HAL_Driver/Src/stm32f7xx_hal_hcd.c **** #else
1249:Drivers/STM32F7xx_HAL_Driver/Src/stm32f7xx_hal_hcd.c ****       HAL_HCD_HC_NotifyURBChange_Callback(hhcd, (uint8_t)ch_num, hhcd->hc[ch_num].urb_state);
1250:Drivers/STM32F7xx_HAL_Driver/Src/stm32f7xx_hal_hcd.c **** #endif /* USE_HAL_HCD_REGISTER_CALLBACKS */
1251:Drivers/STM32F7xx_HAL_Driver/Src/stm32f7xx_hal_hcd.c ****     }
1252:Drivers/STM32F7xx_HAL_Driver/Src/stm32f7xx_hal_hcd.c ****     else
1253:Drivers/STM32F7xx_HAL_Driver/Src/stm32f7xx_hal_hcd.c ****     {
1254:Drivers/STM32F7xx_HAL_Driver/Src/stm32f7xx_hal_hcd.c ****       /* ... */
1255:Drivers/STM32F7xx_HAL_Driver/Src/stm32f7xx_hal_hcd.c ****     }
1256:Drivers/STM32F7xx_HAL_Driver/Src/stm32f7xx_hal_hcd.c ****     hhcd->hc[ch_num].toggle_in ^= 1U;
1257:Drivers/STM32F7xx_HAL_Driver/Src/stm32f7xx_hal_hcd.c **** 
1258:Drivers/STM32F7xx_HAL_Driver/Src/stm32f7xx_hal_hcd.c ****   }
1259:Drivers/STM32F7xx_HAL_Driver/Src/stm32f7xx_hal_hcd.c ****   else if ((USBx_HC(ch_num)->HCINT & USB_OTG_HCINT_CHH) == USB_OTG_HCINT_CHH)
1260:Drivers/STM32F7xx_HAL_Driver/Src/stm32f7xx_hal_hcd.c ****   {
1261:Drivers/STM32F7xx_HAL_Driver/Src/stm32f7xx_hal_hcd.c ****     __HAL_HCD_MASK_HALT_HC_INT(ch_num);
1262:Drivers/STM32F7xx_HAL_Driver/Src/stm32f7xx_hal_hcd.c **** 
1263:Drivers/STM32F7xx_HAL_Driver/Src/stm32f7xx_hal_hcd.c ****     if (hhcd->hc[ch_num].state == HC_XFRC)
1264:Drivers/STM32F7xx_HAL_Driver/Src/stm32f7xx_hal_hcd.c ****     {
1265:Drivers/STM32F7xx_HAL_Driver/Src/stm32f7xx_hal_hcd.c ****       hhcd->hc[ch_num].urb_state  = URB_DONE;
1266:Drivers/STM32F7xx_HAL_Driver/Src/stm32f7xx_hal_hcd.c ****     }
1267:Drivers/STM32F7xx_HAL_Driver/Src/stm32f7xx_hal_hcd.c ****     else if (hhcd->hc[ch_num].state == HC_STALL)
1268:Drivers/STM32F7xx_HAL_Driver/Src/stm32f7xx_hal_hcd.c ****     {
1269:Drivers/STM32F7xx_HAL_Driver/Src/stm32f7xx_hal_hcd.c ****       hhcd->hc[ch_num].urb_state  = URB_STALL;
1270:Drivers/STM32F7xx_HAL_Driver/Src/stm32f7xx_hal_hcd.c ****     }
1271:Drivers/STM32F7xx_HAL_Driver/Src/stm32f7xx_hal_hcd.c ****     else if ((hhcd->hc[ch_num].state == HC_XACTERR) ||
1272:Drivers/STM32F7xx_HAL_Driver/Src/stm32f7xx_hal_hcd.c ****              (hhcd->hc[ch_num].state == HC_DATATGLERR))
1273:Drivers/STM32F7xx_HAL_Driver/Src/stm32f7xx_hal_hcd.c ****     {
1274:Drivers/STM32F7xx_HAL_Driver/Src/stm32f7xx_hal_hcd.c ****       hhcd->hc[ch_num].ErrCnt++;
1275:Drivers/STM32F7xx_HAL_Driver/Src/stm32f7xx_hal_hcd.c ****       if (hhcd->hc[ch_num].ErrCnt > 3U)
1276:Drivers/STM32F7xx_HAL_Driver/Src/stm32f7xx_hal_hcd.c ****       {
1277:Drivers/STM32F7xx_HAL_Driver/Src/stm32f7xx_hal_hcd.c ****         hhcd->hc[ch_num].ErrCnt = 0U;
1278:Drivers/STM32F7xx_HAL_Driver/Src/stm32f7xx_hal_hcd.c ****         hhcd->hc[ch_num].urb_state = URB_ERROR;
1279:Drivers/STM32F7xx_HAL_Driver/Src/stm32f7xx_hal_hcd.c ****       }
1280:Drivers/STM32F7xx_HAL_Driver/Src/stm32f7xx_hal_hcd.c ****       else
1281:Drivers/STM32F7xx_HAL_Driver/Src/stm32f7xx_hal_hcd.c ****       {
1282:Drivers/STM32F7xx_HAL_Driver/Src/stm32f7xx_hal_hcd.c ****         hhcd->hc[ch_num].urb_state = URB_NOTREADY;
1283:Drivers/STM32F7xx_HAL_Driver/Src/stm32f7xx_hal_hcd.c ****       }
1284:Drivers/STM32F7xx_HAL_Driver/Src/stm32f7xx_hal_hcd.c **** 
1285:Drivers/STM32F7xx_HAL_Driver/Src/stm32f7xx_hal_hcd.c ****       /* re-activate the channel  */
1286:Drivers/STM32F7xx_HAL_Driver/Src/stm32f7xx_hal_hcd.c ****       tmpreg = USBx_HC(ch_num)->HCCHAR;
ARM GAS  /tmp/ccqVt8hD.s 			page 24


1287:Drivers/STM32F7xx_HAL_Driver/Src/stm32f7xx_hal_hcd.c ****       tmpreg &= ~USB_OTG_HCCHAR_CHDIS;
1288:Drivers/STM32F7xx_HAL_Driver/Src/stm32f7xx_hal_hcd.c ****       tmpreg |= USB_OTG_HCCHAR_CHENA;
1289:Drivers/STM32F7xx_HAL_Driver/Src/stm32f7xx_hal_hcd.c ****       USBx_HC(ch_num)->HCCHAR = tmpreg;
1290:Drivers/STM32F7xx_HAL_Driver/Src/stm32f7xx_hal_hcd.c ****     }
1291:Drivers/STM32F7xx_HAL_Driver/Src/stm32f7xx_hal_hcd.c ****     else if (hhcd->hc[ch_num].state == HC_NAK)
1292:Drivers/STM32F7xx_HAL_Driver/Src/stm32f7xx_hal_hcd.c ****     {
1293:Drivers/STM32F7xx_HAL_Driver/Src/stm32f7xx_hal_hcd.c ****       hhcd->hc[ch_num].urb_state  = URB_NOTREADY;
1294:Drivers/STM32F7xx_HAL_Driver/Src/stm32f7xx_hal_hcd.c ****       /* re-activate the channel  */
1295:Drivers/STM32F7xx_HAL_Driver/Src/stm32f7xx_hal_hcd.c ****       tmpreg = USBx_HC(ch_num)->HCCHAR;
1296:Drivers/STM32F7xx_HAL_Driver/Src/stm32f7xx_hal_hcd.c ****       tmpreg &= ~USB_OTG_HCCHAR_CHDIS;
1297:Drivers/STM32F7xx_HAL_Driver/Src/stm32f7xx_hal_hcd.c ****       tmpreg |= USB_OTG_HCCHAR_CHENA;
1298:Drivers/STM32F7xx_HAL_Driver/Src/stm32f7xx_hal_hcd.c ****       USBx_HC(ch_num)->HCCHAR = tmpreg;
1299:Drivers/STM32F7xx_HAL_Driver/Src/stm32f7xx_hal_hcd.c ****     }
1300:Drivers/STM32F7xx_HAL_Driver/Src/stm32f7xx_hal_hcd.c ****     else if (hhcd->hc[ch_num].state == HC_BBLERR)
1301:Drivers/STM32F7xx_HAL_Driver/Src/stm32f7xx_hal_hcd.c ****     {
1302:Drivers/STM32F7xx_HAL_Driver/Src/stm32f7xx_hal_hcd.c ****       hhcd->hc[ch_num].ErrCnt++;
1303:Drivers/STM32F7xx_HAL_Driver/Src/stm32f7xx_hal_hcd.c ****       hhcd->hc[ch_num].urb_state = URB_ERROR;
1304:Drivers/STM32F7xx_HAL_Driver/Src/stm32f7xx_hal_hcd.c ****     }
1305:Drivers/STM32F7xx_HAL_Driver/Src/stm32f7xx_hal_hcd.c ****     else
1306:Drivers/STM32F7xx_HAL_Driver/Src/stm32f7xx_hal_hcd.c ****     {
1307:Drivers/STM32F7xx_HAL_Driver/Src/stm32f7xx_hal_hcd.c ****       /* ... */
1308:Drivers/STM32F7xx_HAL_Driver/Src/stm32f7xx_hal_hcd.c ****     }
1309:Drivers/STM32F7xx_HAL_Driver/Src/stm32f7xx_hal_hcd.c ****     __HAL_HCD_CLEAR_HC_INT(ch_num, USB_OTG_HCINT_CHH);
1310:Drivers/STM32F7xx_HAL_Driver/Src/stm32f7xx_hal_hcd.c ****     HAL_HCD_HC_NotifyURBChange_Callback(hhcd, (uint8_t)ch_num, hhcd->hc[ch_num].urb_state);
1311:Drivers/STM32F7xx_HAL_Driver/Src/stm32f7xx_hal_hcd.c ****   }
1312:Drivers/STM32F7xx_HAL_Driver/Src/stm32f7xx_hal_hcd.c ****   else if ((USBx_HC(ch_num)->HCINT & USB_OTG_HCINT_TXERR) == USB_OTG_HCINT_TXERR)
1313:Drivers/STM32F7xx_HAL_Driver/Src/stm32f7xx_hal_hcd.c ****   {
1314:Drivers/STM32F7xx_HAL_Driver/Src/stm32f7xx_hal_hcd.c ****     __HAL_HCD_UNMASK_HALT_HC_INT(ch_num);
1315:Drivers/STM32F7xx_HAL_Driver/Src/stm32f7xx_hal_hcd.c ****     hhcd->hc[ch_num].ErrCnt++;
1316:Drivers/STM32F7xx_HAL_Driver/Src/stm32f7xx_hal_hcd.c ****     hhcd->hc[ch_num].state = HC_XACTERR;
1317:Drivers/STM32F7xx_HAL_Driver/Src/stm32f7xx_hal_hcd.c ****     (void)USB_HC_Halt(hhcd->Instance, (uint8_t)ch_num);
1318:Drivers/STM32F7xx_HAL_Driver/Src/stm32f7xx_hal_hcd.c ****     __HAL_HCD_CLEAR_HC_INT(ch_num, USB_OTG_HCINT_TXERR);
1319:Drivers/STM32F7xx_HAL_Driver/Src/stm32f7xx_hal_hcd.c ****   }
1320:Drivers/STM32F7xx_HAL_Driver/Src/stm32f7xx_hal_hcd.c ****   else if ((USBx_HC(ch_num)->HCINT & USB_OTG_HCINT_NAK) == USB_OTG_HCINT_NAK)
1321:Drivers/STM32F7xx_HAL_Driver/Src/stm32f7xx_hal_hcd.c ****   {
1322:Drivers/STM32F7xx_HAL_Driver/Src/stm32f7xx_hal_hcd.c ****     if (hhcd->hc[ch_num].ep_type == EP_TYPE_INTR)
1323:Drivers/STM32F7xx_HAL_Driver/Src/stm32f7xx_hal_hcd.c ****     {
1324:Drivers/STM32F7xx_HAL_Driver/Src/stm32f7xx_hal_hcd.c ****       hhcd->hc[ch_num].ErrCnt = 0U;
1325:Drivers/STM32F7xx_HAL_Driver/Src/stm32f7xx_hal_hcd.c ****       __HAL_HCD_UNMASK_HALT_HC_INT(ch_num);
1326:Drivers/STM32F7xx_HAL_Driver/Src/stm32f7xx_hal_hcd.c ****       (void)USB_HC_Halt(hhcd->Instance, (uint8_t)ch_num);
1327:Drivers/STM32F7xx_HAL_Driver/Src/stm32f7xx_hal_hcd.c ****     }
1328:Drivers/STM32F7xx_HAL_Driver/Src/stm32f7xx_hal_hcd.c ****     else if ((hhcd->hc[ch_num].ep_type == EP_TYPE_CTRL) ||
1329:Drivers/STM32F7xx_HAL_Driver/Src/stm32f7xx_hal_hcd.c ****              (hhcd->hc[ch_num].ep_type == EP_TYPE_BULK))
1330:Drivers/STM32F7xx_HAL_Driver/Src/stm32f7xx_hal_hcd.c ****     {
1331:Drivers/STM32F7xx_HAL_Driver/Src/stm32f7xx_hal_hcd.c ****       hhcd->hc[ch_num].ErrCnt = 0U;
1332:Drivers/STM32F7xx_HAL_Driver/Src/stm32f7xx_hal_hcd.c **** 
1333:Drivers/STM32F7xx_HAL_Driver/Src/stm32f7xx_hal_hcd.c ****       if (hhcd->Init.dma_enable == 0U)
1334:Drivers/STM32F7xx_HAL_Driver/Src/stm32f7xx_hal_hcd.c ****       {
1335:Drivers/STM32F7xx_HAL_Driver/Src/stm32f7xx_hal_hcd.c ****         hhcd->hc[ch_num].state = HC_NAK;
1336:Drivers/STM32F7xx_HAL_Driver/Src/stm32f7xx_hal_hcd.c ****         __HAL_HCD_UNMASK_HALT_HC_INT(ch_num);
1337:Drivers/STM32F7xx_HAL_Driver/Src/stm32f7xx_hal_hcd.c ****         (void)USB_HC_Halt(hhcd->Instance, (uint8_t)ch_num);
1338:Drivers/STM32F7xx_HAL_Driver/Src/stm32f7xx_hal_hcd.c ****       }
1339:Drivers/STM32F7xx_HAL_Driver/Src/stm32f7xx_hal_hcd.c ****     }
1340:Drivers/STM32F7xx_HAL_Driver/Src/stm32f7xx_hal_hcd.c ****     else
1341:Drivers/STM32F7xx_HAL_Driver/Src/stm32f7xx_hal_hcd.c ****     {
1342:Drivers/STM32F7xx_HAL_Driver/Src/stm32f7xx_hal_hcd.c ****       /* ... */
1343:Drivers/STM32F7xx_HAL_Driver/Src/stm32f7xx_hal_hcd.c ****     }
ARM GAS  /tmp/ccqVt8hD.s 			page 25


1344:Drivers/STM32F7xx_HAL_Driver/Src/stm32f7xx_hal_hcd.c ****     __HAL_HCD_CLEAR_HC_INT(ch_num, USB_OTG_HCINT_NAK);
1345:Drivers/STM32F7xx_HAL_Driver/Src/stm32f7xx_hal_hcd.c ****   }
1346:Drivers/STM32F7xx_HAL_Driver/Src/stm32f7xx_hal_hcd.c ****   else
1347:Drivers/STM32F7xx_HAL_Driver/Src/stm32f7xx_hal_hcd.c ****   {
1348:Drivers/STM32F7xx_HAL_Driver/Src/stm32f7xx_hal_hcd.c ****     /* ... */
1349:Drivers/STM32F7xx_HAL_Driver/Src/stm32f7xx_hal_hcd.c ****   }
1350:Drivers/STM32F7xx_HAL_Driver/Src/stm32f7xx_hal_hcd.c **** }
1351:Drivers/STM32F7xx_HAL_Driver/Src/stm32f7xx_hal_hcd.c **** 
1352:Drivers/STM32F7xx_HAL_Driver/Src/stm32f7xx_hal_hcd.c **** /**
1353:Drivers/STM32F7xx_HAL_Driver/Src/stm32f7xx_hal_hcd.c ****   * @brief  Handle Host Channel OUT interrupt requests.
1354:Drivers/STM32F7xx_HAL_Driver/Src/stm32f7xx_hal_hcd.c ****   * @param  hhcd HCD handle
1355:Drivers/STM32F7xx_HAL_Driver/Src/stm32f7xx_hal_hcd.c ****   * @param  chnum Channel number.
1356:Drivers/STM32F7xx_HAL_Driver/Src/stm32f7xx_hal_hcd.c ****   *         This parameter can be a value from 1 to 15
1357:Drivers/STM32F7xx_HAL_Driver/Src/stm32f7xx_hal_hcd.c ****   * @retval none
1358:Drivers/STM32F7xx_HAL_Driver/Src/stm32f7xx_hal_hcd.c ****   */
1359:Drivers/STM32F7xx_HAL_Driver/Src/stm32f7xx_hal_hcd.c **** static void HCD_HC_OUT_IRQHandler(HCD_HandleTypeDef *hhcd, uint8_t chnum)
1360:Drivers/STM32F7xx_HAL_Driver/Src/stm32f7xx_hal_hcd.c **** {
1361:Drivers/STM32F7xx_HAL_Driver/Src/stm32f7xx_hal_hcd.c ****   USB_OTG_GlobalTypeDef *USBx = hhcd->Instance;
1362:Drivers/STM32F7xx_HAL_Driver/Src/stm32f7xx_hal_hcd.c ****   uint32_t USBx_BASE = (uint32_t)USBx;
1363:Drivers/STM32F7xx_HAL_Driver/Src/stm32f7xx_hal_hcd.c ****   uint32_t ch_num = (uint32_t)chnum;
1364:Drivers/STM32F7xx_HAL_Driver/Src/stm32f7xx_hal_hcd.c ****   uint32_t tmpreg;
1365:Drivers/STM32F7xx_HAL_Driver/Src/stm32f7xx_hal_hcd.c **** 
1366:Drivers/STM32F7xx_HAL_Driver/Src/stm32f7xx_hal_hcd.c ****   if ((USBx_HC(ch_num)->HCINT & USB_OTG_HCINT_AHBERR) == USB_OTG_HCINT_AHBERR)
1367:Drivers/STM32F7xx_HAL_Driver/Src/stm32f7xx_hal_hcd.c ****   {
1368:Drivers/STM32F7xx_HAL_Driver/Src/stm32f7xx_hal_hcd.c ****     __HAL_HCD_CLEAR_HC_INT(ch_num, USB_OTG_HCINT_AHBERR);
1369:Drivers/STM32F7xx_HAL_Driver/Src/stm32f7xx_hal_hcd.c ****     __HAL_HCD_UNMASK_HALT_HC_INT(ch_num);
1370:Drivers/STM32F7xx_HAL_Driver/Src/stm32f7xx_hal_hcd.c ****   }
1371:Drivers/STM32F7xx_HAL_Driver/Src/stm32f7xx_hal_hcd.c ****   else if ((USBx_HC(ch_num)->HCINT & USB_OTG_HCINT_ACK) == USB_OTG_HCINT_ACK)
1372:Drivers/STM32F7xx_HAL_Driver/Src/stm32f7xx_hal_hcd.c ****   {
1373:Drivers/STM32F7xx_HAL_Driver/Src/stm32f7xx_hal_hcd.c ****     __HAL_HCD_CLEAR_HC_INT(ch_num, USB_OTG_HCINT_ACK);
1374:Drivers/STM32F7xx_HAL_Driver/Src/stm32f7xx_hal_hcd.c **** 
1375:Drivers/STM32F7xx_HAL_Driver/Src/stm32f7xx_hal_hcd.c ****     if (hhcd->hc[ch_num].do_ping == 1U)
1376:Drivers/STM32F7xx_HAL_Driver/Src/stm32f7xx_hal_hcd.c ****     {
1377:Drivers/STM32F7xx_HAL_Driver/Src/stm32f7xx_hal_hcd.c ****       hhcd->hc[ch_num].do_ping = 0U;
1378:Drivers/STM32F7xx_HAL_Driver/Src/stm32f7xx_hal_hcd.c ****       hhcd->hc[ch_num].urb_state  = URB_NOTREADY;
1379:Drivers/STM32F7xx_HAL_Driver/Src/stm32f7xx_hal_hcd.c ****       __HAL_HCD_UNMASK_HALT_HC_INT(ch_num);
1380:Drivers/STM32F7xx_HAL_Driver/Src/stm32f7xx_hal_hcd.c ****       (void)USB_HC_Halt(hhcd->Instance, (uint8_t)ch_num);
1381:Drivers/STM32F7xx_HAL_Driver/Src/stm32f7xx_hal_hcd.c ****     }
1382:Drivers/STM32F7xx_HAL_Driver/Src/stm32f7xx_hal_hcd.c ****   }
1383:Drivers/STM32F7xx_HAL_Driver/Src/stm32f7xx_hal_hcd.c ****   else if ((USBx_HC(ch_num)->HCINT & USB_OTG_HCINT_NYET) == USB_OTG_HCINT_NYET)
1384:Drivers/STM32F7xx_HAL_Driver/Src/stm32f7xx_hal_hcd.c ****   {
1385:Drivers/STM32F7xx_HAL_Driver/Src/stm32f7xx_hal_hcd.c ****     hhcd->hc[ch_num].state = HC_NYET;
1386:Drivers/STM32F7xx_HAL_Driver/Src/stm32f7xx_hal_hcd.c ****     hhcd->hc[ch_num].do_ping = 1U;
1387:Drivers/STM32F7xx_HAL_Driver/Src/stm32f7xx_hal_hcd.c ****     hhcd->hc[ch_num].ErrCnt = 0U;
1388:Drivers/STM32F7xx_HAL_Driver/Src/stm32f7xx_hal_hcd.c ****     __HAL_HCD_UNMASK_HALT_HC_INT(ch_num);
1389:Drivers/STM32F7xx_HAL_Driver/Src/stm32f7xx_hal_hcd.c ****     (void)USB_HC_Halt(hhcd->Instance, (uint8_t)ch_num);
1390:Drivers/STM32F7xx_HAL_Driver/Src/stm32f7xx_hal_hcd.c ****     __HAL_HCD_CLEAR_HC_INT(ch_num, USB_OTG_HCINT_NYET);
1391:Drivers/STM32F7xx_HAL_Driver/Src/stm32f7xx_hal_hcd.c ****   }
1392:Drivers/STM32F7xx_HAL_Driver/Src/stm32f7xx_hal_hcd.c ****   else if ((USBx_HC(ch_num)->HCINT & USB_OTG_HCINT_FRMOR) == USB_OTG_HCINT_FRMOR)
1393:Drivers/STM32F7xx_HAL_Driver/Src/stm32f7xx_hal_hcd.c ****   {
1394:Drivers/STM32F7xx_HAL_Driver/Src/stm32f7xx_hal_hcd.c ****     __HAL_HCD_UNMASK_HALT_HC_INT(ch_num);
1395:Drivers/STM32F7xx_HAL_Driver/Src/stm32f7xx_hal_hcd.c ****     (void)USB_HC_Halt(hhcd->Instance, (uint8_t)ch_num);
1396:Drivers/STM32F7xx_HAL_Driver/Src/stm32f7xx_hal_hcd.c ****     __HAL_HCD_CLEAR_HC_INT(ch_num, USB_OTG_HCINT_FRMOR);
1397:Drivers/STM32F7xx_HAL_Driver/Src/stm32f7xx_hal_hcd.c ****   }
1398:Drivers/STM32F7xx_HAL_Driver/Src/stm32f7xx_hal_hcd.c ****   else if ((USBx_HC(ch_num)->HCINT & USB_OTG_HCINT_XFRC) == USB_OTG_HCINT_XFRC)
1399:Drivers/STM32F7xx_HAL_Driver/Src/stm32f7xx_hal_hcd.c ****   {
1400:Drivers/STM32F7xx_HAL_Driver/Src/stm32f7xx_hal_hcd.c ****     hhcd->hc[ch_num].ErrCnt = 0U;
ARM GAS  /tmp/ccqVt8hD.s 			page 26


1401:Drivers/STM32F7xx_HAL_Driver/Src/stm32f7xx_hal_hcd.c ****     __HAL_HCD_UNMASK_HALT_HC_INT(ch_num);
1402:Drivers/STM32F7xx_HAL_Driver/Src/stm32f7xx_hal_hcd.c ****     (void)USB_HC_Halt(hhcd->Instance, (uint8_t)ch_num);
1403:Drivers/STM32F7xx_HAL_Driver/Src/stm32f7xx_hal_hcd.c ****     __HAL_HCD_CLEAR_HC_INT(ch_num, USB_OTG_HCINT_XFRC);
1404:Drivers/STM32F7xx_HAL_Driver/Src/stm32f7xx_hal_hcd.c ****     hhcd->hc[ch_num].state = HC_XFRC;
1405:Drivers/STM32F7xx_HAL_Driver/Src/stm32f7xx_hal_hcd.c ****   }
1406:Drivers/STM32F7xx_HAL_Driver/Src/stm32f7xx_hal_hcd.c ****   else if ((USBx_HC(ch_num)->HCINT & USB_OTG_HCINT_STALL) == USB_OTG_HCINT_STALL)
1407:Drivers/STM32F7xx_HAL_Driver/Src/stm32f7xx_hal_hcd.c ****   {
1408:Drivers/STM32F7xx_HAL_Driver/Src/stm32f7xx_hal_hcd.c ****     __HAL_HCD_CLEAR_HC_INT(ch_num, USB_OTG_HCINT_STALL);
1409:Drivers/STM32F7xx_HAL_Driver/Src/stm32f7xx_hal_hcd.c ****     __HAL_HCD_UNMASK_HALT_HC_INT(ch_num);
1410:Drivers/STM32F7xx_HAL_Driver/Src/stm32f7xx_hal_hcd.c ****     (void)USB_HC_Halt(hhcd->Instance, (uint8_t)ch_num);
1411:Drivers/STM32F7xx_HAL_Driver/Src/stm32f7xx_hal_hcd.c ****     hhcd->hc[ch_num].state = HC_STALL;
1412:Drivers/STM32F7xx_HAL_Driver/Src/stm32f7xx_hal_hcd.c ****   }
1413:Drivers/STM32F7xx_HAL_Driver/Src/stm32f7xx_hal_hcd.c ****   else if ((USBx_HC(ch_num)->HCINT & USB_OTG_HCINT_NAK) == USB_OTG_HCINT_NAK)
1414:Drivers/STM32F7xx_HAL_Driver/Src/stm32f7xx_hal_hcd.c ****   {
1415:Drivers/STM32F7xx_HAL_Driver/Src/stm32f7xx_hal_hcd.c ****     hhcd->hc[ch_num].ErrCnt = 0U;
1416:Drivers/STM32F7xx_HAL_Driver/Src/stm32f7xx_hal_hcd.c ****     hhcd->hc[ch_num].state = HC_NAK;
1417:Drivers/STM32F7xx_HAL_Driver/Src/stm32f7xx_hal_hcd.c **** 
1418:Drivers/STM32F7xx_HAL_Driver/Src/stm32f7xx_hal_hcd.c ****     if (hhcd->hc[ch_num].do_ping == 0U)
1419:Drivers/STM32F7xx_HAL_Driver/Src/stm32f7xx_hal_hcd.c ****     {
1420:Drivers/STM32F7xx_HAL_Driver/Src/stm32f7xx_hal_hcd.c ****       if (hhcd->hc[ch_num].speed == HCD_SPEED_HIGH)
1421:Drivers/STM32F7xx_HAL_Driver/Src/stm32f7xx_hal_hcd.c ****       {
1422:Drivers/STM32F7xx_HAL_Driver/Src/stm32f7xx_hal_hcd.c ****         hhcd->hc[ch_num].do_ping = 1U;
1423:Drivers/STM32F7xx_HAL_Driver/Src/stm32f7xx_hal_hcd.c ****       }
1424:Drivers/STM32F7xx_HAL_Driver/Src/stm32f7xx_hal_hcd.c ****     }
1425:Drivers/STM32F7xx_HAL_Driver/Src/stm32f7xx_hal_hcd.c **** 
1426:Drivers/STM32F7xx_HAL_Driver/Src/stm32f7xx_hal_hcd.c ****     __HAL_HCD_UNMASK_HALT_HC_INT(ch_num);
1427:Drivers/STM32F7xx_HAL_Driver/Src/stm32f7xx_hal_hcd.c ****     (void)USB_HC_Halt(hhcd->Instance, (uint8_t)ch_num);
1428:Drivers/STM32F7xx_HAL_Driver/Src/stm32f7xx_hal_hcd.c ****     __HAL_HCD_CLEAR_HC_INT(ch_num, USB_OTG_HCINT_NAK);
1429:Drivers/STM32F7xx_HAL_Driver/Src/stm32f7xx_hal_hcd.c ****   }
1430:Drivers/STM32F7xx_HAL_Driver/Src/stm32f7xx_hal_hcd.c ****   else if ((USBx_HC(ch_num)->HCINT & USB_OTG_HCINT_TXERR) == USB_OTG_HCINT_TXERR)
1431:Drivers/STM32F7xx_HAL_Driver/Src/stm32f7xx_hal_hcd.c ****   {
1432:Drivers/STM32F7xx_HAL_Driver/Src/stm32f7xx_hal_hcd.c ****     __HAL_HCD_UNMASK_HALT_HC_INT(ch_num);
1433:Drivers/STM32F7xx_HAL_Driver/Src/stm32f7xx_hal_hcd.c ****     (void)USB_HC_Halt(hhcd->Instance, (uint8_t)ch_num);
1434:Drivers/STM32F7xx_HAL_Driver/Src/stm32f7xx_hal_hcd.c ****     hhcd->hc[ch_num].state = HC_XACTERR;
1435:Drivers/STM32F7xx_HAL_Driver/Src/stm32f7xx_hal_hcd.c ****     __HAL_HCD_CLEAR_HC_INT(ch_num, USB_OTG_HCINT_TXERR);
1436:Drivers/STM32F7xx_HAL_Driver/Src/stm32f7xx_hal_hcd.c ****   }
1437:Drivers/STM32F7xx_HAL_Driver/Src/stm32f7xx_hal_hcd.c ****   else if ((USBx_HC(ch_num)->HCINT & USB_OTG_HCINT_DTERR) == USB_OTG_HCINT_DTERR)
1438:Drivers/STM32F7xx_HAL_Driver/Src/stm32f7xx_hal_hcd.c ****   {
1439:Drivers/STM32F7xx_HAL_Driver/Src/stm32f7xx_hal_hcd.c ****     __HAL_HCD_UNMASK_HALT_HC_INT(ch_num);
1440:Drivers/STM32F7xx_HAL_Driver/Src/stm32f7xx_hal_hcd.c ****     (void)USB_HC_Halt(hhcd->Instance, (uint8_t)ch_num);
1441:Drivers/STM32F7xx_HAL_Driver/Src/stm32f7xx_hal_hcd.c ****     __HAL_HCD_CLEAR_HC_INT(ch_num, USB_OTG_HCINT_NAK);
1442:Drivers/STM32F7xx_HAL_Driver/Src/stm32f7xx_hal_hcd.c ****     __HAL_HCD_CLEAR_HC_INT(ch_num, USB_OTG_HCINT_DTERR);
1443:Drivers/STM32F7xx_HAL_Driver/Src/stm32f7xx_hal_hcd.c ****     hhcd->hc[ch_num].state = HC_DATATGLERR;
1444:Drivers/STM32F7xx_HAL_Driver/Src/stm32f7xx_hal_hcd.c ****   }
1445:Drivers/STM32F7xx_HAL_Driver/Src/stm32f7xx_hal_hcd.c ****   else if ((USBx_HC(ch_num)->HCINT & USB_OTG_HCINT_CHH) == USB_OTG_HCINT_CHH)
1446:Drivers/STM32F7xx_HAL_Driver/Src/stm32f7xx_hal_hcd.c ****   {
1447:Drivers/STM32F7xx_HAL_Driver/Src/stm32f7xx_hal_hcd.c ****     __HAL_HCD_MASK_HALT_HC_INT(ch_num);
1448:Drivers/STM32F7xx_HAL_Driver/Src/stm32f7xx_hal_hcd.c **** 
1449:Drivers/STM32F7xx_HAL_Driver/Src/stm32f7xx_hal_hcd.c ****     if (hhcd->hc[ch_num].state == HC_XFRC)
1450:Drivers/STM32F7xx_HAL_Driver/Src/stm32f7xx_hal_hcd.c ****     {
1451:Drivers/STM32F7xx_HAL_Driver/Src/stm32f7xx_hal_hcd.c ****       hhcd->hc[ch_num].urb_state  = URB_DONE;
1452:Drivers/STM32F7xx_HAL_Driver/Src/stm32f7xx_hal_hcd.c ****       if ((hhcd->hc[ch_num].ep_type == EP_TYPE_BULK) ||
1453:Drivers/STM32F7xx_HAL_Driver/Src/stm32f7xx_hal_hcd.c ****           (hhcd->hc[ch_num].ep_type == EP_TYPE_INTR))
1454:Drivers/STM32F7xx_HAL_Driver/Src/stm32f7xx_hal_hcd.c ****       {
1455:Drivers/STM32F7xx_HAL_Driver/Src/stm32f7xx_hal_hcd.c ****         hhcd->hc[ch_num].toggle_out ^= 1U;
1456:Drivers/STM32F7xx_HAL_Driver/Src/stm32f7xx_hal_hcd.c ****       }
1457:Drivers/STM32F7xx_HAL_Driver/Src/stm32f7xx_hal_hcd.c ****     }
ARM GAS  /tmp/ccqVt8hD.s 			page 27


1458:Drivers/STM32F7xx_HAL_Driver/Src/stm32f7xx_hal_hcd.c ****     else if (hhcd->hc[ch_num].state == HC_NAK)
1459:Drivers/STM32F7xx_HAL_Driver/Src/stm32f7xx_hal_hcd.c ****     {
1460:Drivers/STM32F7xx_HAL_Driver/Src/stm32f7xx_hal_hcd.c ****       hhcd->hc[ch_num].urb_state = URB_NOTREADY;
1461:Drivers/STM32F7xx_HAL_Driver/Src/stm32f7xx_hal_hcd.c ****     }
1462:Drivers/STM32F7xx_HAL_Driver/Src/stm32f7xx_hal_hcd.c ****     else if (hhcd->hc[ch_num].state == HC_NYET)
1463:Drivers/STM32F7xx_HAL_Driver/Src/stm32f7xx_hal_hcd.c ****     {
1464:Drivers/STM32F7xx_HAL_Driver/Src/stm32f7xx_hal_hcd.c ****       hhcd->hc[ch_num].urb_state  = URB_NOTREADY;
1465:Drivers/STM32F7xx_HAL_Driver/Src/stm32f7xx_hal_hcd.c ****     }
1466:Drivers/STM32F7xx_HAL_Driver/Src/stm32f7xx_hal_hcd.c ****     else if (hhcd->hc[ch_num].state == HC_STALL)
1467:Drivers/STM32F7xx_HAL_Driver/Src/stm32f7xx_hal_hcd.c ****     {
1468:Drivers/STM32F7xx_HAL_Driver/Src/stm32f7xx_hal_hcd.c ****       hhcd->hc[ch_num].urb_state  = URB_STALL;
1469:Drivers/STM32F7xx_HAL_Driver/Src/stm32f7xx_hal_hcd.c ****     }
1470:Drivers/STM32F7xx_HAL_Driver/Src/stm32f7xx_hal_hcd.c ****     else if ((hhcd->hc[ch_num].state == HC_XACTERR) ||
1471:Drivers/STM32F7xx_HAL_Driver/Src/stm32f7xx_hal_hcd.c ****              (hhcd->hc[ch_num].state == HC_DATATGLERR))
1472:Drivers/STM32F7xx_HAL_Driver/Src/stm32f7xx_hal_hcd.c ****     {
1473:Drivers/STM32F7xx_HAL_Driver/Src/stm32f7xx_hal_hcd.c ****       hhcd->hc[ch_num].ErrCnt++;
1474:Drivers/STM32F7xx_HAL_Driver/Src/stm32f7xx_hal_hcd.c ****       if (hhcd->hc[ch_num].ErrCnt > 3U)
1475:Drivers/STM32F7xx_HAL_Driver/Src/stm32f7xx_hal_hcd.c ****       {
1476:Drivers/STM32F7xx_HAL_Driver/Src/stm32f7xx_hal_hcd.c ****         hhcd->hc[ch_num].ErrCnt = 0U;
1477:Drivers/STM32F7xx_HAL_Driver/Src/stm32f7xx_hal_hcd.c ****         hhcd->hc[ch_num].urb_state = URB_ERROR;
1478:Drivers/STM32F7xx_HAL_Driver/Src/stm32f7xx_hal_hcd.c ****       }
1479:Drivers/STM32F7xx_HAL_Driver/Src/stm32f7xx_hal_hcd.c ****       else
1480:Drivers/STM32F7xx_HAL_Driver/Src/stm32f7xx_hal_hcd.c ****       {
1481:Drivers/STM32F7xx_HAL_Driver/Src/stm32f7xx_hal_hcd.c ****         hhcd->hc[ch_num].urb_state = URB_NOTREADY;
1482:Drivers/STM32F7xx_HAL_Driver/Src/stm32f7xx_hal_hcd.c ****       }
1483:Drivers/STM32F7xx_HAL_Driver/Src/stm32f7xx_hal_hcd.c **** 
1484:Drivers/STM32F7xx_HAL_Driver/Src/stm32f7xx_hal_hcd.c ****       /* re-activate the channel  */
1485:Drivers/STM32F7xx_HAL_Driver/Src/stm32f7xx_hal_hcd.c ****       tmpreg = USBx_HC(ch_num)->HCCHAR;
1486:Drivers/STM32F7xx_HAL_Driver/Src/stm32f7xx_hal_hcd.c ****       tmpreg &= ~USB_OTG_HCCHAR_CHDIS;
1487:Drivers/STM32F7xx_HAL_Driver/Src/stm32f7xx_hal_hcd.c ****       tmpreg |= USB_OTG_HCCHAR_CHENA;
1488:Drivers/STM32F7xx_HAL_Driver/Src/stm32f7xx_hal_hcd.c ****       USBx_HC(ch_num)->HCCHAR = tmpreg;
1489:Drivers/STM32F7xx_HAL_Driver/Src/stm32f7xx_hal_hcd.c ****     }
1490:Drivers/STM32F7xx_HAL_Driver/Src/stm32f7xx_hal_hcd.c ****     else
1491:Drivers/STM32F7xx_HAL_Driver/Src/stm32f7xx_hal_hcd.c ****     {
1492:Drivers/STM32F7xx_HAL_Driver/Src/stm32f7xx_hal_hcd.c ****       /* ... */
1493:Drivers/STM32F7xx_HAL_Driver/Src/stm32f7xx_hal_hcd.c ****     }
1494:Drivers/STM32F7xx_HAL_Driver/Src/stm32f7xx_hal_hcd.c **** 
1495:Drivers/STM32F7xx_HAL_Driver/Src/stm32f7xx_hal_hcd.c ****     __HAL_HCD_CLEAR_HC_INT(ch_num, USB_OTG_HCINT_CHH);
1496:Drivers/STM32F7xx_HAL_Driver/Src/stm32f7xx_hal_hcd.c ****     HAL_HCD_HC_NotifyURBChange_Callback(hhcd, (uint8_t)ch_num, hhcd->hc[ch_num].urb_state);
1497:Drivers/STM32F7xx_HAL_Driver/Src/stm32f7xx_hal_hcd.c ****   }
1498:Drivers/STM32F7xx_HAL_Driver/Src/stm32f7xx_hal_hcd.c ****   else
1499:Drivers/STM32F7xx_HAL_Driver/Src/stm32f7xx_hal_hcd.c ****   {
1500:Drivers/STM32F7xx_HAL_Driver/Src/stm32f7xx_hal_hcd.c ****     /* ... */
1501:Drivers/STM32F7xx_HAL_Driver/Src/stm32f7xx_hal_hcd.c ****   }
1502:Drivers/STM32F7xx_HAL_Driver/Src/stm32f7xx_hal_hcd.c **** }
1503:Drivers/STM32F7xx_HAL_Driver/Src/stm32f7xx_hal_hcd.c **** 
1504:Drivers/STM32F7xx_HAL_Driver/Src/stm32f7xx_hal_hcd.c **** /**
1505:Drivers/STM32F7xx_HAL_Driver/Src/stm32f7xx_hal_hcd.c ****   * @brief  Handle Rx Queue Level interrupt requests.
1506:Drivers/STM32F7xx_HAL_Driver/Src/stm32f7xx_hal_hcd.c ****   * @param  hhcd HCD handle
1507:Drivers/STM32F7xx_HAL_Driver/Src/stm32f7xx_hal_hcd.c ****   * @retval none
1508:Drivers/STM32F7xx_HAL_Driver/Src/stm32f7xx_hal_hcd.c ****   */
1509:Drivers/STM32F7xx_HAL_Driver/Src/stm32f7xx_hal_hcd.c **** static void HCD_RXQLVL_IRQHandler(HCD_HandleTypeDef *hhcd)
1510:Drivers/STM32F7xx_HAL_Driver/Src/stm32f7xx_hal_hcd.c **** {
  27              		.loc 1 1510 0
  28              		.cfi_startproc
  29              		@ args = 0, pretend = 0, frame = 0
  30              		@ frame_needed = 0, uses_anonymous_args = 0
ARM GAS  /tmp/ccqVt8hD.s 			page 28


  31              	.LVL0:
  32 0000 F8B5     		push	{r3, r4, r5, r6, r7, lr}
  33              	.LCFI0:
  34              		.cfi_def_cfa_offset 24
  35              		.cfi_offset 3, -24
  36              		.cfi_offset 4, -20
  37              		.cfi_offset 5, -16
  38              		.cfi_offset 6, -12
  39              		.cfi_offset 7, -8
  40              		.cfi_offset 14, -4
1511:Drivers/STM32F7xx_HAL_Driver/Src/stm32f7xx_hal_hcd.c ****   USB_OTG_GlobalTypeDef *USBx = hhcd->Instance;
  41              		.loc 1 1511 0
  42 0002 0668     		ldr	r6, [r0]
  43              	.LVL1:
1512:Drivers/STM32F7xx_HAL_Driver/Src/stm32f7xx_hal_hcd.c ****   uint32_t USBx_BASE = (uint32_t)USBx;
1513:Drivers/STM32F7xx_HAL_Driver/Src/stm32f7xx_hal_hcd.c ****   uint32_t pktsts;
1514:Drivers/STM32F7xx_HAL_Driver/Src/stm32f7xx_hal_hcd.c ****   uint32_t pktcnt;
1515:Drivers/STM32F7xx_HAL_Driver/Src/stm32f7xx_hal_hcd.c ****   uint32_t temp;
1516:Drivers/STM32F7xx_HAL_Driver/Src/stm32f7xx_hal_hcd.c ****   uint32_t tmpreg;
1517:Drivers/STM32F7xx_HAL_Driver/Src/stm32f7xx_hal_hcd.c ****   uint32_t ch_num;
1518:Drivers/STM32F7xx_HAL_Driver/Src/stm32f7xx_hal_hcd.c **** 
1519:Drivers/STM32F7xx_HAL_Driver/Src/stm32f7xx_hal_hcd.c ****   temp = hhcd->Instance->GRXSTSP;
  44              		.loc 1 1519 0
  45 0004 346A     		ldr	r4, [r6, #32]
  46              	.LVL2:
1520:Drivers/STM32F7xx_HAL_Driver/Src/stm32f7xx_hal_hcd.c ****   ch_num = temp & USB_OTG_GRXSTSP_EPNUM;
  47              		.loc 1 1520 0
  48 0006 04F00F07 		and	r7, r4, #15
  49              	.LVL3:
1521:Drivers/STM32F7xx_HAL_Driver/Src/stm32f7xx_hal_hcd.c ****   pktsts = (temp & USB_OTG_GRXSTSP_PKTSTS) >> 17;
  50              		.loc 1 1521 0
  51 000a C4F34343 		ubfx	r3, r4, #17, #4
  52              	.LVL4:
1522:Drivers/STM32F7xx_HAL_Driver/Src/stm32f7xx_hal_hcd.c ****   pktcnt = (temp & USB_OTG_GRXSTSP_BCNT) >> 4;
  53              		.loc 1 1522 0
  54 000e C4F30A14 		ubfx	r4, r4, #4, #11
  55              	.LVL5:
1523:Drivers/STM32F7xx_HAL_Driver/Src/stm32f7xx_hal_hcd.c **** 
1524:Drivers/STM32F7xx_HAL_Driver/Src/stm32f7xx_hal_hcd.c ****   switch (pktsts)
  56              		.loc 1 1524 0
  57 0012 022B     		cmp	r3, #2
  58 0014 2ED1     		bne	.L1
1525:Drivers/STM32F7xx_HAL_Driver/Src/stm32f7xx_hal_hcd.c ****   {
1526:Drivers/STM32F7xx_HAL_Driver/Src/stm32f7xx_hal_hcd.c ****     case GRXSTS_PKTSTS_IN:
1527:Drivers/STM32F7xx_HAL_Driver/Src/stm32f7xx_hal_hcd.c ****       /* Read the data into the host buffer. */
1528:Drivers/STM32F7xx_HAL_Driver/Src/stm32f7xx_hal_hcd.c ****       if ((pktcnt > 0U) && (hhcd->hc[ch_num].xfer_buff != (void *)0))
  59              		.loc 1 1528 0
  60 0016 6CB3     		cbz	r4, .L1
  61              		.loc 1 1528 0 is_stmt 0 discriminator 1
  62 0018 07EB8702 		add	r2, r7, r7, lsl #2
  63 001c D300     		lsls	r3, r2, #3
  64              	.LVL6:
  65 001e 0344     		add	r3, r3, r0
  66 0020 596C     		ldr	r1, [r3, #68]
  67 0022 39B3     		cbz	r1, .L1
  68 0024 0546     		mov	r5, r0
1529:Drivers/STM32F7xx_HAL_Driver/Src/stm32f7xx_hal_hcd.c ****       {
ARM GAS  /tmp/ccqVt8hD.s 			page 29


1530:Drivers/STM32F7xx_HAL_Driver/Src/stm32f7xx_hal_hcd.c ****         (void)USB_ReadPacket(hhcd->Instance, hhcd->hc[ch_num].xfer_buff, (uint16_t)pktcnt);
  69              		.loc 1 1530 0 is_stmt 1
  70 0026 2246     		mov	r2, r4
  71 0028 3046     		mov	r0, r6
  72              	.LVL7:
  73 002a FFF7FEFF 		bl	USB_ReadPacket
  74              	.LVL8:
1531:Drivers/STM32F7xx_HAL_Driver/Src/stm32f7xx_hal_hcd.c **** 
1532:Drivers/STM32F7xx_HAL_Driver/Src/stm32f7xx_hal_hcd.c ****         /*manage multiple Xfer */
1533:Drivers/STM32F7xx_HAL_Driver/Src/stm32f7xx_hal_hcd.c ****         hhcd->hc[ch_num].xfer_buff += pktcnt;
  75              		.loc 1 1533 0
  76 002e BA00     		lsls	r2, r7, #2
  77 0030 3A44     		add	r2, r2, r7
  78 0032 D300     		lsls	r3, r2, #3
  79 0034 2B44     		add	r3, r3, r5
  80 0036 5A6C     		ldr	r2, [r3, #68]
  81 0038 2244     		add	r2, r2, r4
  82 003a 5A64     		str	r2, [r3, #68]
1534:Drivers/STM32F7xx_HAL_Driver/Src/stm32f7xx_hal_hcd.c ****         hhcd->hc[ch_num].xfer_count  += pktcnt;
  83              		.loc 1 1534 0
  84 003c DA6C     		ldr	r2, [r3, #76]
  85 003e 2244     		add	r2, r2, r4
  86 0040 DA64     		str	r2, [r3, #76]
1535:Drivers/STM32F7xx_HAL_Driver/Src/stm32f7xx_hal_hcd.c **** 
1536:Drivers/STM32F7xx_HAL_Driver/Src/stm32f7xx_hal_hcd.c ****         if ((USBx_HC(ch_num)->HCTSIZ & USB_OTG_HCTSIZ_PKTCNT) > 0U)
  87              		.loc 1 1536 0
  88 0042 06EB4713 		add	r3, r6, r7, lsl #5
  89 0046 D3F81015 		ldr	r1, [r3, #1296]
  90 004a 0B4A     		ldr	r2, .L5
  91 004c 0A40     		ands	r2, r2, r1
  92 004e 8AB1     		cbz	r2, .L1
1537:Drivers/STM32F7xx_HAL_Driver/Src/stm32f7xx_hal_hcd.c ****         {
1538:Drivers/STM32F7xx_HAL_Driver/Src/stm32f7xx_hal_hcd.c ****           /* re-activate the channel when more packets are expected */
1539:Drivers/STM32F7xx_HAL_Driver/Src/stm32f7xx_hal_hcd.c ****           tmpreg = USBx_HC(ch_num)->HCCHAR;
  93              		.loc 1 1539 0
  94 0050 D3F80025 		ldr	r2, [r3, #1280]
  95              	.LVL9:
1540:Drivers/STM32F7xx_HAL_Driver/Src/stm32f7xx_hal_hcd.c ****           tmpreg &= ~USB_OTG_HCCHAR_CHDIS;
  96              		.loc 1 1540 0
  97 0054 22F08042 		bic	r2, r2, #1073741824
  98              	.LVL10:
1541:Drivers/STM32F7xx_HAL_Driver/Src/stm32f7xx_hal_hcd.c ****           tmpreg |= USB_OTG_HCCHAR_CHENA;
  99              		.loc 1 1541 0
 100 0058 42F00042 		orr	r2, r2, #-2147483648
 101              	.LVL11:
1542:Drivers/STM32F7xx_HAL_Driver/Src/stm32f7xx_hal_hcd.c ****           USBx_HC(ch_num)->HCCHAR = tmpreg;
 102              		.loc 1 1542 0
 103 005c C3F80025 		str	r2, [r3, #1280]
1543:Drivers/STM32F7xx_HAL_Driver/Src/stm32f7xx_hal_hcd.c ****           hhcd->hc[ch_num].toggle_in ^= 1U;
 104              		.loc 1 1543 0
 105 0060 BB00     		lsls	r3, r7, #2
 106 0062 D919     		adds	r1, r3, r7
 107 0064 CA00     		lsls	r2, r1, #3
 108              	.LVL12:
 109 0066 2A44     		add	r2, r2, r5
 110 0068 92F85030 		ldrb	r3, [r2, #80]	@ zero_extendqisi2
 111 006c 83F00103 		eor	r3, r3, #1
ARM GAS  /tmp/ccqVt8hD.s 			page 30


 112 0070 82F85030 		strb	r3, [r2, #80]
 113              	.LVL13:
 114              	.L1:
1544:Drivers/STM32F7xx_HAL_Driver/Src/stm32f7xx_hal_hcd.c ****         }
1545:Drivers/STM32F7xx_HAL_Driver/Src/stm32f7xx_hal_hcd.c ****       }
1546:Drivers/STM32F7xx_HAL_Driver/Src/stm32f7xx_hal_hcd.c ****       break;
1547:Drivers/STM32F7xx_HAL_Driver/Src/stm32f7xx_hal_hcd.c **** 
1548:Drivers/STM32F7xx_HAL_Driver/Src/stm32f7xx_hal_hcd.c ****     case GRXSTS_PKTSTS_DATA_TOGGLE_ERR:
1549:Drivers/STM32F7xx_HAL_Driver/Src/stm32f7xx_hal_hcd.c ****       break;
1550:Drivers/STM32F7xx_HAL_Driver/Src/stm32f7xx_hal_hcd.c **** 
1551:Drivers/STM32F7xx_HAL_Driver/Src/stm32f7xx_hal_hcd.c ****     case GRXSTS_PKTSTS_IN_XFER_COMP:
1552:Drivers/STM32F7xx_HAL_Driver/Src/stm32f7xx_hal_hcd.c ****     case GRXSTS_PKTSTS_CH_HALTED:
1553:Drivers/STM32F7xx_HAL_Driver/Src/stm32f7xx_hal_hcd.c ****     default:
1554:Drivers/STM32F7xx_HAL_Driver/Src/stm32f7xx_hal_hcd.c ****       break;
1555:Drivers/STM32F7xx_HAL_Driver/Src/stm32f7xx_hal_hcd.c ****   }
1556:Drivers/STM32F7xx_HAL_Driver/Src/stm32f7xx_hal_hcd.c **** }
 115              		.loc 1 1556 0
 116 0074 F8BD     		pop	{r3, r4, r5, r6, r7, pc}
 117              	.LVL14:
 118              	.L6:
 119 0076 00BF     		.align	2
 120              	.L5:
 121 0078 0000F81F 		.word	536346624
 122              		.cfi_endproc
 123              	.LFE166:
 125              		.section	.text.HAL_HCD_HC_Init,"ax",%progbits
 126              		.align	1
 127              		.global	HAL_HCD_HC_Init
 128              		.syntax unified
 129              		.thumb
 130              		.thumb_func
 131              		.fpu fpv5-sp-d16
 133              	HAL_HCD_HC_Init:
 134              	.LFB142:
 208:Drivers/STM32F7xx_HAL_Driver/Src/stm32f7xx_hal_hcd.c ****   HAL_StatusTypeDef status;
 135              		.loc 1 208 0
 136              		.cfi_startproc
 137              		@ args = 12, pretend = 0, frame = 0
 138              		@ frame_needed = 0, uses_anonymous_args = 0
 139              	.LVL15:
 140 0000 F0B5     		push	{r4, r5, r6, r7, lr}
 141              	.LCFI1:
 142              		.cfi_def_cfa_offset 20
 143              		.cfi_offset 4, -20
 144              		.cfi_offset 5, -16
 145              		.cfi_offset 6, -12
 146              		.cfi_offset 7, -8
 147              		.cfi_offset 14, -4
 148 0002 85B0     		sub	sp, sp, #20
 149              	.LCFI2:
 150              		.cfi_def_cfa_offset 40
 151 0004 9DF82850 		ldrb	r5, [sp, #40]	@ zero_extendqisi2
 152 0008 9DF82C60 		ldrb	r6, [sp, #44]	@ zero_extendqisi2
 153 000c BDF83070 		ldrh	r7, [sp, #48]
 211:Drivers/STM32F7xx_HAL_Driver/Src/stm32f7xx_hal_hcd.c ****   hhcd->hc[ch_num].do_ping = 0U;
 154              		.loc 1 211 0
 155 0010 90F8B842 		ldrb	r4, [r0, #696]	@ zero_extendqisi2
ARM GAS  /tmp/ccqVt8hD.s 			page 31


 156 0014 012C     		cmp	r4, #1
 157 0016 41D0     		beq	.L11
 211:Drivers/STM32F7xx_HAL_Driver/Src/stm32f7xx_hal_hcd.c ****   hhcd->hc[ch_num].do_ping = 0U;
 158              		.loc 1 211 0 is_stmt 0 discriminator 2
 159 0018 0124     		movs	r4, #1
 160 001a 80F8B842 		strb	r4, [r0, #696]
 212:Drivers/STM32F7xx_HAL_Driver/Src/stm32f7xx_hal_hcd.c ****   hhcd->hc[ch_num].dev_addr = dev_address;
 161              		.loc 1 212 0 is_stmt 1 discriminator 2
 162 001e 4FEA810C 		lsl	ip, r1, #2
 163 0022 8C44     		add	ip, ip, r1
 164 0024 4FEACC04 		lsl	r4, ip, #3
 165 0028 0444     		add	r4, r4, r0
 166 002a 4FF0000C 		mov	ip, #0
 167 002e 84F83DC0 		strb	ip, [r4, #61]
 213:Drivers/STM32F7xx_HAL_Driver/Src/stm32f7xx_hal_hcd.c ****   hhcd->hc[ch_num].max_packet = mps;
 168              		.loc 1 213 0 discriminator 2
 169 0032 84F83830 		strb	r3, [r4, #56]
 214:Drivers/STM32F7xx_HAL_Driver/Src/stm32f7xx_hal_hcd.c ****   hhcd->hc[ch_num].ch_num = ch_num;
 170              		.loc 1 214 0 discriminator 2
 171 0036 A4F84070 		strh	r7, [r4, #64]	@ movhi
 215:Drivers/STM32F7xx_HAL_Driver/Src/stm32f7xx_hal_hcd.c ****   hhcd->hc[ch_num].ep_type = ep_type;
 172              		.loc 1 215 0 discriminator 2
 173 003a 84F83910 		strb	r1, [r4, #57]
 216:Drivers/STM32F7xx_HAL_Driver/Src/stm32f7xx_hal_hcd.c ****   hhcd->hc[ch_num].ep_num = epnum & 0x7FU;
 174              		.loc 1 216 0 discriminator 2
 175 003e 84F83F60 		strb	r6, [r4, #63]
 217:Drivers/STM32F7xx_HAL_Driver/Src/stm32f7xx_hal_hcd.c **** 
 176              		.loc 1 217 0 discriminator 2
 177 0042 02F07F0C 		and	ip, r2, #127
 178 0046 84F83AC0 		strb	ip, [r4, #58]
 219:Drivers/STM32F7xx_HAL_Driver/Src/stm32f7xx_hal_hcd.c ****   {
 179              		.loc 1 219 0 discriminator 2
 180 004a 12F0800F 		tst	r2, #128
 181 004e 1BD1     		bne	.L13
 225:Drivers/STM32F7xx_HAL_Driver/Src/stm32f7xx_hal_hcd.c ****   }
 182              		.loc 1 225 0
 183 0050 01EB810C 		add	ip, r1, r1, lsl #2
 184 0054 4FEACC04 		lsl	r4, ip, #3
 185 0058 0444     		add	r4, r4, r0
 186 005a 4FF0000C 		mov	ip, #0
 187 005e 84F83BC0 		strb	ip, [r4, #59]
 188              	.L10:
 189 0062 0446     		mov	r4, r0
 228:Drivers/STM32F7xx_HAL_Driver/Src/stm32f7xx_hal_hcd.c **** 
 190              		.loc 1 228 0
 191 0064 01EB810C 		add	ip, r1, r1, lsl #2
 192 0068 4FEACC00 		lsl	r0, ip, #3
 193              	.LVL16:
 194 006c 2044     		add	r0, r0, r4
 195 006e 80F83C50 		strb	r5, [r0, #60]
 230:Drivers/STM32F7xx_HAL_Driver/Src/stm32f7xx_hal_hcd.c ****                         ch_num,
 196              		.loc 1 230 0
 197 0072 0297     		str	r7, [sp, #8]
 198 0074 0196     		str	r6, [sp, #4]
 199 0076 0095     		str	r5, [sp]
 200 0078 2068     		ldr	r0, [r4]
 201 007a FFF7FEFF 		bl	USB_HC_Init
ARM GAS  /tmp/ccqVt8hD.s 			page 32


 202              	.LVL17:
 237:Drivers/STM32F7xx_HAL_Driver/Src/stm32f7xx_hal_hcd.c **** 
 203              		.loc 1 237 0
 204 007e 0023     		movs	r3, #0
 205 0080 84F8B832 		strb	r3, [r4, #696]
 206              	.LVL18:
 207              	.L8:
 240:Drivers/STM32F7xx_HAL_Driver/Src/stm32f7xx_hal_hcd.c **** 
 208              		.loc 1 240 0
 209 0084 05B0     		add	sp, sp, #20
 210              	.LCFI3:
 211              		.cfi_remember_state
 212              		.cfi_def_cfa_offset 20
 213              		@ sp needed
 214 0086 F0BD     		pop	{r4, r5, r6, r7, pc}
 215              	.LVL19:
 216              	.L13:
 217              	.LCFI4:
 218              		.cfi_restore_state
 221:Drivers/STM32F7xx_HAL_Driver/Src/stm32f7xx_hal_hcd.c ****   }
 219              		.loc 1 221 0
 220 0088 01EB810C 		add	ip, r1, r1, lsl #2
 221 008c 4FEACC04 		lsl	r4, ip, #3
 222 0090 0444     		add	r4, r4, r0
 223 0092 4FF0010C 		mov	ip, #1
 224 0096 84F83BC0 		strb	ip, [r4, #59]
 225 009a E2E7     		b	.L10
 226              	.L11:
 211:Drivers/STM32F7xx_HAL_Driver/Src/stm32f7xx_hal_hcd.c ****   hhcd->hc[ch_num].do_ping = 0U;
 227              		.loc 1 211 0
 228 009c 0220     		movs	r0, #2
 229              	.LVL20:
 230 009e F1E7     		b	.L8
 231              		.cfi_endproc
 232              	.LFE142:
 234              		.section	.text.HAL_HCD_HC_Halt,"ax",%progbits
 235              		.align	1
 236              		.global	HAL_HCD_HC_Halt
 237              		.syntax unified
 238              		.thumb
 239              		.thumb_func
 240              		.fpu fpv5-sp-d16
 242              	HAL_HCD_HC_Halt:
 243              	.LFB143:
 250:Drivers/STM32F7xx_HAL_Driver/Src/stm32f7xx_hal_hcd.c ****   HAL_StatusTypeDef status = HAL_OK;
 244              		.loc 1 250 0
 245              		.cfi_startproc
 246              		@ args = 0, pretend = 0, frame = 0
 247              		@ frame_needed = 0, uses_anonymous_args = 0
 248              	.LVL21:
 253:Drivers/STM32F7xx_HAL_Driver/Src/stm32f7xx_hal_hcd.c ****   (void)USB_HC_Halt(hhcd->Instance, (uint8_t)ch_num);
 249              		.loc 1 253 0
 250 0000 90F8B832 		ldrb	r3, [r0, #696]	@ zero_extendqisi2
 251 0004 012B     		cmp	r3, #1
 252 0006 0BD0     		beq	.L16
 250:Drivers/STM32F7xx_HAL_Driver/Src/stm32f7xx_hal_hcd.c ****   HAL_StatusTypeDef status = HAL_OK;
 253              		.loc 1 250 0 discriminator 2
ARM GAS  /tmp/ccqVt8hD.s 			page 33


 254 0008 10B5     		push	{r4, lr}
 255              	.LCFI5:
 256              		.cfi_def_cfa_offset 8
 257              		.cfi_offset 4, -8
 258              		.cfi_offset 14, -4
 259 000a 0446     		mov	r4, r0
 253:Drivers/STM32F7xx_HAL_Driver/Src/stm32f7xx_hal_hcd.c ****   (void)USB_HC_Halt(hhcd->Instance, (uint8_t)ch_num);
 260              		.loc 1 253 0 discriminator 2
 261 000c 0123     		movs	r3, #1
 262 000e 80F8B832 		strb	r3, [r0, #696]
 254:Drivers/STM32F7xx_HAL_Driver/Src/stm32f7xx_hal_hcd.c ****   __HAL_UNLOCK(hhcd);
 263              		.loc 1 254 0 discriminator 2
 264 0012 0068     		ldr	r0, [r0]
 265              	.LVL22:
 266 0014 FFF7FEFF 		bl	USB_HC_Halt
 267              	.LVL23:
 255:Drivers/STM32F7xx_HAL_Driver/Src/stm32f7xx_hal_hcd.c **** 
 268              		.loc 1 255 0 discriminator 2
 269 0018 0020     		movs	r0, #0
 270 001a 84F8B802 		strb	r0, [r4, #696]
 258:Drivers/STM32F7xx_HAL_Driver/Src/stm32f7xx_hal_hcd.c **** 
 271              		.loc 1 258 0 discriminator 2
 272 001e 10BD     		pop	{r4, pc}
 273              	.LVL24:
 274              	.L16:
 275              	.LCFI6:
 276              		.cfi_def_cfa_offset 0
 277              		.cfi_restore 4
 278              		.cfi_restore 14
 253:Drivers/STM32F7xx_HAL_Driver/Src/stm32f7xx_hal_hcd.c ****   (void)USB_HC_Halt(hhcd->Instance, (uint8_t)ch_num);
 279              		.loc 1 253 0
 280 0020 0220     		movs	r0, #2
 281              	.LVL25:
 258:Drivers/STM32F7xx_HAL_Driver/Src/stm32f7xx_hal_hcd.c **** 
 282              		.loc 1 258 0
 283 0022 7047     		bx	lr
 284              		.cfi_endproc
 285              	.LFE143:
 287              		.section	.text.HAL_HCD_MspInit,"ax",%progbits
 288              		.align	1
 289              		.weak	HAL_HCD_MspInit
 290              		.syntax unified
 291              		.thumb
 292              		.thumb_func
 293              		.fpu fpv5-sp-d16
 295              	HAL_HCD_MspInit:
 296              	.LFB145:
 301:Drivers/STM32F7xx_HAL_Driver/Src/stm32f7xx_hal_hcd.c ****   /* Prevent unused argument(s) compilation warning */
 297              		.loc 1 301 0
 298              		.cfi_startproc
 299              		@ args = 0, pretend = 0, frame = 0
 300              		@ frame_needed = 0, uses_anonymous_args = 0
 301              		@ link register save eliminated.
 302              	.LVL26:
 308:Drivers/STM32F7xx_HAL_Driver/Src/stm32f7xx_hal_hcd.c **** 
 303              		.loc 1 308 0
 304 0000 7047     		bx	lr
ARM GAS  /tmp/ccqVt8hD.s 			page 34


 305              		.cfi_endproc
 306              	.LFE145:
 308              		.section	.text.HAL_HCD_Init,"ax",%progbits
 309              		.align	1
 310              		.global	HAL_HCD_Init
 311              		.syntax unified
 312              		.thumb
 313              		.thumb_func
 314              		.fpu fpv5-sp-d16
 316              	HAL_HCD_Init:
 317              	.LFB141:
 112:Drivers/STM32F7xx_HAL_Driver/Src/stm32f7xx_hal_hcd.c ****   USB_OTG_GlobalTypeDef *USBx;
 318              		.loc 1 112 0
 319              		.cfi_startproc
 320              		@ args = 0, pretend = 0, frame = 0
 321              		@ frame_needed = 0, uses_anonymous_args = 0
 322              	.LVL27:
 116:Drivers/STM32F7xx_HAL_Driver/Src/stm32f7xx_hal_hcd.c ****   {
 323              		.loc 1 116 0
 324 0000 0028     		cmp	r0, #0
 325 0002 45D0     		beq	.L26
 112:Drivers/STM32F7xx_HAL_Driver/Src/stm32f7xx_hal_hcd.c ****   USB_OTG_GlobalTypeDef *USBx;
 326              		.loc 1 112 0
 327 0004 F0B5     		push	{r4, r5, r6, r7, lr}
 328              	.LCFI7:
 329              		.cfi_def_cfa_offset 20
 330              		.cfi_offset 4, -20
 331              		.cfi_offset 5, -16
 332              		.cfi_offset 6, -12
 333              		.cfi_offset 7, -8
 334              		.cfi_offset 14, -4
 335 0006 8BB0     		sub	sp, sp, #44
 336              	.LCFI8:
 337              		.cfi_def_cfa_offset 64
 338 0008 0646     		mov	r6, r0
 124:Drivers/STM32F7xx_HAL_Driver/Src/stm32f7xx_hal_hcd.c **** 
 339              		.loc 1 124 0
 340 000a 0468     		ldr	r4, [r0]
 341              	.LVL28:
 126:Drivers/STM32F7xx_HAL_Driver/Src/stm32f7xx_hal_hcd.c ****   {
 342              		.loc 1 126 0
 343 000c 90F8B932 		ldrb	r3, [r0, #697]	@ zero_extendqisi2
 344 0010 002B     		cmp	r3, #0
 345 0012 38D0     		beq	.L31
 346              	.LVL29:
 347              	.L24:
 152:Drivers/STM32F7xx_HAL_Driver/Src/stm32f7xx_hal_hcd.c **** 
 348              		.loc 1 152 0
 349 0014 0323     		movs	r3, #3
 350 0016 86F8B932 		strb	r3, [r6, #697]
 155:Drivers/STM32F7xx_HAL_Driver/Src/stm32f7xx_hal_hcd.c ****   {
 351              		.loc 1 155 0
 352 001a E36B     		ldr	r3, [r4, #60]
 353 001c 13F4807F 		tst	r3, #256
 354 0020 01D1     		bne	.L25
 157:Drivers/STM32F7xx_HAL_Driver/Src/stm32f7xx_hal_hcd.c ****   }
 355              		.loc 1 157 0
ARM GAS  /tmp/ccqVt8hD.s 			page 35


 356 0022 0023     		movs	r3, #0
 357 0024 3361     		str	r3, [r6, #16]
 358              	.L25:
 161:Drivers/STM32F7xx_HAL_Driver/Src/stm32f7xx_hal_hcd.c **** 
 359              		.loc 1 161 0
 360 0026 3068     		ldr	r0, [r6]
 361 0028 FFF7FEFF 		bl	USB_DisableGlobalInt
 362              	.LVL30:
 164:Drivers/STM32F7xx_HAL_Driver/Src/stm32f7xx_hal_hcd.c **** 
 363              		.loc 1 164 0
 364 002c 3446     		mov	r4, r6
 365              	.LVL31:
 366 002e 54F810CB 		ldr	ip, [r4], #16
 367 0032 6D46     		mov	r5, sp
 368 0034 0FCC     		ldmia	r4!, {r0, r1, r2, r3}
 369 0036 0FC5     		stmia	r5!, {r0, r1, r2, r3}
 370 0038 0FCC     		ldmia	r4!, {r0, r1, r2, r3}
 371 003a 0FC5     		stmia	r5!, {r0, r1, r2, r3}
 372 003c 94E80300 		ldm	r4, {r0, r1}
 373 0040 85E80300 		stm	r5, {r0, r1}
 374 0044 371D     		adds	r7, r6, #4
 375 0046 97E80E00 		ldm	r7, {r1, r2, r3}
 376 004a 6046     		mov	r0, ip
 377 004c FFF7FEFF 		bl	USB_CoreInit
 378              	.LVL32:
 167:Drivers/STM32F7xx_HAL_Driver/Src/stm32f7xx_hal_hcd.c **** 
 379              		.loc 1 167 0
 380 0050 0121     		movs	r1, #1
 381 0052 3068     		ldr	r0, [r6]
 382 0054 FFF7FEFF 		bl	USB_SetCurrentMode
 383              	.LVL33:
 170:Drivers/STM32F7xx_HAL_Driver/Src/stm32f7xx_hal_hcd.c **** 
 384              		.loc 1 170 0
 385 0058 3446     		mov	r4, r6
 386 005a 54F810CB 		ldr	ip, [r4], #16
 387 005e 6D46     		mov	r5, sp
 388 0060 0FCC     		ldmia	r4!, {r0, r1, r2, r3}
 389 0062 0FC5     		stmia	r5!, {r0, r1, r2, r3}
 390 0064 0FCC     		ldmia	r4!, {r0, r1, r2, r3}
 391 0066 0FC5     		stmia	r5!, {r0, r1, r2, r3}
 392 0068 94E80300 		ldm	r4, {r0, r1}
 393 006c 85E80300 		stm	r5, {r0, r1}
 394 0070 97E80E00 		ldm	r7, {r1, r2, r3}
 395 0074 6046     		mov	r0, ip
 396 0076 FFF7FEFF 		bl	USB_HostInit
 397              	.LVL34:
 172:Drivers/STM32F7xx_HAL_Driver/Src/stm32f7xx_hal_hcd.c **** 
 398              		.loc 1 172 0
 399 007a 0123     		movs	r3, #1
 400 007c 86F8B932 		strb	r3, [r6, #697]
 174:Drivers/STM32F7xx_HAL_Driver/Src/stm32f7xx_hal_hcd.c **** }
 401              		.loc 1 174 0
 402 0080 0020     		movs	r0, #0
 175:Drivers/STM32F7xx_HAL_Driver/Src/stm32f7xx_hal_hcd.c **** 
 403              		.loc 1 175 0
 404 0082 0BB0     		add	sp, sp, #44
 405              	.LCFI9:
ARM GAS  /tmp/ccqVt8hD.s 			page 36


 406              		.cfi_remember_state
 407              		.cfi_def_cfa_offset 20
 408              		@ sp needed
 409 0084 F0BD     		pop	{r4, r5, r6, r7, pc}
 410              	.LVL35:
 411              	.L31:
 412              	.LCFI10:
 413              		.cfi_restore_state
 129:Drivers/STM32F7xx_HAL_Driver/Src/stm32f7xx_hal_hcd.c **** 
 414              		.loc 1 129 0
 415 0086 80F8B832 		strb	r3, [r0, #696]
 148:Drivers/STM32F7xx_HAL_Driver/Src/stm32f7xx_hal_hcd.c **** #endif /* (USE_HAL_HCD_REGISTER_CALLBACKS) */
 416              		.loc 1 148 0
 417 008a FFF7FEFF 		bl	HAL_HCD_MspInit
 418              	.LVL36:
 419 008e C1E7     		b	.L24
 420              	.LVL37:
 421              	.L26:
 422              	.LCFI11:
 423              		.cfi_def_cfa_offset 0
 424              		.cfi_restore 4
 425              		.cfi_restore 5
 426              		.cfi_restore 6
 427              		.cfi_restore 7
 428              		.cfi_restore 14
 118:Drivers/STM32F7xx_HAL_Driver/Src/stm32f7xx_hal_hcd.c ****   }
 429              		.loc 1 118 0
 430 0090 0120     		movs	r0, #1
 431              	.LVL38:
 175:Drivers/STM32F7xx_HAL_Driver/Src/stm32f7xx_hal_hcd.c **** 
 432              		.loc 1 175 0
 433 0092 7047     		bx	lr
 434              		.cfi_endproc
 435              	.LFE141:
 437              		.section	.text.HAL_HCD_MspDeInit,"ax",%progbits
 438              		.align	1
 439              		.weak	HAL_HCD_MspDeInit
 440              		.syntax unified
 441              		.thumb
 442              		.thumb_func
 443              		.fpu fpv5-sp-d16
 445              	HAL_HCD_MspDeInit:
 446              	.LFB146:
 316:Drivers/STM32F7xx_HAL_Driver/Src/stm32f7xx_hal_hcd.c ****   /* Prevent unused argument(s) compilation warning */
 447              		.loc 1 316 0
 448              		.cfi_startproc
 449              		@ args = 0, pretend = 0, frame = 0
 450              		@ frame_needed = 0, uses_anonymous_args = 0
 451              		@ link register save eliminated.
 452              	.LVL39:
 323:Drivers/STM32F7xx_HAL_Driver/Src/stm32f7xx_hal_hcd.c **** 
 453              		.loc 1 323 0
 454 0000 7047     		bx	lr
 455              		.cfi_endproc
 456              	.LFE146:
 458              		.section	.text.HAL_HCD_DeInit,"ax",%progbits
 459              		.align	1
ARM GAS  /tmp/ccqVt8hD.s 			page 37


 460              		.global	HAL_HCD_DeInit
 461              		.syntax unified
 462              		.thumb
 463              		.thumb_func
 464              		.fpu fpv5-sp-d16
 466              	HAL_HCD_DeInit:
 467              	.LFB144:
 266:Drivers/STM32F7xx_HAL_Driver/Src/stm32f7xx_hal_hcd.c ****   /* Check the HCD handle allocation */
 468              		.loc 1 266 0
 469              		.cfi_startproc
 470              		@ args = 0, pretend = 0, frame = 0
 471              		@ frame_needed = 0, uses_anonymous_args = 0
 472              	.LVL40:
 268:Drivers/STM32F7xx_HAL_Driver/Src/stm32f7xx_hal_hcd.c ****   {
 473              		.loc 1 268 0
 474 0000 68B1     		cbz	r0, .L35
 266:Drivers/STM32F7xx_HAL_Driver/Src/stm32f7xx_hal_hcd.c ****   /* Check the HCD handle allocation */
 475              		.loc 1 266 0
 476 0002 10B5     		push	{r4, lr}
 477              	.LCFI12:
 478              		.cfi_def_cfa_offset 8
 479              		.cfi_offset 4, -8
 480              		.cfi_offset 14, -4
 481 0004 0446     		mov	r4, r0
 273:Drivers/STM32F7xx_HAL_Driver/Src/stm32f7xx_hal_hcd.c **** 
 482              		.loc 1 273 0
 483 0006 0323     		movs	r3, #3
 484 0008 80F8B932 		strb	r3, [r0, #697]
 285:Drivers/STM32F7xx_HAL_Driver/Src/stm32f7xx_hal_hcd.c **** #endif /* USE_HAL_HCD_REGISTER_CALLBACKS */
 485              		.loc 1 285 0
 486 000c FFF7FEFF 		bl	HAL_HCD_MspDeInit
 487              	.LVL41:
 288:Drivers/STM32F7xx_HAL_Driver/Src/stm32f7xx_hal_hcd.c **** 
 488              		.loc 1 288 0
 489 0010 2068     		ldr	r0, [r4]
 490 0012 FFF7FEFF 		bl	USB_DisableGlobalInt
 491              	.LVL42:
 290:Drivers/STM32F7xx_HAL_Driver/Src/stm32f7xx_hal_hcd.c **** 
 492              		.loc 1 290 0
 493 0016 0020     		movs	r0, #0
 494 0018 84F8B902 		strb	r0, [r4, #697]
 293:Drivers/STM32F7xx_HAL_Driver/Src/stm32f7xx_hal_hcd.c **** 
 495              		.loc 1 293 0
 496 001c 10BD     		pop	{r4, pc}
 497              	.LVL43:
 498              	.L35:
 499              	.LCFI13:
 500              		.cfi_def_cfa_offset 0
 501              		.cfi_restore 4
 502              		.cfi_restore 14
 270:Drivers/STM32F7xx_HAL_Driver/Src/stm32f7xx_hal_hcd.c ****   }
 503              		.loc 1 270 0
 504 001e 0120     		movs	r0, #1
 505              	.LVL44:
 293:Drivers/STM32F7xx_HAL_Driver/Src/stm32f7xx_hal_hcd.c **** 
 506              		.loc 1 293 0
 507 0020 7047     		bx	lr
ARM GAS  /tmp/ccqVt8hD.s 			page 38


 508              		.cfi_endproc
 509              	.LFE144:
 511              		.section	.text.HAL_HCD_HC_SubmitRequest,"ax",%progbits
 512              		.align	1
 513              		.global	HAL_HCD_HC_SubmitRequest
 514              		.syntax unified
 515              		.thumb
 516              		.thumb_func
 517              		.fpu fpv5-sp-d16
 519              	HAL_HCD_HC_SubmitRequest:
 520              	.LFB147:
 375:Drivers/STM32F7xx_HAL_Driver/Src/stm32f7xx_hal_hcd.c ****   hhcd->hc[ch_num].ep_is_in = direction;
 521              		.loc 1 375 0
 522              		.cfi_startproc
 523              		@ args = 16, pretend = 0, frame = 0
 524              		@ frame_needed = 0, uses_anonymous_args = 0
 525              	.LVL45:
 526 0000 F8B5     		push	{r3, r4, r5, r6, r7, lr}
 527              	.LCFI14:
 528              		.cfi_def_cfa_offset 24
 529              		.cfi_offset 3, -24
 530              		.cfi_offset 4, -20
 531              		.cfi_offset 5, -16
 532              		.cfi_offset 6, -12
 533              		.cfi_offset 7, -8
 534              		.cfi_offset 14, -4
 535 0002 9DF81870 		ldrb	r7, [sp, #24]	@ zero_extendqisi2
 536 0006 BDF82060 		ldrh	r6, [sp, #32]
 376:Drivers/STM32F7xx_HAL_Driver/Src/stm32f7xx_hal_hcd.c ****   hhcd->hc[ch_num].ep_type  = ep_type;
 537              		.loc 1 376 0
 538 000a 8D00     		lsls	r5, r1, #2
 539 000c 0D44     		add	r5, r5, r1
 540 000e EC00     		lsls	r4, r5, #3
 541 0010 0444     		add	r4, r4, r0
 542 0012 84F83B20 		strb	r2, [r4, #59]
 377:Drivers/STM32F7xx_HAL_Driver/Src/stm32f7xx_hal_hcd.c **** 
 543              		.loc 1 377 0
 544 0016 84F83F30 		strb	r3, [r4, #63]
 379:Drivers/STM32F7xx_HAL_Driver/Src/stm32f7xx_hal_hcd.c ****   {
 545              		.loc 1 379 0
 546 001a 8FB9     		cbnz	r7, .L41
 381:Drivers/STM32F7xx_HAL_Driver/Src/stm32f7xx_hal_hcd.c ****     hhcd->hc[ch_num].do_ping = do_ping;
 547              		.loc 1 381 0
 548 001c 8D00     		lsls	r5, r1, #2
 549 001e 0D44     		add	r5, r5, r1
 550 0020 EC00     		lsls	r4, r5, #3
 551 0022 0444     		add	r4, r4, r0
 552 0024 0325     		movs	r5, #3
 553 0026 84F84250 		strb	r5, [r4, #66]
 382:Drivers/STM32F7xx_HAL_Driver/Src/stm32f7xx_hal_hcd.c ****   }
 554              		.loc 1 382 0
 555 002a 9DF82450 		ldrb	r5, [sp, #36]	@ zero_extendqisi2
 556 002e 84F83D50 		strb	r5, [r4, #61]
 557              	.L42:
 390:Drivers/STM32F7xx_HAL_Driver/Src/stm32f7xx_hal_hcd.c ****   {
 558              		.loc 1 390 0
 559 0032 032B     		cmp	r3, #3
ARM GAS  /tmp/ccqVt8hD.s 			page 39


 560 0034 00F29580 		bhi	.L43
 561 0038 DFE803F0 		tbb	[pc, r3]
 562              	.L45:
 563 003c 0A       		.byte	(.L44-.L45)/2
 564 003d 8C       		.byte	(.L46-.L45)/2
 565 003e 2E       		.byte	(.L47-.L45)/2
 566 003f 5D       		.byte	(.L48-.L45)/2
 567              		.p2align 1
 568              	.L41:
 386:Drivers/STM32F7xx_HAL_Driver/Src/stm32f7xx_hal_hcd.c ****   }
 569              		.loc 1 386 0
 570 0040 01EB8105 		add	r5, r1, r1, lsl #2
 571 0044 EC00     		lsls	r4, r5, #3
 572 0046 0444     		add	r4, r4, r0
 573 0048 0225     		movs	r5, #2
 574 004a 84F84250 		strb	r5, [r4, #66]
 575 004e F0E7     		b	.L42
 576              	.L44:
 393:Drivers/STM32F7xx_HAL_Driver/Src/stm32f7xx_hal_hcd.c ****       {
 577              		.loc 1 393 0
 578 0050 012F     		cmp	r7, #1
 579 0052 08BF     		it	eq
 580 0054 002A     		cmpeq	r2, #0
 581 0056 40F08480 		bne	.L43
 395:Drivers/STM32F7xx_HAL_Driver/Src/stm32f7xx_hal_hcd.c ****         {
 582              		.loc 1 395 0
 583 005a 36B9     		cbnz	r6, .L49
 398:Drivers/STM32F7xx_HAL_Driver/Src/stm32f7xx_hal_hcd.c ****         }
 584              		.loc 1 398 0
 585 005c 01EB8102 		add	r2, r1, r1, lsl #2
 586              	.LVL46:
 587 0060 D300     		lsls	r3, r2, #3
 588              	.LVL47:
 589 0062 0344     		add	r3, r3, r0
 590 0064 0122     		movs	r2, #1
 591 0066 83F85120 		strb	r2, [r3, #81]
 592              	.L49:
 402:Drivers/STM32F7xx_HAL_Driver/Src/stm32f7xx_hal_hcd.c ****         {
 593              		.loc 1 402 0
 594 006a 01EB8102 		add	r2, r1, r1, lsl #2
 595 006e D300     		lsls	r3, r2, #3
 596 0070 0344     		add	r3, r3, r0
 597 0072 93F85130 		ldrb	r3, [r3, #81]	@ zero_extendqisi2
 598 0076 3BB9     		cbnz	r3, .L50
 405:Drivers/STM32F7xx_HAL_Driver/Src/stm32f7xx_hal_hcd.c ****         }
 599              		.loc 1 405 0
 600 0078 01EB8102 		add	r2, r1, r1, lsl #2
 601 007c D300     		lsls	r3, r2, #3
 602 007e 0344     		add	r3, r3, r0
 603 0080 0022     		movs	r2, #0
 604 0082 83F84220 		strb	r2, [r3, #66]
 605 0086 6CE0     		b	.L43
 606              	.L50:
 410:Drivers/STM32F7xx_HAL_Driver/Src/stm32f7xx_hal_hcd.c ****         }
 607              		.loc 1 410 0
 608 0088 01EB8102 		add	r2, r1, r1, lsl #2
 609 008c D300     		lsls	r3, r2, #3
ARM GAS  /tmp/ccqVt8hD.s 			page 40


 610 008e 0344     		add	r3, r3, r0
 611 0090 0222     		movs	r2, #2
 612 0092 83F84220 		strb	r2, [r3, #66]
 613 0096 64E0     		b	.L43
 614              	.LVL48:
 615              	.L47:
 416:Drivers/STM32F7xx_HAL_Driver/Src/stm32f7xx_hal_hcd.c ****       {
 616              		.loc 1 416 0
 617 0098 B2B9     		cbnz	r2, .L51
 419:Drivers/STM32F7xx_HAL_Driver/Src/stm32f7xx_hal_hcd.c ****         {
 618              		.loc 1 419 0
 619 009a 01EB8102 		add	r2, r1, r1, lsl #2
 620              	.LVL49:
 621 009e D300     		lsls	r3, r2, #3
 622              	.LVL50:
 623 00a0 0344     		add	r3, r3, r0
 624 00a2 93F85130 		ldrb	r3, [r3, #81]	@ zero_extendqisi2
 625 00a6 3BB9     		cbnz	r3, .L52
 422:Drivers/STM32F7xx_HAL_Driver/Src/stm32f7xx_hal_hcd.c ****         }
 626              		.loc 1 422 0
 627 00a8 01EB8102 		add	r2, r1, r1, lsl #2
 628 00ac D300     		lsls	r3, r2, #3
 629 00ae 0344     		add	r3, r3, r0
 630 00b0 0022     		movs	r2, #0
 631 00b2 83F84220 		strb	r2, [r3, #66]
 632 00b6 54E0     		b	.L43
 633              	.L52:
 427:Drivers/STM32F7xx_HAL_Driver/Src/stm32f7xx_hal_hcd.c ****         }
 634              		.loc 1 427 0
 635 00b8 01EB8102 		add	r2, r1, r1, lsl #2
 636 00bc D300     		lsls	r3, r2, #3
 637 00be 0344     		add	r3, r3, r0
 638 00c0 0222     		movs	r2, #2
 639 00c2 83F84220 		strb	r2, [r3, #66]
 640 00c6 4CE0     		b	.L43
 641              	.LVL51:
 642              	.L51:
 432:Drivers/STM32F7xx_HAL_Driver/Src/stm32f7xx_hal_hcd.c ****         {
 643              		.loc 1 432 0
 644 00c8 01EB8102 		add	r2, r1, r1, lsl #2
 645              	.LVL52:
 646 00cc D300     		lsls	r3, r2, #3
 647              	.LVL53:
 648 00ce 0344     		add	r3, r3, r0
 649 00d0 93F85030 		ldrb	r3, [r3, #80]	@ zero_extendqisi2
 650 00d4 3BB9     		cbnz	r3, .L53
 434:Drivers/STM32F7xx_HAL_Driver/Src/stm32f7xx_hal_hcd.c ****         }
 651              		.loc 1 434 0
 652 00d6 01EB8102 		add	r2, r1, r1, lsl #2
 653 00da D300     		lsls	r3, r2, #3
 654 00dc 0344     		add	r3, r3, r0
 655 00de 0022     		movs	r2, #0
 656 00e0 83F84220 		strb	r2, [r3, #66]
 657 00e4 3DE0     		b	.L43
 658              	.L53:
 438:Drivers/STM32F7xx_HAL_Driver/Src/stm32f7xx_hal_hcd.c ****         }
 659              		.loc 1 438 0
ARM GAS  /tmp/ccqVt8hD.s 			page 41


 660 00e6 01EB8102 		add	r2, r1, r1, lsl #2
 661 00ea D300     		lsls	r3, r2, #3
 662 00ec 0344     		add	r3, r3, r0
 663 00ee 0222     		movs	r2, #2
 664 00f0 83F84220 		strb	r2, [r3, #66]
 665 00f4 35E0     		b	.L43
 666              	.LVL54:
 667              	.L48:
 444:Drivers/STM32F7xx_HAL_Driver/Src/stm32f7xx_hal_hcd.c ****       {
 668              		.loc 1 444 0
 669 00f6 B2B9     		cbnz	r2, .L54
 447:Drivers/STM32F7xx_HAL_Driver/Src/stm32f7xx_hal_hcd.c ****         {
 670              		.loc 1 447 0
 671 00f8 01EB8102 		add	r2, r1, r1, lsl #2
 672              	.LVL55:
 673 00fc D300     		lsls	r3, r2, #3
 674              	.LVL56:
 675 00fe 0344     		add	r3, r3, r0
 676 0100 93F85130 		ldrb	r3, [r3, #81]	@ zero_extendqisi2
 677 0104 3BB9     		cbnz	r3, .L55
 450:Drivers/STM32F7xx_HAL_Driver/Src/stm32f7xx_hal_hcd.c ****         }
 678              		.loc 1 450 0
 679 0106 01EB8102 		add	r2, r1, r1, lsl #2
 680 010a D300     		lsls	r3, r2, #3
 681 010c 0344     		add	r3, r3, r0
 682 010e 0022     		movs	r2, #0
 683 0110 83F84220 		strb	r2, [r3, #66]
 684 0114 25E0     		b	.L43
 685              	.L55:
 455:Drivers/STM32F7xx_HAL_Driver/Src/stm32f7xx_hal_hcd.c ****         }
 686              		.loc 1 455 0
 687 0116 01EB8102 		add	r2, r1, r1, lsl #2
 688 011a D300     		lsls	r3, r2, #3
 689 011c 0344     		add	r3, r3, r0
 690 011e 0222     		movs	r2, #2
 691 0120 83F84220 		strb	r2, [r3, #66]
 692 0124 1DE0     		b	.L43
 693              	.LVL57:
 694              	.L54:
 460:Drivers/STM32F7xx_HAL_Driver/Src/stm32f7xx_hal_hcd.c ****         {
 695              		.loc 1 460 0
 696 0126 01EB8102 		add	r2, r1, r1, lsl #2
 697              	.LVL58:
 698 012a D300     		lsls	r3, r2, #3
 699              	.LVL59:
 700 012c 0344     		add	r3, r3, r0
 701 012e 93F85030 		ldrb	r3, [r3, #80]	@ zero_extendqisi2
 702 0132 3BB9     		cbnz	r3, .L56
 462:Drivers/STM32F7xx_HAL_Driver/Src/stm32f7xx_hal_hcd.c ****         }
 703              		.loc 1 462 0
 704 0134 01EB8102 		add	r2, r1, r1, lsl #2
 705 0138 D300     		lsls	r3, r2, #3
 706 013a 0344     		add	r3, r3, r0
 707 013c 0022     		movs	r2, #0
 708 013e 83F84220 		strb	r2, [r3, #66]
 709 0142 0EE0     		b	.L43
 710              	.L56:
ARM GAS  /tmp/ccqVt8hD.s 			page 42


 466:Drivers/STM32F7xx_HAL_Driver/Src/stm32f7xx_hal_hcd.c ****         }
 711              		.loc 1 466 0
 712 0144 01EB8102 		add	r2, r1, r1, lsl #2
 713 0148 D300     		lsls	r3, r2, #3
 714 014a 0344     		add	r3, r3, r0
 715 014c 0222     		movs	r2, #2
 716 014e 83F84220 		strb	r2, [r3, #66]
 717 0152 06E0     		b	.L43
 718              	.LVL60:
 719              	.L46:
 472:Drivers/STM32F7xx_HAL_Driver/Src/stm32f7xx_hal_hcd.c ****       break;
 720              		.loc 1 472 0
 721 0154 01EB8102 		add	r2, r1, r1, lsl #2
 722              	.LVL61:
 723 0158 D300     		lsls	r3, r2, #3
 724              	.LVL62:
 725 015a 0344     		add	r3, r3, r0
 726 015c 0022     		movs	r2, #0
 727 015e 83F84220 		strb	r2, [r3, #66]
 728              	.L43:
 479:Drivers/STM32F7xx_HAL_Driver/Src/stm32f7xx_hal_hcd.c ****   hhcd->hc[ch_num].xfer_len  = length;
 729              		.loc 1 479 0
 730 0162 8A00     		lsls	r2, r1, #2
 731 0164 5418     		adds	r4, r2, r1
 732 0166 E300     		lsls	r3, r4, #3
 733 0168 0344     		add	r3, r3, r0
 734 016a 079C     		ldr	r4, [sp, #28]
 735 016c 5C64     		str	r4, [r3, #68]
 480:Drivers/STM32F7xx_HAL_Driver/Src/stm32f7xx_hal_hcd.c ****   hhcd->hc[ch_num].urb_state = URB_IDLE;
 736              		.loc 1 480 0
 737 016e 9E64     		str	r6, [r3, #72]
 481:Drivers/STM32F7xx_HAL_Driver/Src/stm32f7xx_hal_hcd.c ****   hhcd->hc[ch_num].xfer_count = 0U;
 738              		.loc 1 481 0
 739 0170 0024     		movs	r4, #0
 740 0172 83F85C40 		strb	r4, [r3, #92]
 482:Drivers/STM32F7xx_HAL_Driver/Src/stm32f7xx_hal_hcd.c ****   hhcd->hc[ch_num].ch_num = ch_num;
 741              		.loc 1 482 0
 742 0176 DC64     		str	r4, [r3, #76]
 483:Drivers/STM32F7xx_HAL_Driver/Src/stm32f7xx_hal_hcd.c ****   hhcd->hc[ch_num].state = HC_IDLE;
 743              		.loc 1 483 0
 744 0178 83F83910 		strb	r1, [r3, #57]
 484:Drivers/STM32F7xx_HAL_Driver/Src/stm32f7xx_hal_hcd.c **** 
 745              		.loc 1 484 0
 746 017c 83F85D40 		strb	r4, [r3, #93]
 486:Drivers/STM32F7xx_HAL_Driver/Src/stm32f7xx_hal_hcd.c **** }
 747              		.loc 1 486 0
 748 0180 1144     		add	r1, r1, r2
 749              	.LVL63:
 750 0182 CB00     		lsls	r3, r1, #3
 751              	.LVL64:
 752 0184 03F13801 		add	r1, r3, #56
 753 0188 027C     		ldrb	r2, [r0, #16]	@ zero_extendqisi2
 754 018a 0144     		add	r1, r1, r0
 755 018c 0068     		ldr	r0, [r0]
 756              	.LVL65:
 757 018e FFF7FEFF 		bl	USB_HC_StartXfer
 758              	.LVL66:
ARM GAS  /tmp/ccqVt8hD.s 			page 43


 487:Drivers/STM32F7xx_HAL_Driver/Src/stm32f7xx_hal_hcd.c **** 
 759              		.loc 1 487 0
 760 0192 F8BD     		pop	{r3, r4, r5, r6, r7, pc}
 761              		.cfi_endproc
 762              	.LFE147:
 764              		.section	.text.HAL_HCD_SOF_Callback,"ax",%progbits
 765              		.align	1
 766              		.weak	HAL_HCD_SOF_Callback
 767              		.syntax unified
 768              		.thumb
 769              		.thumb_func
 770              		.fpu fpv5-sp-d16
 772              	HAL_HCD_SOF_Callback:
 773              	.LFB149:
 608:Drivers/STM32F7xx_HAL_Driver/Src/stm32f7xx_hal_hcd.c ****   /* Prevent unused argument(s) compilation warning */
 774              		.loc 1 608 0
 775              		.cfi_startproc
 776              		@ args = 0, pretend = 0, frame = 0
 777              		@ frame_needed = 0, uses_anonymous_args = 0
 778              		@ link register save eliminated.
 779              	.LVL67:
 615:Drivers/STM32F7xx_HAL_Driver/Src/stm32f7xx_hal_hcd.c **** 
 780              		.loc 1 615 0
 781 0000 7047     		bx	lr
 782              		.cfi_endproc
 783              	.LFE149:
 785              		.section	.text.HAL_HCD_Connect_Callback,"ax",%progbits
 786              		.align	1
 787              		.weak	HAL_HCD_Connect_Callback
 788              		.syntax unified
 789              		.thumb
 790              		.thumb_func
 791              		.fpu fpv5-sp-d16
 793              	HAL_HCD_Connect_Callback:
 794              	.LFB150:
 623:Drivers/STM32F7xx_HAL_Driver/Src/stm32f7xx_hal_hcd.c ****   /* Prevent unused argument(s) compilation warning */
 795              		.loc 1 623 0
 796              		.cfi_startproc
 797              		@ args = 0, pretend = 0, frame = 0
 798              		@ frame_needed = 0, uses_anonymous_args = 0
 799              		@ link register save eliminated.
 800              	.LVL68:
 630:Drivers/STM32F7xx_HAL_Driver/Src/stm32f7xx_hal_hcd.c **** 
 801              		.loc 1 630 0
 802 0000 7047     		bx	lr
 803              		.cfi_endproc
 804              	.LFE150:
 806              		.section	.text.HAL_HCD_Disconnect_Callback,"ax",%progbits
 807              		.align	1
 808              		.weak	HAL_HCD_Disconnect_Callback
 809              		.syntax unified
 810              		.thumb
 811              		.thumb_func
 812              		.fpu fpv5-sp-d16
 814              	HAL_HCD_Disconnect_Callback:
 815              	.LFB151:
 638:Drivers/STM32F7xx_HAL_Driver/Src/stm32f7xx_hal_hcd.c ****   /* Prevent unused argument(s) compilation warning */
ARM GAS  /tmp/ccqVt8hD.s 			page 44


 816              		.loc 1 638 0
 817              		.cfi_startproc
 818              		@ args = 0, pretend = 0, frame = 0
 819              		@ frame_needed = 0, uses_anonymous_args = 0
 820              		@ link register save eliminated.
 821              	.LVL69:
 645:Drivers/STM32F7xx_HAL_Driver/Src/stm32f7xx_hal_hcd.c **** 
 822              		.loc 1 645 0
 823 0000 7047     		bx	lr
 824              		.cfi_endproc
 825              	.LFE151:
 827              		.section	.text.HAL_HCD_PortEnabled_Callback,"ax",%progbits
 828              		.align	1
 829              		.weak	HAL_HCD_PortEnabled_Callback
 830              		.syntax unified
 831              		.thumb
 832              		.thumb_func
 833              		.fpu fpv5-sp-d16
 835              	HAL_HCD_PortEnabled_Callback:
 836              	.LFB152:
 653:Drivers/STM32F7xx_HAL_Driver/Src/stm32f7xx_hal_hcd.c ****   /* Prevent unused argument(s) compilation warning */
 837              		.loc 1 653 0
 838              		.cfi_startproc
 839              		@ args = 0, pretend = 0, frame = 0
 840              		@ frame_needed = 0, uses_anonymous_args = 0
 841              		@ link register save eliminated.
 842              	.LVL70:
 660:Drivers/STM32F7xx_HAL_Driver/Src/stm32f7xx_hal_hcd.c **** 
 843              		.loc 1 660 0
 844 0000 7047     		bx	lr
 845              		.cfi_endproc
 846              	.LFE152:
 848              		.section	.text.HAL_HCD_PortDisabled_Callback,"ax",%progbits
 849              		.align	1
 850              		.weak	HAL_HCD_PortDisabled_Callback
 851              		.syntax unified
 852              		.thumb
 853              		.thumb_func
 854              		.fpu fpv5-sp-d16
 856              	HAL_HCD_PortDisabled_Callback:
 857              	.LFB153:
 668:Drivers/STM32F7xx_HAL_Driver/Src/stm32f7xx_hal_hcd.c ****   /* Prevent unused argument(s) compilation warning */
 858              		.loc 1 668 0
 859              		.cfi_startproc
 860              		@ args = 0, pretend = 0, frame = 0
 861              		@ frame_needed = 0, uses_anonymous_args = 0
 862              		@ link register save eliminated.
 863              	.LVL71:
 675:Drivers/STM32F7xx_HAL_Driver/Src/stm32f7xx_hal_hcd.c **** 
 864              		.loc 1 675 0
 865 0000 7047     		bx	lr
 866              		.cfi_endproc
 867              	.LFE153:
 869              		.section	.text.HCD_Port_IRQHandler,"ax",%progbits
 870              		.align	1
 871              		.syntax unified
 872              		.thumb
ARM GAS  /tmp/ccqVt8hD.s 			page 45


 873              		.thumb_func
 874              		.fpu fpv5-sp-d16
 876              	HCD_Port_IRQHandler:
 877              	.LFB167:
1557:Drivers/STM32F7xx_HAL_Driver/Src/stm32f7xx_hal_hcd.c **** 
1558:Drivers/STM32F7xx_HAL_Driver/Src/stm32f7xx_hal_hcd.c **** /**
1559:Drivers/STM32F7xx_HAL_Driver/Src/stm32f7xx_hal_hcd.c ****   * @brief  Handle Host Port interrupt requests.
1560:Drivers/STM32F7xx_HAL_Driver/Src/stm32f7xx_hal_hcd.c ****   * @param  hhcd HCD handle
1561:Drivers/STM32F7xx_HAL_Driver/Src/stm32f7xx_hal_hcd.c ****   * @retval None
1562:Drivers/STM32F7xx_HAL_Driver/Src/stm32f7xx_hal_hcd.c ****   */
1563:Drivers/STM32F7xx_HAL_Driver/Src/stm32f7xx_hal_hcd.c **** static void HCD_Port_IRQHandler(HCD_HandleTypeDef *hhcd)
1564:Drivers/STM32F7xx_HAL_Driver/Src/stm32f7xx_hal_hcd.c **** {
 878              		.loc 1 1564 0
 879              		.cfi_startproc
 880              		@ args = 0, pretend = 0, frame = 8
 881              		@ frame_needed = 0, uses_anonymous_args = 0
 882              	.LVL72:
 883 0000 30B5     		push	{r4, r5, lr}
 884              	.LCFI15:
 885              		.cfi_def_cfa_offset 12
 886              		.cfi_offset 4, -12
 887              		.cfi_offset 5, -8
 888              		.cfi_offset 14, -4
 889 0002 83B0     		sub	sp, sp, #12
 890              	.LCFI16:
 891              		.cfi_def_cfa_offset 24
 892 0004 0546     		mov	r5, r0
1565:Drivers/STM32F7xx_HAL_Driver/Src/stm32f7xx_hal_hcd.c ****   USB_OTG_GlobalTypeDef *USBx = hhcd->Instance;
 893              		.loc 1 1565 0
 894 0006 0468     		ldr	r4, [r0]
 895              	.LVL73:
1566:Drivers/STM32F7xx_HAL_Driver/Src/stm32f7xx_hal_hcd.c ****   uint32_t USBx_BASE = (uint32_t)USBx;
1567:Drivers/STM32F7xx_HAL_Driver/Src/stm32f7xx_hal_hcd.c ****   __IO uint32_t hprt0, hprt0_dup;
1568:Drivers/STM32F7xx_HAL_Driver/Src/stm32f7xx_hal_hcd.c **** 
1569:Drivers/STM32F7xx_HAL_Driver/Src/stm32f7xx_hal_hcd.c ****   /* Handle Host Port Interrupts */
1570:Drivers/STM32F7xx_HAL_Driver/Src/stm32f7xx_hal_hcd.c ****   hprt0 = USBx_HPRT0;
 896              		.loc 1 1570 0
 897 0008 D4F84034 		ldr	r3, [r4, #1088]
 898 000c 0193     		str	r3, [sp, #4]
1571:Drivers/STM32F7xx_HAL_Driver/Src/stm32f7xx_hal_hcd.c ****   hprt0_dup = USBx_HPRT0;
 899              		.loc 1 1571 0
 900 000e D4F84034 		ldr	r3, [r4, #1088]
 901 0012 0093     		str	r3, [sp]
1572:Drivers/STM32F7xx_HAL_Driver/Src/stm32f7xx_hal_hcd.c **** 
1573:Drivers/STM32F7xx_HAL_Driver/Src/stm32f7xx_hal_hcd.c ****   hprt0_dup &= ~(USB_OTG_HPRT_PENA | USB_OTG_HPRT_PCDET | \
 902              		.loc 1 1573 0
 903 0014 009B     		ldr	r3, [sp]
 904 0016 23F02E03 		bic	r3, r3, #46
 905 001a 0093     		str	r3, [sp]
1574:Drivers/STM32F7xx_HAL_Driver/Src/stm32f7xx_hal_hcd.c ****                  USB_OTG_HPRT_PENCHNG | USB_OTG_HPRT_POCCHNG);
1575:Drivers/STM32F7xx_HAL_Driver/Src/stm32f7xx_hal_hcd.c **** 
1576:Drivers/STM32F7xx_HAL_Driver/Src/stm32f7xx_hal_hcd.c ****   /* Check whether Port Connect detected */
1577:Drivers/STM32F7xx_HAL_Driver/Src/stm32f7xx_hal_hcd.c ****   if ((hprt0 & USB_OTG_HPRT_PCDET) == USB_OTG_HPRT_PCDET)
 906              		.loc 1 1577 0
 907 001c 019B     		ldr	r3, [sp, #4]
 908 001e 13F0020F 		tst	r3, #2
 909 0022 07D0     		beq	.L64
ARM GAS  /tmp/ccqVt8hD.s 			page 46


1578:Drivers/STM32F7xx_HAL_Driver/Src/stm32f7xx_hal_hcd.c ****   {
1579:Drivers/STM32F7xx_HAL_Driver/Src/stm32f7xx_hal_hcd.c ****     if ((hprt0 & USB_OTG_HPRT_PCSTS) == USB_OTG_HPRT_PCSTS)
 910              		.loc 1 1579 0
 911 0024 019B     		ldr	r3, [sp, #4]
 912 0026 13F0010F 		tst	r3, #1
 913 002a 25D1     		bne	.L73
 914              	.LVL74:
 915              	.L65:
1580:Drivers/STM32F7xx_HAL_Driver/Src/stm32f7xx_hal_hcd.c ****     {
1581:Drivers/STM32F7xx_HAL_Driver/Src/stm32f7xx_hal_hcd.c **** #if (USE_HAL_HCD_REGISTER_CALLBACKS == 1U)
1582:Drivers/STM32F7xx_HAL_Driver/Src/stm32f7xx_hal_hcd.c ****       hhcd->ConnectCallback(hhcd);
1583:Drivers/STM32F7xx_HAL_Driver/Src/stm32f7xx_hal_hcd.c **** #else
1584:Drivers/STM32F7xx_HAL_Driver/Src/stm32f7xx_hal_hcd.c ****       HAL_HCD_Connect_Callback(hhcd);
1585:Drivers/STM32F7xx_HAL_Driver/Src/stm32f7xx_hal_hcd.c **** #endif /* USE_HAL_HCD_REGISTER_CALLBACKS */
1586:Drivers/STM32F7xx_HAL_Driver/Src/stm32f7xx_hal_hcd.c ****     }
1587:Drivers/STM32F7xx_HAL_Driver/Src/stm32f7xx_hal_hcd.c ****     hprt0_dup  |= USB_OTG_HPRT_PCDET;
 916              		.loc 1 1587 0
 917 002c 009B     		ldr	r3, [sp]
 918 002e 43F00203 		orr	r3, r3, #2
 919 0032 0093     		str	r3, [sp]
 920              	.L64:
1588:Drivers/STM32F7xx_HAL_Driver/Src/stm32f7xx_hal_hcd.c ****   }
1589:Drivers/STM32F7xx_HAL_Driver/Src/stm32f7xx_hal_hcd.c **** 
1590:Drivers/STM32F7xx_HAL_Driver/Src/stm32f7xx_hal_hcd.c ****   /* Check whether Port Enable Changed */
1591:Drivers/STM32F7xx_HAL_Driver/Src/stm32f7xx_hal_hcd.c ****   if ((hprt0 & USB_OTG_HPRT_PENCHNG) == USB_OTG_HPRT_PENCHNG)
 921              		.loc 1 1591 0
 922 0034 019B     		ldr	r3, [sp, #4]
 923 0036 13F0080F 		tst	r3, #8
 924 003a 10D0     		beq	.L66
1592:Drivers/STM32F7xx_HAL_Driver/Src/stm32f7xx_hal_hcd.c ****   {
1593:Drivers/STM32F7xx_HAL_Driver/Src/stm32f7xx_hal_hcd.c ****     hprt0_dup |= USB_OTG_HPRT_PENCHNG;
 925              		.loc 1 1593 0
 926 003c 009B     		ldr	r3, [sp]
 927 003e 43F00803 		orr	r3, r3, #8
 928 0042 0093     		str	r3, [sp]
1594:Drivers/STM32F7xx_HAL_Driver/Src/stm32f7xx_hal_hcd.c **** 
1595:Drivers/STM32F7xx_HAL_Driver/Src/stm32f7xx_hal_hcd.c ****     if ((hprt0 & USB_OTG_HPRT_PENA) == USB_OTG_HPRT_PENA)
 929              		.loc 1 1595 0
 930 0044 019B     		ldr	r3, [sp, #4]
 931 0046 13F0040F 		tst	r3, #4
 932 004a 2DD0     		beq	.L67
1596:Drivers/STM32F7xx_HAL_Driver/Src/stm32f7xx_hal_hcd.c ****     {
1597:Drivers/STM32F7xx_HAL_Driver/Src/stm32f7xx_hal_hcd.c ****       if (hhcd->Init.phy_itface  == USB_OTG_EMBEDDED_PHY)
 933              		.loc 1 1597 0
 934 004c AB69     		ldr	r3, [r5, #24]
 935 004e 022B     		cmp	r3, #2
 936 0050 15D0     		beq	.L74
1598:Drivers/STM32F7xx_HAL_Driver/Src/stm32f7xx_hal_hcd.c ****       {
1599:Drivers/STM32F7xx_HAL_Driver/Src/stm32f7xx_hal_hcd.c ****         if ((hprt0 & USB_OTG_HPRT_PSPD) == (HPRT0_PRTSPD_LOW_SPEED << 17))
1600:Drivers/STM32F7xx_HAL_Driver/Src/stm32f7xx_hal_hcd.c ****         {
1601:Drivers/STM32F7xx_HAL_Driver/Src/stm32f7xx_hal_hcd.c ****           (void)USB_InitFSLSPClkSel(hhcd->Instance, HCFG_6_MHZ);
1602:Drivers/STM32F7xx_HAL_Driver/Src/stm32f7xx_hal_hcd.c ****         }
1603:Drivers/STM32F7xx_HAL_Driver/Src/stm32f7xx_hal_hcd.c ****         else
1604:Drivers/STM32F7xx_HAL_Driver/Src/stm32f7xx_hal_hcd.c ****         {
1605:Drivers/STM32F7xx_HAL_Driver/Src/stm32f7xx_hal_hcd.c ****           (void)USB_InitFSLSPClkSel(hhcd->Instance, HCFG_48_MHZ);
1606:Drivers/STM32F7xx_HAL_Driver/Src/stm32f7xx_hal_hcd.c ****         }
1607:Drivers/STM32F7xx_HAL_Driver/Src/stm32f7xx_hal_hcd.c ****       }
ARM GAS  /tmp/ccqVt8hD.s 			page 47


1608:Drivers/STM32F7xx_HAL_Driver/Src/stm32f7xx_hal_hcd.c ****       else
1609:Drivers/STM32F7xx_HAL_Driver/Src/stm32f7xx_hal_hcd.c ****       {
1610:Drivers/STM32F7xx_HAL_Driver/Src/stm32f7xx_hal_hcd.c ****         if (hhcd->Init.speed == HCD_SPEED_FULL)
 937              		.loc 1 1610 0
 938 0052 EB68     		ldr	r3, [r5, #12]
 939 0054 012B     		cmp	r3, #1
 940 0056 22D0     		beq	.L75
 941              	.L70:
1611:Drivers/STM32F7xx_HAL_Driver/Src/stm32f7xx_hal_hcd.c ****         {
1612:Drivers/STM32F7xx_HAL_Driver/Src/stm32f7xx_hal_hcd.c ****           USBx_HOST->HFIR = 60000U;
1613:Drivers/STM32F7xx_HAL_Driver/Src/stm32f7xx_hal_hcd.c ****         }
1614:Drivers/STM32F7xx_HAL_Driver/Src/stm32f7xx_hal_hcd.c ****       }
1615:Drivers/STM32F7xx_HAL_Driver/Src/stm32f7xx_hal_hcd.c **** #if (USE_HAL_HCD_REGISTER_CALLBACKS == 1U)
1616:Drivers/STM32F7xx_HAL_Driver/Src/stm32f7xx_hal_hcd.c ****       hhcd->PortEnabledCallback(hhcd);
1617:Drivers/STM32F7xx_HAL_Driver/Src/stm32f7xx_hal_hcd.c **** #else
1618:Drivers/STM32F7xx_HAL_Driver/Src/stm32f7xx_hal_hcd.c ****       HAL_HCD_PortEnabled_Callback(hhcd);
 942              		.loc 1 1618 0
 943 0058 2846     		mov	r0, r5
 944 005a FFF7FEFF 		bl	HAL_HCD_PortEnabled_Callback
 945              	.LVL75:
 946              	.L66:
1619:Drivers/STM32F7xx_HAL_Driver/Src/stm32f7xx_hal_hcd.c **** #endif /* USE_HAL_HCD_REGISTER_CALLBACKS */
1620:Drivers/STM32F7xx_HAL_Driver/Src/stm32f7xx_hal_hcd.c **** 
1621:Drivers/STM32F7xx_HAL_Driver/Src/stm32f7xx_hal_hcd.c ****     }
1622:Drivers/STM32F7xx_HAL_Driver/Src/stm32f7xx_hal_hcd.c ****     else
1623:Drivers/STM32F7xx_HAL_Driver/Src/stm32f7xx_hal_hcd.c ****     {
1624:Drivers/STM32F7xx_HAL_Driver/Src/stm32f7xx_hal_hcd.c **** #if (USE_HAL_HCD_REGISTER_CALLBACKS == 1U)
1625:Drivers/STM32F7xx_HAL_Driver/Src/stm32f7xx_hal_hcd.c ****       hhcd->PortDisabledCallback(hhcd);
1626:Drivers/STM32F7xx_HAL_Driver/Src/stm32f7xx_hal_hcd.c **** #else
1627:Drivers/STM32F7xx_HAL_Driver/Src/stm32f7xx_hal_hcd.c ****       HAL_HCD_PortDisabled_Callback(hhcd);
1628:Drivers/STM32F7xx_HAL_Driver/Src/stm32f7xx_hal_hcd.c **** #endif /* USE_HAL_HCD_REGISTER_CALLBACKS */
1629:Drivers/STM32F7xx_HAL_Driver/Src/stm32f7xx_hal_hcd.c ****     }
1630:Drivers/STM32F7xx_HAL_Driver/Src/stm32f7xx_hal_hcd.c ****   }
1631:Drivers/STM32F7xx_HAL_Driver/Src/stm32f7xx_hal_hcd.c **** 
1632:Drivers/STM32F7xx_HAL_Driver/Src/stm32f7xx_hal_hcd.c ****   /* Check for an overcurrent */
1633:Drivers/STM32F7xx_HAL_Driver/Src/stm32f7xx_hal_hcd.c ****   if ((hprt0 & USB_OTG_HPRT_POCCHNG) == USB_OTG_HPRT_POCCHNG)
 947              		.loc 1 1633 0
 948 005e 019B     		ldr	r3, [sp, #4]
 949 0060 13F0200F 		tst	r3, #32
 950 0064 03D0     		beq	.L71
1634:Drivers/STM32F7xx_HAL_Driver/Src/stm32f7xx_hal_hcd.c ****   {
1635:Drivers/STM32F7xx_HAL_Driver/Src/stm32f7xx_hal_hcd.c ****     hprt0_dup |= USB_OTG_HPRT_POCCHNG;
 951              		.loc 1 1635 0
 952 0066 009B     		ldr	r3, [sp]
 953 0068 43F02003 		orr	r3, r3, #32
 954 006c 0093     		str	r3, [sp]
 955              	.L71:
1636:Drivers/STM32F7xx_HAL_Driver/Src/stm32f7xx_hal_hcd.c ****   }
1637:Drivers/STM32F7xx_HAL_Driver/Src/stm32f7xx_hal_hcd.c **** 
1638:Drivers/STM32F7xx_HAL_Driver/Src/stm32f7xx_hal_hcd.c ****   /* Clear Port Interrupts */
1639:Drivers/STM32F7xx_HAL_Driver/Src/stm32f7xx_hal_hcd.c ****   USBx_HPRT0 = hprt0_dup;
 956              		.loc 1 1639 0
 957 006e 009B     		ldr	r3, [sp]
 958 0070 C4F84034 		str	r3, [r4, #1088]
1640:Drivers/STM32F7xx_HAL_Driver/Src/stm32f7xx_hal_hcd.c **** }
 959              		.loc 1 1640 0
 960 0074 03B0     		add	sp, sp, #12
ARM GAS  /tmp/ccqVt8hD.s 			page 48


 961              	.LCFI17:
 962              		.cfi_remember_state
 963              		.cfi_def_cfa_offset 12
 964              		@ sp needed
 965 0076 30BD     		pop	{r4, r5, pc}
 966              	.LVL76:
 967              	.L73:
 968              	.LCFI18:
 969              		.cfi_restore_state
1584:Drivers/STM32F7xx_HAL_Driver/Src/stm32f7xx_hal_hcd.c **** #endif /* USE_HAL_HCD_REGISTER_CALLBACKS */
 970              		.loc 1 1584 0
 971 0078 FFF7FEFF 		bl	HAL_HCD_Connect_Callback
 972              	.LVL77:
 973 007c D6E7     		b	.L65
 974              	.L74:
1599:Drivers/STM32F7xx_HAL_Driver/Src/stm32f7xx_hal_hcd.c ****         {
 975              		.loc 1 1599 0
 976 007e 019B     		ldr	r3, [sp, #4]
 977 0080 03F4C023 		and	r3, r3, #393216
 978 0084 B3F5802F 		cmp	r3, #262144
 979 0088 04D0     		beq	.L76
1605:Drivers/STM32F7xx_HAL_Driver/Src/stm32f7xx_hal_hcd.c ****         }
 980              		.loc 1 1605 0
 981 008a 0121     		movs	r1, #1
 982 008c 2868     		ldr	r0, [r5]
 983 008e FFF7FEFF 		bl	USB_InitFSLSPClkSel
 984              	.LVL78:
 985 0092 E1E7     		b	.L70
 986              	.L76:
1601:Drivers/STM32F7xx_HAL_Driver/Src/stm32f7xx_hal_hcd.c ****         }
 987              		.loc 1 1601 0
 988 0094 0221     		movs	r1, #2
 989 0096 2868     		ldr	r0, [r5]
 990 0098 FFF7FEFF 		bl	USB_InitFSLSPClkSel
 991              	.LVL79:
 992 009c DCE7     		b	.L70
 993              	.L75:
1612:Drivers/STM32F7xx_HAL_Driver/Src/stm32f7xx_hal_hcd.c ****         }
 994              		.loc 1 1612 0
 995 009e 4EF66022 		movw	r2, #60000
 996 00a2 C4F80424 		str	r2, [r4, #1028]
 997 00a6 D7E7     		b	.L70
 998              	.L67:
1627:Drivers/STM32F7xx_HAL_Driver/Src/stm32f7xx_hal_hcd.c **** #endif /* USE_HAL_HCD_REGISTER_CALLBACKS */
 999              		.loc 1 1627 0
 1000 00a8 2846     		mov	r0, r5
 1001 00aa FFF7FEFF 		bl	HAL_HCD_PortDisabled_Callback
 1002              	.LVL80:
 1003 00ae D6E7     		b	.L66
 1004              		.cfi_endproc
 1005              	.LFE167:
 1007              		.section	.text.HAL_HCD_HC_NotifyURBChange_Callback,"ax",%progbits
 1008              		.align	1
 1009              		.weak	HAL_HCD_HC_NotifyURBChange_Callback
 1010              		.syntax unified
 1011              		.thumb
 1012              		.thumb_func
ARM GAS  /tmp/ccqVt8hD.s 			page 49


 1013              		.fpu fpv5-sp-d16
 1015              	HAL_HCD_HC_NotifyURBChange_Callback:
 1016              	.LFB154:
 693:Drivers/STM32F7xx_HAL_Driver/Src/stm32f7xx_hal_hcd.c ****   /* Prevent unused argument(s) compilation warning */
 1017              		.loc 1 693 0
 1018              		.cfi_startproc
 1019              		@ args = 0, pretend = 0, frame = 0
 1020              		@ frame_needed = 0, uses_anonymous_args = 0
 1021              		@ link register save eliminated.
 1022              	.LVL81:
 702:Drivers/STM32F7xx_HAL_Driver/Src/stm32f7xx_hal_hcd.c **** 
 1023              		.loc 1 702 0
 1024 0000 7047     		bx	lr
 1025              		.cfi_endproc
 1026              	.LFE154:
 1028              		.section	.text.HCD_HC_IN_IRQHandler,"ax",%progbits
 1029              		.align	1
 1030              		.syntax unified
 1031              		.thumb
 1032              		.thumb_func
 1033              		.fpu fpv5-sp-d16
 1035              	HCD_HC_IN_IRQHandler:
 1036              	.LFB164:
1161:Drivers/STM32F7xx_HAL_Driver/Src/stm32f7xx_hal_hcd.c ****   USB_OTG_GlobalTypeDef *USBx = hhcd->Instance;
 1037              		.loc 1 1161 0
 1038              		.cfi_startproc
 1039              		@ args = 0, pretend = 0, frame = 0
 1040              		@ frame_needed = 0, uses_anonymous_args = 0
 1041              	.LVL82:
 1042 0000 F8B5     		push	{r3, r4, r5, r6, r7, lr}
 1043              	.LCFI19:
 1044              		.cfi_def_cfa_offset 24
 1045              		.cfi_offset 3, -24
 1046              		.cfi_offset 4, -20
 1047              		.cfi_offset 5, -16
 1048              		.cfi_offset 6, -12
 1049              		.cfi_offset 7, -8
 1050              		.cfi_offset 14, -4
 1051 0002 0646     		mov	r6, r0
 1052 0004 0D46     		mov	r5, r1
1162:Drivers/STM32F7xx_HAL_Driver/Src/stm32f7xx_hal_hcd.c ****   uint32_t USBx_BASE = (uint32_t)USBx;
 1053              		.loc 1 1162 0
 1054 0006 0768     		ldr	r7, [r0]
 1055              	.LVL83:
1168:Drivers/STM32F7xx_HAL_Driver/Src/stm32f7xx_hal_hcd.c ****   {
 1056              		.loc 1 1168 0
 1057 0008 07EB4117 		add	r7, r7, r1, lsl #5
 1058              	.LVL84:
 1059 000c 07F5A064 		add	r4, r7, #1280
 1060 0010 A368     		ldr	r3, [r4, #8]
 1061 0012 13F0040F 		tst	r3, #4
 1062 0016 3FD0     		beq	.L79
1170:Drivers/STM32F7xx_HAL_Driver/Src/stm32f7xx_hal_hcd.c ****     __HAL_HCD_UNMASK_HALT_HC_INT(ch_num);
 1063              		.loc 1 1170 0
 1064 0018 0423     		movs	r3, #4
 1065 001a A360     		str	r3, [r4, #8]
 1066              	.LVL85:
ARM GAS  /tmp/ccqVt8hD.s 			page 50


1171:Drivers/STM32F7xx_HAL_Driver/Src/stm32f7xx_hal_hcd.c ****   }
 1067              		.loc 1 1171 0
 1068 001c E368     		ldr	r3, [r4, #12]
 1069 001e 43F00203 		orr	r3, r3, #2
 1070 0022 E360     		str	r3, [r4, #12]
 1071              	.LVL86:
 1072              	.L80:
1205:Drivers/STM32F7xx_HAL_Driver/Src/stm32f7xx_hal_hcd.c ****   {
 1073              		.loc 1 1205 0
 1074 0024 A368     		ldr	r3, [r4, #8]
 1075 0026 13F4007F 		tst	r3, #512
 1076 002a 40F08180 		bne	.L103
1211:Drivers/STM32F7xx_HAL_Driver/Src/stm32f7xx_hal_hcd.c ****   {
 1077              		.loc 1 1211 0
 1078 002e A368     		ldr	r3, [r4, #8]
 1079 0030 13F0010F 		tst	r3, #1
 1080 0034 00F0B680 		beq	.L86
1213:Drivers/STM32F7xx_HAL_Driver/Src/stm32f7xx_hal_hcd.c ****     {
 1081              		.loc 1 1213 0
 1082 0038 3369     		ldr	r3, [r6, #16]
 1083 003a 4BB1     		cbz	r3, .L87
1215:Drivers/STM32F7xx_HAL_Driver/Src/stm32f7xx_hal_hcd.c ****                                     (USBx_HC(ch_num)->HCTSIZ & USB_OTG_HCTSIZ_XFRSIZ);
 1084              		.loc 1 1215 0
 1085 003c AA00     		lsls	r2, r5, #2
 1086 003e 2A44     		add	r2, r2, r5
 1087 0040 D300     		lsls	r3, r2, #3
 1088 0042 3344     		add	r3, r3, r6
 1089 0044 9A6C     		ldr	r2, [r3, #72]
1216:Drivers/STM32F7xx_HAL_Driver/Src/stm32f7xx_hal_hcd.c ****     }
 1090              		.loc 1 1216 0
 1091 0046 2169     		ldr	r1, [r4, #16]
 1092 0048 C1F31201 		ubfx	r1, r1, #0, #19
1215:Drivers/STM32F7xx_HAL_Driver/Src/stm32f7xx_hal_hcd.c ****                                     (USBx_HC(ch_num)->HCTSIZ & USB_OTG_HCTSIZ_XFRSIZ);
 1093              		.loc 1 1215 0
 1094 004c 521A     		subs	r2, r2, r1
 1095 004e DA64     		str	r2, [r3, #76]
 1096              	.L87:
1219:Drivers/STM32F7xx_HAL_Driver/Src/stm32f7xx_hal_hcd.c ****     hhcd->hc[ch_num].ErrCnt = 0U;
 1097              		.loc 1 1219 0
 1098 0050 AA00     		lsls	r2, r5, #2
 1099 0052 2A44     		add	r2, r2, r5
 1100 0054 D300     		lsls	r3, r2, #3
 1101 0056 3344     		add	r3, r3, r6
 1102 0058 0122     		movs	r2, #1
 1103 005a 83F85D20 		strb	r2, [r3, #93]
1220:Drivers/STM32F7xx_HAL_Driver/Src/stm32f7xx_hal_hcd.c ****     __HAL_HCD_CLEAR_HC_INT(ch_num, USB_OTG_HCINT_XFRC);
 1104              		.loc 1 1220 0
 1105 005e 0021     		movs	r1, #0
 1106 0060 9965     		str	r1, [r3, #88]
1221:Drivers/STM32F7xx_HAL_Driver/Src/stm32f7xx_hal_hcd.c **** 
 1107              		.loc 1 1221 0
 1108 0062 A260     		str	r2, [r4, #8]
1223:Drivers/STM32F7xx_HAL_Driver/Src/stm32f7xx_hal_hcd.c ****         (hhcd->hc[ch_num].ep_type == EP_TYPE_BULK))
 1109              		.loc 1 1223 0
 1110 0064 93F83F30 		ldrb	r3, [r3, #63]	@ zero_extendqisi2
 1111 0068 022B     		cmp	r3, #2
 1112 006a 14BF     		ite	ne
ARM GAS  /tmp/ccqVt8hD.s 			page 51


 1113 006c 0022     		movne	r2, #0
 1114 006e 0122     		moveq	r2, #1
 1115 0070 8B42     		cmp	r3, r1
 1116 0072 08BF     		it	eq
 1117 0074 0122     		moveq	r2, #1
 1118 0076 002A     		cmp	r2, #0
 1119 0078 66D1     		bne	.L104
1230:Drivers/STM32F7xx_HAL_Driver/Src/stm32f7xx_hal_hcd.c ****     {
 1120              		.loc 1 1230 0
 1121 007a 032B     		cmp	r3, #3
 1122 007c 6FD0     		beq	.L105
1241:Drivers/STM32F7xx_HAL_Driver/Src/stm32f7xx_hal_hcd.c ****     {
 1123              		.loc 1 1241 0
 1124 007e 012B     		cmp	r3, #1
 1125 0080 7FD0     		beq	.L106
 1126              	.L89:
1256:Drivers/STM32F7xx_HAL_Driver/Src/stm32f7xx_hal_hcd.c **** 
 1127              		.loc 1 1256 0
 1128 0082 AB00     		lsls	r3, r5, #2
 1129 0084 5919     		adds	r1, r3, r5
 1130 0086 CA00     		lsls	r2, r1, #3
 1131 0088 3244     		add	r2, r2, r6
 1132 008a 92F85030 		ldrb	r3, [r2, #80]	@ zero_extendqisi2
 1133 008e 83F00103 		eor	r3, r3, #1
 1134 0092 82F85030 		strb	r3, [r2, #80]
 1135              	.L78:
1350:Drivers/STM32F7xx_HAL_Driver/Src/stm32f7xx_hal_hcd.c **** 
 1136              		.loc 1 1350 0
 1137 0096 F8BD     		pop	{r3, r4, r5, r6, r7, pc}
 1138              	.LVL87:
 1139              	.L79:
1173:Drivers/STM32F7xx_HAL_Driver/Src/stm32f7xx_hal_hcd.c ****   {
 1140              		.loc 1 1173 0
 1141 0098 A368     		ldr	r3, [r4, #8]
 1142 009a 13F4807F 		tst	r3, #256
 1143 009e 06D1     		bne	.L107
1180:Drivers/STM32F7xx_HAL_Driver/Src/stm32f7xx_hal_hcd.c ****   {
 1144              		.loc 1 1180 0
 1145 00a0 A368     		ldr	r3, [r4, #8]
 1146 00a2 13F0200F 		tst	r3, #32
 1147 00a6 14D0     		beq	.L82
1182:Drivers/STM32F7xx_HAL_Driver/Src/stm32f7xx_hal_hcd.c ****   }
 1148              		.loc 1 1182 0
 1149 00a8 2023     		movs	r3, #32
 1150 00aa A360     		str	r3, [r4, #8]
 1151              	.LVL88:
 1152 00ac BAE7     		b	.L80
 1153              	.LVL89:
 1154              	.L107:
1175:Drivers/STM32F7xx_HAL_Driver/Src/stm32f7xx_hal_hcd.c ****     hhcd->hc[ch_num].state = HC_BBLERR;
 1155              		.loc 1 1175 0
 1156 00ae 4FF48073 		mov	r3, #256
 1157 00b2 A360     		str	r3, [r4, #8]
 1158              	.LVL90:
1176:Drivers/STM32F7xx_HAL_Driver/Src/stm32f7xx_hal_hcd.c ****     __HAL_HCD_UNMASK_HALT_HC_INT(ch_num);
 1159              		.loc 1 1176 0
 1160 00b4 01EB8102 		add	r2, r1, r1, lsl #2
ARM GAS  /tmp/ccqVt8hD.s 			page 52


 1161 00b8 D300     		lsls	r3, r2, #3
 1162 00ba 0344     		add	r3, r3, r0
 1163 00bc 0722     		movs	r2, #7
 1164 00be 83F85D20 		strb	r2, [r3, #93]
1177:Drivers/STM32F7xx_HAL_Driver/Src/stm32f7xx_hal_hcd.c ****     (void)USB_HC_Halt(hhcd->Instance, (uint8_t)ch_num);
 1165              		.loc 1 1177 0
 1166 00c2 E368     		ldr	r3, [r4, #12]
 1167 00c4 43F00203 		orr	r3, r3, #2
 1168 00c8 E360     		str	r3, [r4, #12]
1178:Drivers/STM32F7xx_HAL_Driver/Src/stm32f7xx_hal_hcd.c ****   }
 1169              		.loc 1 1178 0
 1170 00ca 0068     		ldr	r0, [r0]
 1171              	.LVL91:
 1172 00cc FFF7FEFF 		bl	USB_HC_Halt
 1173              	.LVL92:
 1174 00d0 A8E7     		b	.L80
 1175              	.LVL93:
 1176              	.L82:
1184:Drivers/STM32F7xx_HAL_Driver/Src/stm32f7xx_hal_hcd.c ****   {
 1177              		.loc 1 1184 0
 1178 00d2 A368     		ldr	r3, [r4, #8]
 1179 00d4 13F0080F 		tst	r3, #8
 1180 00d8 17D1     		bne	.L108
1192:Drivers/STM32F7xx_HAL_Driver/Src/stm32f7xx_hal_hcd.c ****   {
 1181              		.loc 1 1192 0
 1182 00da A368     		ldr	r3, [r4, #8]
 1183 00dc 13F4806F 		tst	r3, #1024
 1184 00e0 A0D0     		beq	.L80
1194:Drivers/STM32F7xx_HAL_Driver/Src/stm32f7xx_hal_hcd.c ****     (void)USB_HC_Halt(hhcd->Instance, (uint8_t)ch_num);
 1185              		.loc 1 1194 0
 1186 00e2 E368     		ldr	r3, [r4, #12]
 1187 00e4 43F00203 		orr	r3, r3, #2
 1188 00e8 E360     		str	r3, [r4, #12]
 1189              	.LVL94:
1195:Drivers/STM32F7xx_HAL_Driver/Src/stm32f7xx_hal_hcd.c ****     __HAL_HCD_CLEAR_HC_INT(ch_num, USB_OTG_HCINT_NAK);
 1190              		.loc 1 1195 0
 1191 00ea 0068     		ldr	r0, [r0]
 1192              	.LVL95:
 1193 00ec FFF7FEFF 		bl	USB_HC_Halt
 1194              	.LVL96:
1196:Drivers/STM32F7xx_HAL_Driver/Src/stm32f7xx_hal_hcd.c ****     hhcd->hc[ch_num].state = HC_DATATGLERR;
 1195              		.loc 1 1196 0
 1196 00f0 1023     		movs	r3, #16
 1197 00f2 A360     		str	r3, [r4, #8]
1197:Drivers/STM32F7xx_HAL_Driver/Src/stm32f7xx_hal_hcd.c ****     __HAL_HCD_CLEAR_HC_INT(ch_num, USB_OTG_HCINT_DTERR);
 1198              		.loc 1 1197 0
 1199 00f4 05EB8502 		add	r2, r5, r5, lsl #2
 1200 00f8 D300     		lsls	r3, r2, #3
 1201 00fa 3344     		add	r3, r3, r6
 1202 00fc 0822     		movs	r2, #8
 1203 00fe 83F85D20 		strb	r2, [r3, #93]
1198:Drivers/STM32F7xx_HAL_Driver/Src/stm32f7xx_hal_hcd.c ****   }
 1204              		.loc 1 1198 0
 1205 0102 4FF48063 		mov	r3, #1024
 1206 0106 A360     		str	r3, [r4, #8]
 1207 0108 8CE7     		b	.L80
 1208              	.LVL97:
ARM GAS  /tmp/ccqVt8hD.s 			page 53


 1209              	.L108:
1186:Drivers/STM32F7xx_HAL_Driver/Src/stm32f7xx_hal_hcd.c ****     hhcd->hc[ch_num].state = HC_STALL;
 1210              		.loc 1 1186 0
 1211 010a E368     		ldr	r3, [r4, #12]
 1212 010c 43F00203 		orr	r3, r3, #2
 1213 0110 E360     		str	r3, [r4, #12]
 1214              	.LVL98:
1187:Drivers/STM32F7xx_HAL_Driver/Src/stm32f7xx_hal_hcd.c ****     __HAL_HCD_CLEAR_HC_INT(ch_num, USB_OTG_HCINT_NAK);
 1215              		.loc 1 1187 0
 1216 0112 01EB8102 		add	r2, r1, r1, lsl #2
 1217 0116 D300     		lsls	r3, r2, #3
 1218 0118 0344     		add	r3, r3, r0
 1219 011a 0522     		movs	r2, #5
 1220 011c 83F85D20 		strb	r2, [r3, #93]
1188:Drivers/STM32F7xx_HAL_Driver/Src/stm32f7xx_hal_hcd.c ****     __HAL_HCD_CLEAR_HC_INT(ch_num, USB_OTG_HCINT_STALL);
 1221              		.loc 1 1188 0
 1222 0120 1023     		movs	r3, #16
 1223 0122 A360     		str	r3, [r4, #8]
1189:Drivers/STM32F7xx_HAL_Driver/Src/stm32f7xx_hal_hcd.c ****     (void)USB_HC_Halt(hhcd->Instance, (uint8_t)ch_num);
 1224              		.loc 1 1189 0
 1225 0124 0823     		movs	r3, #8
 1226 0126 A360     		str	r3, [r4, #8]
1190:Drivers/STM32F7xx_HAL_Driver/Src/stm32f7xx_hal_hcd.c ****   }
 1227              		.loc 1 1190 0
 1228 0128 0068     		ldr	r0, [r0]
 1229              	.LVL99:
 1230 012a FFF7FEFF 		bl	USB_HC_Halt
 1231              	.LVL100:
 1232 012e 79E7     		b	.L80
 1233              	.L103:
1207:Drivers/STM32F7xx_HAL_Driver/Src/stm32f7xx_hal_hcd.c ****     (void)USB_HC_Halt(hhcd->Instance, (uint8_t)ch_num);
 1234              		.loc 1 1207 0
 1235 0130 E368     		ldr	r3, [r4, #12]
 1236 0132 43F00203 		orr	r3, r3, #2
 1237 0136 E360     		str	r3, [r4, #12]
1208:Drivers/STM32F7xx_HAL_Driver/Src/stm32f7xx_hal_hcd.c ****     __HAL_HCD_CLEAR_HC_INT(ch_num, USB_OTG_HCINT_FRMOR);
 1238              		.loc 1 1208 0
 1239 0138 2946     		mov	r1, r5
 1240 013a 3068     		ldr	r0, [r6]
 1241 013c FFF7FEFF 		bl	USB_HC_Halt
 1242              	.LVL101:
1209:Drivers/STM32F7xx_HAL_Driver/Src/stm32f7xx_hal_hcd.c ****   }
 1243              		.loc 1 1209 0
 1244 0140 4FF40073 		mov	r3, #512
 1245 0144 A360     		str	r3, [r4, #8]
 1246 0146 A6E7     		b	.L78
 1247              	.L104:
1226:Drivers/STM32F7xx_HAL_Driver/Src/stm32f7xx_hal_hcd.c ****       (void)USB_HC_Halt(hhcd->Instance, (uint8_t)ch_num);
 1248              		.loc 1 1226 0
 1249 0148 E368     		ldr	r3, [r4, #12]
 1250 014a 43F00203 		orr	r3, r3, #2
 1251 014e E360     		str	r3, [r4, #12]
1227:Drivers/STM32F7xx_HAL_Driver/Src/stm32f7xx_hal_hcd.c ****       __HAL_HCD_CLEAR_HC_INT(ch_num, USB_OTG_HCINT_NAK);
 1252              		.loc 1 1227 0
 1253 0150 2946     		mov	r1, r5
 1254 0152 3068     		ldr	r0, [r6]
 1255 0154 FFF7FEFF 		bl	USB_HC_Halt
ARM GAS  /tmp/ccqVt8hD.s 			page 54


 1256              	.LVL102:
1228:Drivers/STM32F7xx_HAL_Driver/Src/stm32f7xx_hal_hcd.c ****     }
 1257              		.loc 1 1228 0
 1258 0158 1023     		movs	r3, #16
 1259 015a A360     		str	r3, [r4, #8]
 1260 015c 91E7     		b	.L89
 1261              	.L105:
1232:Drivers/STM32F7xx_HAL_Driver/Src/stm32f7xx_hal_hcd.c ****       hhcd->hc[ch_num].urb_state = URB_DONE;
 1262              		.loc 1 1232 0
 1263 015e D7F80035 		ldr	r3, [r7, #1280]
 1264 0162 43F00053 		orr	r3, r3, #536870912
 1265 0166 C7F80035 		str	r3, [r7, #1280]
1233:Drivers/STM32F7xx_HAL_Driver/Src/stm32f7xx_hal_hcd.c **** 
 1266              		.loc 1 1233 0
 1267 016a 05EB8502 		add	r2, r5, r5, lsl #2
 1268 016e D300     		lsls	r3, r2, #3
 1269 0170 3344     		add	r3, r3, r6
 1270 0172 0122     		movs	r2, #1
 1271 0174 83F85C20 		strb	r2, [r3, #92]
1238:Drivers/STM32F7xx_HAL_Driver/Src/stm32f7xx_hal_hcd.c **** #endif /* USE_HAL_HCD_REGISTER_CALLBACKS */
 1272              		.loc 1 1238 0
 1273 0178 2946     		mov	r1, r5
 1274 017a 3046     		mov	r0, r6
 1275 017c FFF7FEFF 		bl	HAL_HCD_HC_NotifyURBChange_Callback
 1276              	.LVL103:
 1277 0180 7FE7     		b	.L89
 1278              	.L106:
1243:Drivers/STM32F7xx_HAL_Driver/Src/stm32f7xx_hal_hcd.c ****       hhcd->hc[ch_num].toggle_in ^= 1U;
 1279              		.loc 1 1243 0
 1280 0182 AA00     		lsls	r2, r5, #2
 1281 0184 2A44     		add	r2, r2, r5
 1282 0186 D300     		lsls	r3, r2, #3
 1283 0188 3344     		add	r3, r3, r6
 1284 018a 0122     		movs	r2, #1
 1285 018c 83F85C20 		strb	r2, [r3, #92]
1244:Drivers/STM32F7xx_HAL_Driver/Src/stm32f7xx_hal_hcd.c **** 
 1286              		.loc 1 1244 0
 1287 0190 93F85010 		ldrb	r1, [r3, #80]	@ zero_extendqisi2
 1288 0194 5140     		eors	r1, r1, r2
 1289 0196 83F85010 		strb	r1, [r3, #80]
1249:Drivers/STM32F7xx_HAL_Driver/Src/stm32f7xx_hal_hcd.c **** #endif /* USE_HAL_HCD_REGISTER_CALLBACKS */
 1290              		.loc 1 1249 0
 1291 019a 2946     		mov	r1, r5
 1292 019c 3046     		mov	r0, r6
 1293 019e FFF7FEFF 		bl	HAL_HCD_HC_NotifyURBChange_Callback
 1294              	.LVL104:
 1295 01a2 6EE7     		b	.L89
 1296              	.L86:
1259:Drivers/STM32F7xx_HAL_Driver/Src/stm32f7xx_hal_hcd.c ****   {
 1297              		.loc 1 1259 0
 1298 01a4 A368     		ldr	r3, [r4, #8]
 1299 01a6 13F0020F 		tst	r3, #2
 1300 01aa 6FD0     		beq	.L91
1261:Drivers/STM32F7xx_HAL_Driver/Src/stm32f7xx_hal_hcd.c **** 
 1301              		.loc 1 1261 0
 1302 01ac E368     		ldr	r3, [r4, #12]
 1303 01ae 23F00203 		bic	r3, r3, #2
ARM GAS  /tmp/ccqVt8hD.s 			page 55


 1304 01b2 E360     		str	r3, [r4, #12]
1263:Drivers/STM32F7xx_HAL_Driver/Src/stm32f7xx_hal_hcd.c ****     {
 1305              		.loc 1 1263 0
 1306 01b4 05EB8502 		add	r2, r5, r5, lsl #2
 1307 01b8 D300     		lsls	r3, r2, #3
 1308 01ba 3344     		add	r3, r3, r6
 1309 01bc 93F85D30 		ldrb	r3, [r3, #93]	@ zero_extendqisi2
 1310 01c0 012B     		cmp	r3, #1
 1311 01c2 20D0     		beq	.L109
1267:Drivers/STM32F7xx_HAL_Driver/Src/stm32f7xx_hal_hcd.c ****     {
 1312              		.loc 1 1267 0
 1313 01c4 052B     		cmp	r3, #5
 1314 01c6 32D0     		beq	.L110
1271:Drivers/STM32F7xx_HAL_Driver/Src/stm32f7xx_hal_hcd.c ****              (hhcd->hc[ch_num].state == HC_DATATGLERR))
 1315              		.loc 1 1271 0
 1316 01c8 082B     		cmp	r3, #8
 1317 01ca 18BF     		it	ne
 1318 01cc 062B     		cmpne	r3, #6
 1319 01ce 3ED1     		bne	.L95
1274:Drivers/STM32F7xx_HAL_Driver/Src/stm32f7xx_hal_hcd.c ****       if (hhcd->hc[ch_num].ErrCnt > 3U)
 1320              		.loc 1 1274 0
 1321 01d0 AA00     		lsls	r2, r5, #2
 1322 01d2 2A44     		add	r2, r2, r5
 1323 01d4 D300     		lsls	r3, r2, #3
 1324 01d6 3344     		add	r3, r3, r6
 1325 01d8 9A6D     		ldr	r2, [r3, #88]
 1326 01da 0132     		adds	r2, r2, #1
 1327 01dc 9A65     		str	r2, [r3, #88]
1275:Drivers/STM32F7xx_HAL_Driver/Src/stm32f7xx_hal_hcd.c ****       {
 1328              		.loc 1 1275 0
 1329 01de 032A     		cmp	r2, #3
 1330 01e0 2DD9     		bls	.L96
1277:Drivers/STM32F7xx_HAL_Driver/Src/stm32f7xx_hal_hcd.c ****         hhcd->hc[ch_num].urb_state = URB_ERROR;
 1331              		.loc 1 1277 0
 1332 01e2 AA00     		lsls	r2, r5, #2
 1333 01e4 2A44     		add	r2, r2, r5
 1334 01e6 D300     		lsls	r3, r2, #3
 1335 01e8 3344     		add	r3, r3, r6
 1336 01ea 0022     		movs	r2, #0
 1337 01ec 9A65     		str	r2, [r3, #88]
1278:Drivers/STM32F7xx_HAL_Driver/Src/stm32f7xx_hal_hcd.c ****       }
 1338              		.loc 1 1278 0
 1339 01ee 0422     		movs	r2, #4
 1340 01f0 83F85C20 		strb	r2, [r3, #92]
 1341              	.L97:
1286:Drivers/STM32F7xx_HAL_Driver/Src/stm32f7xx_hal_hcd.c ****       tmpreg &= ~USB_OTG_HCCHAR_CHDIS;
 1342              		.loc 1 1286 0
 1343 01f4 D7F80035 		ldr	r3, [r7, #1280]
 1344              	.LVL105:
1287:Drivers/STM32F7xx_HAL_Driver/Src/stm32f7xx_hal_hcd.c ****       tmpreg |= USB_OTG_HCCHAR_CHENA;
 1345              		.loc 1 1287 0
 1346 01f8 23F08043 		bic	r3, r3, #1073741824
 1347              	.LVL106:
1288:Drivers/STM32F7xx_HAL_Driver/Src/stm32f7xx_hal_hcd.c ****       USBx_HC(ch_num)->HCCHAR = tmpreg;
 1348              		.loc 1 1288 0
 1349 01fc 43F00043 		orr	r3, r3, #-2147483648
 1350              	.LVL107:
ARM GAS  /tmp/ccqVt8hD.s 			page 56


1289:Drivers/STM32F7xx_HAL_Driver/Src/stm32f7xx_hal_hcd.c ****     }
 1351              		.loc 1 1289 0
 1352 0200 C7F80035 		str	r3, [r7, #1280]
 1353 0204 06E0     		b	.L93
 1354              	.LVL108:
 1355              	.L109:
1265:Drivers/STM32F7xx_HAL_Driver/Src/stm32f7xx_hal_hcd.c ****     }
 1356              		.loc 1 1265 0
 1357 0206 05EB8502 		add	r2, r5, r5, lsl #2
 1358 020a D300     		lsls	r3, r2, #3
 1359 020c 3344     		add	r3, r3, r6
 1360 020e 0122     		movs	r2, #1
 1361 0210 83F85C20 		strb	r2, [r3, #92]
 1362              	.L93:
1309:Drivers/STM32F7xx_HAL_Driver/Src/stm32f7xx_hal_hcd.c ****     HAL_HCD_HC_NotifyURBChange_Callback(hhcd, (uint8_t)ch_num, hhcd->hc[ch_num].urb_state);
 1363              		.loc 1 1309 0
 1364 0214 0223     		movs	r3, #2
 1365 0216 A360     		str	r3, [r4, #8]
1310:Drivers/STM32F7xx_HAL_Driver/Src/stm32f7xx_hal_hcd.c ****   }
 1366              		.loc 1 1310 0
 1367 0218 05EB8502 		add	r2, r5, r5, lsl #2
 1368 021c D300     		lsls	r3, r2, #3
 1369 021e 3344     		add	r3, r3, r6
 1370 0220 93F85C20 		ldrb	r2, [r3, #92]	@ zero_extendqisi2
 1371 0224 2946     		mov	r1, r5
 1372 0226 3046     		mov	r0, r6
 1373 0228 FFF7FEFF 		bl	HAL_HCD_HC_NotifyURBChange_Callback
 1374              	.LVL109:
 1375 022c 33E7     		b	.L78
 1376              	.L110:
1269:Drivers/STM32F7xx_HAL_Driver/Src/stm32f7xx_hal_hcd.c ****     }
 1377              		.loc 1 1269 0
 1378 022e 05EB8502 		add	r2, r5, r5, lsl #2
 1379 0232 D300     		lsls	r3, r2, #3
 1380 0234 3344     		add	r3, r3, r6
 1381 0236 0522     		movs	r2, #5
 1382 0238 83F85C20 		strb	r2, [r3, #92]
 1383 023c EAE7     		b	.L93
 1384              	.L96:
1282:Drivers/STM32F7xx_HAL_Driver/Src/stm32f7xx_hal_hcd.c ****       }
 1385              		.loc 1 1282 0
 1386 023e 05EB8502 		add	r2, r5, r5, lsl #2
 1387 0242 D300     		lsls	r3, r2, #3
 1388 0244 3344     		add	r3, r3, r6
 1389 0246 0222     		movs	r2, #2
 1390 0248 83F85C20 		strb	r2, [r3, #92]
 1391 024c D2E7     		b	.L97
 1392              	.L95:
1291:Drivers/STM32F7xx_HAL_Driver/Src/stm32f7xx_hal_hcd.c ****     {
 1393              		.loc 1 1291 0
 1394 024e 032B     		cmp	r3, #3
 1395 0250 0CD0     		beq	.L111
1300:Drivers/STM32F7xx_HAL_Driver/Src/stm32f7xx_hal_hcd.c ****     {
 1396              		.loc 1 1300 0
 1397 0252 072B     		cmp	r3, #7
 1398 0254 DED1     		bne	.L93
1302:Drivers/STM32F7xx_HAL_Driver/Src/stm32f7xx_hal_hcd.c ****       hhcd->hc[ch_num].urb_state = URB_ERROR;
ARM GAS  /tmp/ccqVt8hD.s 			page 57


 1399              		.loc 1 1302 0
 1400 0256 AA00     		lsls	r2, r5, #2
 1401 0258 2A44     		add	r2, r2, r5
 1402 025a D300     		lsls	r3, r2, #3
 1403 025c 3344     		add	r3, r3, r6
 1404 025e 9A6D     		ldr	r2, [r3, #88]
 1405 0260 0132     		adds	r2, r2, #1
 1406 0262 9A65     		str	r2, [r3, #88]
1303:Drivers/STM32F7xx_HAL_Driver/Src/stm32f7xx_hal_hcd.c ****     }
 1407              		.loc 1 1303 0
 1408 0264 0422     		movs	r2, #4
 1409 0266 83F85C20 		strb	r2, [r3, #92]
 1410 026a D3E7     		b	.L93
 1411              	.L111:
1293:Drivers/STM32F7xx_HAL_Driver/Src/stm32f7xx_hal_hcd.c ****       /* re-activate the channel  */
 1412              		.loc 1 1293 0
 1413 026c 05EB8502 		add	r2, r5, r5, lsl #2
 1414 0270 D300     		lsls	r3, r2, #3
 1415 0272 3344     		add	r3, r3, r6
 1416 0274 0222     		movs	r2, #2
 1417 0276 83F85C20 		strb	r2, [r3, #92]
1295:Drivers/STM32F7xx_HAL_Driver/Src/stm32f7xx_hal_hcd.c ****       tmpreg &= ~USB_OTG_HCCHAR_CHDIS;
 1418              		.loc 1 1295 0
 1419 027a D7F80035 		ldr	r3, [r7, #1280]
 1420              	.LVL110:
1296:Drivers/STM32F7xx_HAL_Driver/Src/stm32f7xx_hal_hcd.c ****       tmpreg |= USB_OTG_HCCHAR_CHENA;
 1421              		.loc 1 1296 0
 1422 027e 23F08043 		bic	r3, r3, #1073741824
 1423              	.LVL111:
1297:Drivers/STM32F7xx_HAL_Driver/Src/stm32f7xx_hal_hcd.c ****       USBx_HC(ch_num)->HCCHAR = tmpreg;
 1424              		.loc 1 1297 0
 1425 0282 43F00043 		orr	r3, r3, #-2147483648
 1426              	.LVL112:
1298:Drivers/STM32F7xx_HAL_Driver/Src/stm32f7xx_hal_hcd.c ****     }
 1427              		.loc 1 1298 0
 1428 0286 C7F80035 		str	r3, [r7, #1280]
 1429 028a C3E7     		b	.L93
 1430              	.LVL113:
 1431              	.L91:
1312:Drivers/STM32F7xx_HAL_Driver/Src/stm32f7xx_hal_hcd.c ****   {
 1432              		.loc 1 1312 0
 1433 028c A368     		ldr	r3, [r4, #8]
 1434 028e 13F0800F 		tst	r3, #128
 1435 0292 21D1     		bne	.L112
1320:Drivers/STM32F7xx_HAL_Driver/Src/stm32f7xx_hal_hcd.c ****   {
 1436              		.loc 1 1320 0
 1437 0294 A368     		ldr	r3, [r4, #8]
 1438 0296 13F0100F 		tst	r3, #16
 1439 029a 3FF4FCAE 		beq	.L78
1322:Drivers/STM32F7xx_HAL_Driver/Src/stm32f7xx_hal_hcd.c ****     {
 1440              		.loc 1 1322 0
 1441 029e 05EB8502 		add	r2, r5, r5, lsl #2
 1442 02a2 D300     		lsls	r3, r2, #3
 1443 02a4 1A46     		mov	r2, r3
 1444 02a6 3344     		add	r3, r3, r6
 1445 02a8 93F83F30 		ldrb	r3, [r3, #63]	@ zero_extendqisi2
 1446 02ac 032B     		cmp	r3, #3
ARM GAS  /tmp/ccqVt8hD.s 			page 58


 1447 02ae 2BD0     		beq	.L113
1328:Drivers/STM32F7xx_HAL_Driver/Src/stm32f7xx_hal_hcd.c ****              (hhcd->hc[ch_num].ep_type == EP_TYPE_BULK))
 1448              		.loc 1 1328 0
 1449 02b0 022B     		cmp	r3, #2
 1450 02b2 14BF     		ite	ne
 1451 02b4 0022     		movne	r2, #0
 1452 02b6 0122     		moveq	r2, #1
 1453 02b8 002B     		cmp	r3, #0
 1454 02ba 14BF     		ite	ne
 1455 02bc 1346     		movne	r3, r2
 1456 02be 0123     		moveq	r3, #1
 1457 02c0 3BB1     		cbz	r3, .L101
1331:Drivers/STM32F7xx_HAL_Driver/Src/stm32f7xx_hal_hcd.c **** 
 1458              		.loc 1 1331 0
 1459 02c2 05EB8502 		add	r2, r5, r5, lsl #2
 1460 02c6 D300     		lsls	r3, r2, #3
 1461 02c8 3344     		add	r3, r3, r6
 1462 02ca 0022     		movs	r2, #0
 1463 02cc 9A65     		str	r2, [r3, #88]
1333:Drivers/STM32F7xx_HAL_Driver/Src/stm32f7xx_hal_hcd.c ****       {
 1464              		.loc 1 1333 0
 1465 02ce 3369     		ldr	r3, [r6, #16]
 1466 02d0 4BB3     		cbz	r3, .L114
 1467              	.L101:
1344:Drivers/STM32F7xx_HAL_Driver/Src/stm32f7xx_hal_hcd.c ****   }
 1468              		.loc 1 1344 0
 1469 02d2 1023     		movs	r3, #16
 1470 02d4 A360     		str	r3, [r4, #8]
1350:Drivers/STM32F7xx_HAL_Driver/Src/stm32f7xx_hal_hcd.c **** 
 1471              		.loc 1 1350 0
 1472 02d6 DEE6     		b	.L78
 1473              	.L112:
1314:Drivers/STM32F7xx_HAL_Driver/Src/stm32f7xx_hal_hcd.c ****     hhcd->hc[ch_num].ErrCnt++;
 1474              		.loc 1 1314 0
 1475 02d8 E368     		ldr	r3, [r4, #12]
 1476 02da 43F00203 		orr	r3, r3, #2
 1477 02de E360     		str	r3, [r4, #12]
1315:Drivers/STM32F7xx_HAL_Driver/Src/stm32f7xx_hal_hcd.c ****     hhcd->hc[ch_num].state = HC_XACTERR;
 1478              		.loc 1 1315 0
 1479 02e0 AB00     		lsls	r3, r5, #2
 1480 02e2 5919     		adds	r1, r3, r5
 1481 02e4 CA00     		lsls	r2, r1, #3
 1482 02e6 3244     		add	r2, r2, r6
 1483 02e8 916D     		ldr	r1, [r2, #88]
 1484 02ea 0131     		adds	r1, r1, #1
 1485 02ec 9165     		str	r1, [r2, #88]
1316:Drivers/STM32F7xx_HAL_Driver/Src/stm32f7xx_hal_hcd.c ****     (void)USB_HC_Halt(hhcd->Instance, (uint8_t)ch_num);
 1486              		.loc 1 1316 0
 1487 02ee 2B44     		add	r3, r3, r5
 1488 02f0 DA00     		lsls	r2, r3, #3
 1489 02f2 3244     		add	r2, r2, r6
 1490 02f4 0623     		movs	r3, #6
 1491 02f6 82F85D30 		strb	r3, [r2, #93]
1317:Drivers/STM32F7xx_HAL_Driver/Src/stm32f7xx_hal_hcd.c ****     __HAL_HCD_CLEAR_HC_INT(ch_num, USB_OTG_HCINT_TXERR);
 1492              		.loc 1 1317 0
 1493 02fa 2946     		mov	r1, r5
 1494 02fc 3068     		ldr	r0, [r6]
ARM GAS  /tmp/ccqVt8hD.s 			page 59


 1495 02fe FFF7FEFF 		bl	USB_HC_Halt
 1496              	.LVL114:
1318:Drivers/STM32F7xx_HAL_Driver/Src/stm32f7xx_hal_hcd.c ****   }
 1497              		.loc 1 1318 0
 1498 0302 8023     		movs	r3, #128
 1499 0304 A360     		str	r3, [r4, #8]
 1500 0306 C6E6     		b	.L78
 1501              	.L113:
1324:Drivers/STM32F7xx_HAL_Driver/Src/stm32f7xx_hal_hcd.c ****       __HAL_HCD_UNMASK_HALT_HC_INT(ch_num);
 1502              		.loc 1 1324 0
 1503 0308 05EB8502 		add	r2, r5, r5, lsl #2
 1504 030c D300     		lsls	r3, r2, #3
 1505 030e 3344     		add	r3, r3, r6
 1506 0310 0022     		movs	r2, #0
 1507 0312 9A65     		str	r2, [r3, #88]
1325:Drivers/STM32F7xx_HAL_Driver/Src/stm32f7xx_hal_hcd.c ****       (void)USB_HC_Halt(hhcd->Instance, (uint8_t)ch_num);
 1508              		.loc 1 1325 0
 1509 0314 E368     		ldr	r3, [r4, #12]
 1510 0316 43F00203 		orr	r3, r3, #2
 1511 031a E360     		str	r3, [r4, #12]
1326:Drivers/STM32F7xx_HAL_Driver/Src/stm32f7xx_hal_hcd.c ****     }
 1512              		.loc 1 1326 0
 1513 031c 2946     		mov	r1, r5
 1514 031e 3068     		ldr	r0, [r6]
 1515 0320 FFF7FEFF 		bl	USB_HC_Halt
 1516              	.LVL115:
 1517 0324 D5E7     		b	.L101
 1518              	.L114:
1335:Drivers/STM32F7xx_HAL_Driver/Src/stm32f7xx_hal_hcd.c ****         __HAL_HCD_UNMASK_HALT_HC_INT(ch_num);
 1519              		.loc 1 1335 0
 1520 0326 05EB8502 		add	r2, r5, r5, lsl #2
 1521 032a D300     		lsls	r3, r2, #3
 1522 032c 3344     		add	r3, r3, r6
 1523 032e 0322     		movs	r2, #3
 1524 0330 83F85D20 		strb	r2, [r3, #93]
1336:Drivers/STM32F7xx_HAL_Driver/Src/stm32f7xx_hal_hcd.c ****         (void)USB_HC_Halt(hhcd->Instance, (uint8_t)ch_num);
 1525              		.loc 1 1336 0
 1526 0334 E368     		ldr	r3, [r4, #12]
 1527 0336 43F00203 		orr	r3, r3, #2
 1528 033a E360     		str	r3, [r4, #12]
1337:Drivers/STM32F7xx_HAL_Driver/Src/stm32f7xx_hal_hcd.c ****       }
 1529              		.loc 1 1337 0
 1530 033c 2946     		mov	r1, r5
 1531 033e 3068     		ldr	r0, [r6]
 1532 0340 FFF7FEFF 		bl	USB_HC_Halt
 1533              	.LVL116:
 1534 0344 C5E7     		b	.L101
 1535              		.cfi_endproc
 1536              	.LFE164:
 1538              		.section	.text.HCD_HC_OUT_IRQHandler,"ax",%progbits
 1539              		.align	1
 1540              		.syntax unified
 1541              		.thumb
 1542              		.thumb_func
 1543              		.fpu fpv5-sp-d16
 1545              	HCD_HC_OUT_IRQHandler:
 1546              	.LFB165:
ARM GAS  /tmp/ccqVt8hD.s 			page 60


1360:Drivers/STM32F7xx_HAL_Driver/Src/stm32f7xx_hal_hcd.c ****   USB_OTG_GlobalTypeDef *USBx = hhcd->Instance;
 1547              		.loc 1 1360 0
 1548              		.cfi_startproc
 1549              		@ args = 0, pretend = 0, frame = 0
 1550              		@ frame_needed = 0, uses_anonymous_args = 0
 1551              	.LVL117:
 1552 0000 F8B5     		push	{r3, r4, r5, r6, r7, lr}
 1553              	.LCFI20:
 1554              		.cfi_def_cfa_offset 24
 1555              		.cfi_offset 3, -24
 1556              		.cfi_offset 4, -20
 1557              		.cfi_offset 5, -16
 1558              		.cfi_offset 6, -12
 1559              		.cfi_offset 7, -8
 1560              		.cfi_offset 14, -4
1361:Drivers/STM32F7xx_HAL_Driver/Src/stm32f7xx_hal_hcd.c ****   uint32_t USBx_BASE = (uint32_t)USBx;
 1561              		.loc 1 1361 0
 1562 0002 0368     		ldr	r3, [r0]
 1563              	.LVL118:
1366:Drivers/STM32F7xx_HAL_Driver/Src/stm32f7xx_hal_hcd.c ****   {
 1564              		.loc 1 1366 0
 1565 0004 03EB4113 		add	r3, r3, r1, lsl #5
 1566              	.LVL119:
 1567 0008 03F5A064 		add	r4, r3, #1280
 1568 000c A268     		ldr	r2, [r4, #8]
 1569 000e 12F0040F 		tst	r2, #4
 1570 0012 24D1     		bne	.L135
 1571 0014 0E46     		mov	r6, r1
 1572 0016 0546     		mov	r5, r0
1371:Drivers/STM32F7xx_HAL_Driver/Src/stm32f7xx_hal_hcd.c ****   {
 1573              		.loc 1 1371 0
 1574 0018 A268     		ldr	r2, [r4, #8]
 1575 001a 12F0200F 		tst	r2, #32
 1576 001e 25D0     		beq	.L118
1373:Drivers/STM32F7xx_HAL_Driver/Src/stm32f7xx_hal_hcd.c **** 
 1577              		.loc 1 1373 0
 1578 0020 2023     		movs	r3, #32
 1579 0022 A360     		str	r3, [r4, #8]
 1580              	.LVL120:
1375:Drivers/STM32F7xx_HAL_Driver/Src/stm32f7xx_hal_hcd.c ****     {
 1581              		.loc 1 1375 0
 1582 0024 01EB8102 		add	r2, r1, r1, lsl #2
 1583 0028 D300     		lsls	r3, r2, #3
 1584 002a 1A46     		mov	r2, r3
 1585 002c 0344     		add	r3, r3, r0
 1586 002e 93F83D30 		ldrb	r3, [r3, #61]	@ zero_extendqisi2
 1587 0032 012B     		cmp	r3, #1
 1588 0034 19D1     		bne	.L115
1377:Drivers/STM32F7xx_HAL_Driver/Src/stm32f7xx_hal_hcd.c ****       hhcd->hc[ch_num].urb_state  = URB_NOTREADY;
 1589              		.loc 1 1377 0
 1590 0036 8B00     		lsls	r3, r1, #2
 1591 0038 0244     		add	r2, r2, r0
 1592 003a 0021     		movs	r1, #0
 1593              	.LVL121:
 1594 003c 82F83D10 		strb	r1, [r2, #61]
1378:Drivers/STM32F7xx_HAL_Driver/Src/stm32f7xx_hal_hcd.c ****       __HAL_HCD_UNMASK_HALT_HC_INT(ch_num);
 1595              		.loc 1 1378 0
ARM GAS  /tmp/ccqVt8hD.s 			page 61


 1596 0040 3344     		add	r3, r3, r6
 1597 0042 DA00     		lsls	r2, r3, #3
 1598 0044 0244     		add	r2, r2, r0
 1599 0046 0223     		movs	r3, #2
 1600 0048 82F85C30 		strb	r3, [r2, #92]
1379:Drivers/STM32F7xx_HAL_Driver/Src/stm32f7xx_hal_hcd.c ****       (void)USB_HC_Halt(hhcd->Instance, (uint8_t)ch_num);
 1601              		.loc 1 1379 0
 1602 004c E368     		ldr	r3, [r4, #12]
 1603 004e 43F00203 		orr	r3, r3, #2
 1604 0052 E360     		str	r3, [r4, #12]
1380:Drivers/STM32F7xx_HAL_Driver/Src/stm32f7xx_hal_hcd.c ****     }
 1605              		.loc 1 1380 0
 1606 0054 3146     		mov	r1, r6
 1607 0056 0068     		ldr	r0, [r0]
 1608              	.LVL122:
 1609 0058 FFF7FEFF 		bl	USB_HC_Halt
 1610              	.LVL123:
 1611 005c 05E0     		b	.L115
 1612              	.LVL124:
 1613              	.L135:
1368:Drivers/STM32F7xx_HAL_Driver/Src/stm32f7xx_hal_hcd.c ****     __HAL_HCD_UNMASK_HALT_HC_INT(ch_num);
 1614              		.loc 1 1368 0
 1615 005e 0423     		movs	r3, #4
 1616 0060 A360     		str	r3, [r4, #8]
 1617              	.LVL125:
1369:Drivers/STM32F7xx_HAL_Driver/Src/stm32f7xx_hal_hcd.c ****   }
 1618              		.loc 1 1369 0
 1619 0062 E368     		ldr	r3, [r4, #12]
 1620 0064 43F00203 		orr	r3, r3, #2
 1621 0068 E360     		str	r3, [r4, #12]
 1622              	.LVL126:
 1623              	.L115:
1502:Drivers/STM32F7xx_HAL_Driver/Src/stm32f7xx_hal_hcd.c **** 
 1624              		.loc 1 1502 0
 1625 006a F8BD     		pop	{r3, r4, r5, r6, r7, pc}
 1626              	.LVL127:
 1627              	.L118:
1383:Drivers/STM32F7xx_HAL_Driver/Src/stm32f7xx_hal_hcd.c ****   {
 1628              		.loc 1 1383 0
 1629 006c A268     		ldr	r2, [r4, #8]
 1630 006e 12F0400F 		tst	r2, #64
 1631 0072 34D1     		bne	.L136
1392:Drivers/STM32F7xx_HAL_Driver/Src/stm32f7xx_hal_hcd.c ****   {
 1632              		.loc 1 1392 0
 1633 0074 A268     		ldr	r2, [r4, #8]
 1634 0076 12F4007F 		tst	r2, #512
 1635 007a 4AD1     		bne	.L137
1398:Drivers/STM32F7xx_HAL_Driver/Src/stm32f7xx_hal_hcd.c ****   {
 1636              		.loc 1 1398 0
 1637 007c A268     		ldr	r2, [r4, #8]
 1638 007e 12F0010F 		tst	r2, #1
 1639 0082 51D1     		bne	.L138
1406:Drivers/STM32F7xx_HAL_Driver/Src/stm32f7xx_hal_hcd.c ****   {
 1640              		.loc 1 1406 0
 1641 0084 A268     		ldr	r2, [r4, #8]
 1642 0086 12F0080F 		tst	r2, #8
 1643 008a 62D1     		bne	.L139
ARM GAS  /tmp/ccqVt8hD.s 			page 62


1413:Drivers/STM32F7xx_HAL_Driver/Src/stm32f7xx_hal_hcd.c ****   {
 1644              		.loc 1 1413 0
 1645 008c A268     		ldr	r2, [r4, #8]
 1646 008e 12F0100F 		tst	r2, #16
 1647 0092 6FD0     		beq	.L123
1415:Drivers/STM32F7xx_HAL_Driver/Src/stm32f7xx_hal_hcd.c ****     hhcd->hc[ch_num].state = HC_NAK;
 1648              		.loc 1 1415 0
 1649 0094 8A00     		lsls	r2, r1, #2
 1650 0096 0A44     		add	r2, r2, r1
 1651 0098 D300     		lsls	r3, r2, #3
 1652 009a 0344     		add	r3, r3, r0
 1653 009c 0022     		movs	r2, #0
 1654 009e 9A65     		str	r2, [r3, #88]
 1655              	.LVL128:
1416:Drivers/STM32F7xx_HAL_Driver/Src/stm32f7xx_hal_hcd.c **** 
 1656              		.loc 1 1416 0
 1657 00a0 0322     		movs	r2, #3
 1658 00a2 83F85D20 		strb	r2, [r3, #93]
1418:Drivers/STM32F7xx_HAL_Driver/Src/stm32f7xx_hal_hcd.c ****     {
 1659              		.loc 1 1418 0
 1660 00a6 93F83D30 		ldrb	r3, [r3, #61]	@ zero_extendqisi2
 1661 00aa 6BB9     		cbnz	r3, .L124
1420:Drivers/STM32F7xx_HAL_Driver/Src/stm32f7xx_hal_hcd.c ****       {
 1662              		.loc 1 1420 0
 1663 00ac 01EB8102 		add	r2, r1, r1, lsl #2
 1664 00b0 D300     		lsls	r3, r2, #3
 1665 00b2 0344     		add	r3, r3, r0
 1666 00b4 93F83C30 		ldrb	r3, [r3, #60]	@ zero_extendqisi2
 1667 00b8 33B9     		cbnz	r3, .L124
1422:Drivers/STM32F7xx_HAL_Driver/Src/stm32f7xx_hal_hcd.c ****       }
 1668              		.loc 1 1422 0
 1669 00ba 01EB8102 		add	r2, r1, r1, lsl #2
 1670 00be D300     		lsls	r3, r2, #3
 1671 00c0 0344     		add	r3, r3, r0
 1672 00c2 0122     		movs	r2, #1
 1673 00c4 83F83D20 		strb	r2, [r3, #61]
 1674              	.L124:
1426:Drivers/STM32F7xx_HAL_Driver/Src/stm32f7xx_hal_hcd.c ****     (void)USB_HC_Halt(hhcd->Instance, (uint8_t)ch_num);
 1675              		.loc 1 1426 0
 1676 00c8 E368     		ldr	r3, [r4, #12]
 1677 00ca 43F00203 		orr	r3, r3, #2
 1678 00ce E360     		str	r3, [r4, #12]
1427:Drivers/STM32F7xx_HAL_Driver/Src/stm32f7xx_hal_hcd.c ****     __HAL_HCD_CLEAR_HC_INT(ch_num, USB_OTG_HCINT_NAK);
 1679              		.loc 1 1427 0
 1680 00d0 3146     		mov	r1, r6
 1681              	.LVL129:
 1682 00d2 2868     		ldr	r0, [r5]
 1683              	.LVL130:
 1684 00d4 FFF7FEFF 		bl	USB_HC_Halt
 1685              	.LVL131:
1428:Drivers/STM32F7xx_HAL_Driver/Src/stm32f7xx_hal_hcd.c ****   }
 1686              		.loc 1 1428 0
 1687 00d8 1023     		movs	r3, #16
 1688 00da A360     		str	r3, [r4, #8]
 1689 00dc C5E7     		b	.L115
 1690              	.LVL132:
 1691              	.L136:
ARM GAS  /tmp/ccqVt8hD.s 			page 63


1385:Drivers/STM32F7xx_HAL_Driver/Src/stm32f7xx_hal_hcd.c ****     hhcd->hc[ch_num].do_ping = 1U;
 1692              		.loc 1 1385 0
 1693 00de 8B00     		lsls	r3, r1, #2
 1694 00e0 5918     		adds	r1, r3, r1
 1695              	.LVL133:
 1696 00e2 CA00     		lsls	r2, r1, #3
 1697 00e4 0244     		add	r2, r2, r0
 1698 00e6 0421     		movs	r1, #4
 1699 00e8 82F85D10 		strb	r1, [r2, #93]
 1700              	.LVL134:
1386:Drivers/STM32F7xx_HAL_Driver/Src/stm32f7xx_hal_hcd.c ****     hhcd->hc[ch_num].ErrCnt = 0U;
 1701              		.loc 1 1386 0
 1702 00ec 0121     		movs	r1, #1
 1703 00ee 82F83D10 		strb	r1, [r2, #61]
1387:Drivers/STM32F7xx_HAL_Driver/Src/stm32f7xx_hal_hcd.c ****     __HAL_HCD_UNMASK_HALT_HC_INT(ch_num);
 1704              		.loc 1 1387 0
 1705 00f2 3344     		add	r3, r3, r6
 1706 00f4 DA00     		lsls	r2, r3, #3
 1707 00f6 0244     		add	r2, r2, r0
 1708 00f8 0023     		movs	r3, #0
 1709 00fa 9365     		str	r3, [r2, #88]
1388:Drivers/STM32F7xx_HAL_Driver/Src/stm32f7xx_hal_hcd.c ****     (void)USB_HC_Halt(hhcd->Instance, (uint8_t)ch_num);
 1710              		.loc 1 1388 0
 1711 00fc E368     		ldr	r3, [r4, #12]
 1712 00fe 43F00203 		orr	r3, r3, #2
 1713 0102 E360     		str	r3, [r4, #12]
1389:Drivers/STM32F7xx_HAL_Driver/Src/stm32f7xx_hal_hcd.c ****     __HAL_HCD_CLEAR_HC_INT(ch_num, USB_OTG_HCINT_NYET);
 1714              		.loc 1 1389 0
 1715 0104 3146     		mov	r1, r6
 1716 0106 0068     		ldr	r0, [r0]
 1717              	.LVL135:
 1718 0108 FFF7FEFF 		bl	USB_HC_Halt
 1719              	.LVL136:
1390:Drivers/STM32F7xx_HAL_Driver/Src/stm32f7xx_hal_hcd.c ****   }
 1720              		.loc 1 1390 0
 1721 010c 4023     		movs	r3, #64
 1722 010e A360     		str	r3, [r4, #8]
 1723 0110 ABE7     		b	.L115
 1724              	.LVL137:
 1725              	.L137:
1394:Drivers/STM32F7xx_HAL_Driver/Src/stm32f7xx_hal_hcd.c ****     (void)USB_HC_Halt(hhcd->Instance, (uint8_t)ch_num);
 1726              		.loc 1 1394 0
 1727 0112 E368     		ldr	r3, [r4, #12]
 1728 0114 43F00203 		orr	r3, r3, #2
 1729 0118 E360     		str	r3, [r4, #12]
 1730              	.LVL138:
1395:Drivers/STM32F7xx_HAL_Driver/Src/stm32f7xx_hal_hcd.c ****     __HAL_HCD_CLEAR_HC_INT(ch_num, USB_OTG_HCINT_FRMOR);
 1731              		.loc 1 1395 0
 1732 011a 0068     		ldr	r0, [r0]
 1733              	.LVL139:
 1734 011c FFF7FEFF 		bl	USB_HC_Halt
 1735              	.LVL140:
1396:Drivers/STM32F7xx_HAL_Driver/Src/stm32f7xx_hal_hcd.c ****   }
 1736              		.loc 1 1396 0
 1737 0120 4FF40073 		mov	r3, #512
 1738 0124 A360     		str	r3, [r4, #8]
 1739 0126 A0E7     		b	.L115
ARM GAS  /tmp/ccqVt8hD.s 			page 64


 1740              	.LVL141:
 1741              	.L138:
1400:Drivers/STM32F7xx_HAL_Driver/Src/stm32f7xx_hal_hcd.c ****     __HAL_HCD_UNMASK_HALT_HC_INT(ch_num);
 1742              		.loc 1 1400 0
 1743 0128 8F00     		lsls	r7, r1, #2
 1744 012a 7A18     		adds	r2, r7, r1
 1745 012c D300     		lsls	r3, r2, #3
 1746 012e 0344     		add	r3, r3, r0
 1747 0130 0022     		movs	r2, #0
 1748 0132 9A65     		str	r2, [r3, #88]
 1749              	.LVL142:
1401:Drivers/STM32F7xx_HAL_Driver/Src/stm32f7xx_hal_hcd.c ****     (void)USB_HC_Halt(hhcd->Instance, (uint8_t)ch_num);
 1750              		.loc 1 1401 0
 1751 0134 E368     		ldr	r3, [r4, #12]
 1752 0136 43F00203 		orr	r3, r3, #2
 1753 013a E360     		str	r3, [r4, #12]
1402:Drivers/STM32F7xx_HAL_Driver/Src/stm32f7xx_hal_hcd.c ****     __HAL_HCD_CLEAR_HC_INT(ch_num, USB_OTG_HCINT_XFRC);
 1754              		.loc 1 1402 0
 1755 013c 0068     		ldr	r0, [r0]
 1756              	.LVL143:
 1757 013e FFF7FEFF 		bl	USB_HC_Halt
 1758              	.LVL144:
1403:Drivers/STM32F7xx_HAL_Driver/Src/stm32f7xx_hal_hcd.c ****     hhcd->hc[ch_num].state = HC_XFRC;
 1759              		.loc 1 1403 0
 1760 0142 0123     		movs	r3, #1
 1761 0144 A360     		str	r3, [r4, #8]
1404:Drivers/STM32F7xx_HAL_Driver/Src/stm32f7xx_hal_hcd.c ****   }
 1762              		.loc 1 1404 0
 1763 0146 B919     		adds	r1, r7, r6
 1764 0148 C800     		lsls	r0, r1, #3
 1765 014a 2844     		add	r0, r0, r5
 1766 014c 80F85D30 		strb	r3, [r0, #93]
 1767 0150 8BE7     		b	.L115
 1768              	.LVL145:
 1769              	.L139:
1408:Drivers/STM32F7xx_HAL_Driver/Src/stm32f7xx_hal_hcd.c ****     __HAL_HCD_UNMASK_HALT_HC_INT(ch_num);
 1770              		.loc 1 1408 0
 1771 0152 0823     		movs	r3, #8
 1772 0154 A360     		str	r3, [r4, #8]
 1773              	.LVL146:
1409:Drivers/STM32F7xx_HAL_Driver/Src/stm32f7xx_hal_hcd.c ****     (void)USB_HC_Halt(hhcd->Instance, (uint8_t)ch_num);
 1774              		.loc 1 1409 0
 1775 0156 E368     		ldr	r3, [r4, #12]
 1776 0158 43F00203 		orr	r3, r3, #2
 1777 015c E360     		str	r3, [r4, #12]
1410:Drivers/STM32F7xx_HAL_Driver/Src/stm32f7xx_hal_hcd.c ****     hhcd->hc[ch_num].state = HC_STALL;
 1778              		.loc 1 1410 0
 1779 015e 0068     		ldr	r0, [r0]
 1780              	.LVL147:
 1781 0160 FFF7FEFF 		bl	USB_HC_Halt
 1782              	.LVL148:
1411:Drivers/STM32F7xx_HAL_Driver/Src/stm32f7xx_hal_hcd.c ****   }
 1783              		.loc 1 1411 0
 1784 0164 06EB8601 		add	r1, r6, r6, lsl #2
 1785 0168 C800     		lsls	r0, r1, #3
 1786 016a 2844     		add	r0, r0, r5
 1787 016c 0523     		movs	r3, #5
ARM GAS  /tmp/ccqVt8hD.s 			page 65


 1788 016e 80F85D30 		strb	r3, [r0, #93]
 1789 0172 7AE7     		b	.L115
 1790              	.LVL149:
 1791              	.L123:
1430:Drivers/STM32F7xx_HAL_Driver/Src/stm32f7xx_hal_hcd.c ****   {
 1792              		.loc 1 1430 0
 1793 0174 A268     		ldr	r2, [r4, #8]
 1794 0176 12F0800F 		tst	r2, #128
 1795 017a 36D1     		bne	.L140
1437:Drivers/STM32F7xx_HAL_Driver/Src/stm32f7xx_hal_hcd.c ****   {
 1796              		.loc 1 1437 0
 1797 017c A268     		ldr	r2, [r4, #8]
 1798 017e 12F4806F 		tst	r2, #1024
 1799 0182 43D1     		bne	.L141
1445:Drivers/STM32F7xx_HAL_Driver/Src/stm32f7xx_hal_hcd.c ****   {
 1800              		.loc 1 1445 0
 1801 0184 A268     		ldr	r2, [r4, #8]
 1802 0186 12F0020F 		tst	r2, #2
 1803 018a 3FF46EAF 		beq	.L115
1447:Drivers/STM32F7xx_HAL_Driver/Src/stm32f7xx_hal_hcd.c **** 
 1804              		.loc 1 1447 0
 1805 018e E268     		ldr	r2, [r4, #12]
 1806 0190 22F00202 		bic	r2, r2, #2
 1807 0194 E260     		str	r2, [r4, #12]
 1808              	.LVL150:
1449:Drivers/STM32F7xx_HAL_Driver/Src/stm32f7xx_hal_hcd.c ****     {
 1809              		.loc 1 1449 0
 1810 0196 01EB8101 		add	r1, r1, r1, lsl #2
 1811              	.LVL151:
 1812 019a CA00     		lsls	r2, r1, #3
 1813 019c 1146     		mov	r1, r2
 1814 019e 0244     		add	r2, r2, r0
 1815 01a0 92F85D20 		ldrb	r2, [r2, #93]	@ zero_extendqisi2
 1816 01a4 012A     		cmp	r2, #1
 1817 01a6 45D0     		beq	.L142
1458:Drivers/STM32F7xx_HAL_Driver/Src/stm32f7xx_hal_hcd.c ****     {
 1818              		.loc 1 1458 0
 1819 01a8 032A     		cmp	r2, #3
 1820 01aa 57D0     		beq	.L143
1462:Drivers/STM32F7xx_HAL_Driver/Src/stm32f7xx_hal_hcd.c ****     {
 1821              		.loc 1 1462 0
 1822 01ac 042A     		cmp	r2, #4
 1823 01ae 69D0     		beq	.L144
1466:Drivers/STM32F7xx_HAL_Driver/Src/stm32f7xx_hal_hcd.c ****     {
 1824              		.loc 1 1466 0
 1825 01b0 052A     		cmp	r2, #5
 1826 01b2 6FD0     		beq	.L145
1470:Drivers/STM32F7xx_HAL_Driver/Src/stm32f7xx_hal_hcd.c ****              (hhcd->hc[ch_num].state == HC_DATATGLERR))
 1827              		.loc 1 1470 0
 1828 01b4 082A     		cmp	r2, #8
 1829 01b6 18BF     		it	ne
 1830 01b8 062A     		cmpne	r2, #6
 1831 01ba 56D1     		bne	.L128
1473:Drivers/STM32F7xx_HAL_Driver/Src/stm32f7xx_hal_hcd.c ****       if (hhcd->hc[ch_num].ErrCnt > 3U)
 1832              		.loc 1 1473 0
 1833 01bc 2821     		movs	r1, #40
 1834 01be 01FB0601 		mla	r1, r1, r6, r0
ARM GAS  /tmp/ccqVt8hD.s 			page 66


 1835 01c2 8A6D     		ldr	r2, [r1, #88]
 1836 01c4 0132     		adds	r2, r2, #1
 1837 01c6 8A65     		str	r2, [r1, #88]
1474:Drivers/STM32F7xx_HAL_Driver/Src/stm32f7xx_hal_hcd.c ****       {
 1838              		.loc 1 1474 0
 1839 01c8 032A     		cmp	r2, #3
 1840 01ca 69D9     		bls	.L132
1476:Drivers/STM32F7xx_HAL_Driver/Src/stm32f7xx_hal_hcd.c ****         hhcd->hc[ch_num].urb_state = URB_ERROR;
 1841              		.loc 1 1476 0
 1842 01cc 0A46     		mov	r2, r1
 1843 01ce 0021     		movs	r1, #0
 1844 01d0 9165     		str	r1, [r2, #88]
1477:Drivers/STM32F7xx_HAL_Driver/Src/stm32f7xx_hal_hcd.c ****       }
 1845              		.loc 1 1477 0
 1846 01d2 0421     		movs	r1, #4
 1847 01d4 82F85C10 		strb	r1, [r2, #92]
 1848              	.L133:
1485:Drivers/STM32F7xx_HAL_Driver/Src/stm32f7xx_hal_hcd.c ****       tmpreg &= ~USB_OTG_HCCHAR_CHDIS;
 1849              		.loc 1 1485 0
 1850 01d8 D3F80025 		ldr	r2, [r3, #1280]
 1851              	.LVL152:
1486:Drivers/STM32F7xx_HAL_Driver/Src/stm32f7xx_hal_hcd.c ****       tmpreg |= USB_OTG_HCCHAR_CHENA;
 1852              		.loc 1 1486 0
 1853 01dc 22F08042 		bic	r2, r2, #1073741824
 1854              	.LVL153:
1487:Drivers/STM32F7xx_HAL_Driver/Src/stm32f7xx_hal_hcd.c ****       USBx_HC(ch_num)->HCCHAR = tmpreg;
 1855              		.loc 1 1487 0
 1856 01e0 42F00042 		orr	r2, r2, #-2147483648
 1857              	.LVL154:
1488:Drivers/STM32F7xx_HAL_Driver/Src/stm32f7xx_hal_hcd.c ****     }
 1858              		.loc 1 1488 0
 1859 01e4 C3F80025 		str	r2, [r3, #1280]
 1860 01e8 3FE0     		b	.L128
 1861              	.LVL155:
 1862              	.L140:
1432:Drivers/STM32F7xx_HAL_Driver/Src/stm32f7xx_hal_hcd.c ****     (void)USB_HC_Halt(hhcd->Instance, (uint8_t)ch_num);
 1863              		.loc 1 1432 0
 1864 01ea E368     		ldr	r3, [r4, #12]
 1865 01ec 43F00203 		orr	r3, r3, #2
 1866 01f0 E360     		str	r3, [r4, #12]
 1867              	.LVL156:
1433:Drivers/STM32F7xx_HAL_Driver/Src/stm32f7xx_hal_hcd.c ****     hhcd->hc[ch_num].state = HC_XACTERR;
 1868              		.loc 1 1433 0
 1869 01f2 0068     		ldr	r0, [r0]
 1870              	.LVL157:
 1871 01f4 FFF7FEFF 		bl	USB_HC_Halt
 1872              	.LVL158:
1434:Drivers/STM32F7xx_HAL_Driver/Src/stm32f7xx_hal_hcd.c ****     __HAL_HCD_CLEAR_HC_INT(ch_num, USB_OTG_HCINT_TXERR);
 1873              		.loc 1 1434 0
 1874 01f8 06EB8601 		add	r1, r6, r6, lsl #2
 1875 01fc CB00     		lsls	r3, r1, #3
 1876 01fe 2B44     		add	r3, r3, r5
 1877 0200 0622     		movs	r2, #6
 1878 0202 83F85D20 		strb	r2, [r3, #93]
1435:Drivers/STM32F7xx_HAL_Driver/Src/stm32f7xx_hal_hcd.c ****   }
 1879              		.loc 1 1435 0
 1880 0206 8023     		movs	r3, #128
ARM GAS  /tmp/ccqVt8hD.s 			page 67


 1881 0208 A360     		str	r3, [r4, #8]
 1882 020a 2EE7     		b	.L115
 1883              	.LVL159:
 1884              	.L141:
1439:Drivers/STM32F7xx_HAL_Driver/Src/stm32f7xx_hal_hcd.c ****     (void)USB_HC_Halt(hhcd->Instance, (uint8_t)ch_num);
 1885              		.loc 1 1439 0
 1886 020c E368     		ldr	r3, [r4, #12]
 1887 020e 43F00203 		orr	r3, r3, #2
 1888 0212 E360     		str	r3, [r4, #12]
 1889              	.LVL160:
1440:Drivers/STM32F7xx_HAL_Driver/Src/stm32f7xx_hal_hcd.c ****     __HAL_HCD_CLEAR_HC_INT(ch_num, USB_OTG_HCINT_NAK);
 1890              		.loc 1 1440 0
 1891 0214 0068     		ldr	r0, [r0]
 1892              	.LVL161:
 1893 0216 FFF7FEFF 		bl	USB_HC_Halt
 1894              	.LVL162:
1441:Drivers/STM32F7xx_HAL_Driver/Src/stm32f7xx_hal_hcd.c ****     __HAL_HCD_CLEAR_HC_INT(ch_num, USB_OTG_HCINT_DTERR);
 1895              		.loc 1 1441 0
 1896 021a 1023     		movs	r3, #16
 1897 021c A360     		str	r3, [r4, #8]
1442:Drivers/STM32F7xx_HAL_Driver/Src/stm32f7xx_hal_hcd.c ****     hhcd->hc[ch_num].state = HC_DATATGLERR;
 1898              		.loc 1 1442 0
 1899 021e 4FF48063 		mov	r3, #1024
 1900 0222 A360     		str	r3, [r4, #8]
1443:Drivers/STM32F7xx_HAL_Driver/Src/stm32f7xx_hal_hcd.c ****   }
 1901              		.loc 1 1443 0
 1902 0224 06EB8601 		add	r1, r6, r6, lsl #2
 1903 0228 CB00     		lsls	r3, r1, #3
 1904 022a 2B44     		add	r3, r3, r5
 1905 022c 0822     		movs	r2, #8
 1906 022e 83F85D20 		strb	r2, [r3, #93]
 1907 0232 1AE7     		b	.L115
 1908              	.LVL163:
 1909              	.L142:
1451:Drivers/STM32F7xx_HAL_Driver/Src/stm32f7xx_hal_hcd.c ****       if ((hhcd->hc[ch_num].ep_type == EP_TYPE_BULK) ||
 1910              		.loc 1 1451 0
 1911 0234 0B46     		mov	r3, r1
 1912 0236 0344     		add	r3, r3, r0
 1913 0238 0122     		movs	r2, #1
 1914 023a 83F85C20 		strb	r2, [r3, #92]
1452:Drivers/STM32F7xx_HAL_Driver/Src/stm32f7xx_hal_hcd.c ****           (hhcd->hc[ch_num].ep_type == EP_TYPE_INTR))
 1915              		.loc 1 1452 0
 1916 023e 93F83F30 		ldrb	r3, [r3, #63]	@ zero_extendqisi2
 1917 0242 023B     		subs	r3, r3, #2
 1918 0244 DBB2     		uxtb	r3, r3
 1919 0246 9342     		cmp	r3, r2
 1920 0248 0FD8     		bhi	.L128
1455:Drivers/STM32F7xx_HAL_Driver/Src/stm32f7xx_hal_hcd.c ****       }
 1921              		.loc 1 1455 0
 1922 024a 0B46     		mov	r3, r1
 1923 024c 0344     		add	r3, r3, r0
 1924 024e 93F85120 		ldrb	r2, [r3, #81]	@ zero_extendqisi2
 1925 0252 82F00102 		eor	r2, r2, #1
 1926 0256 83F85120 		strb	r2, [r3, #81]
 1927 025a 06E0     		b	.L128
 1928              	.L143:
1460:Drivers/STM32F7xx_HAL_Driver/Src/stm32f7xx_hal_hcd.c ****     }
ARM GAS  /tmp/ccqVt8hD.s 			page 68


 1929              		.loc 1 1460 0
 1930 025c 06EB8602 		add	r2, r6, r6, lsl #2
 1931 0260 D300     		lsls	r3, r2, #3
 1932 0262 0344     		add	r3, r3, r0
 1933 0264 0222     		movs	r2, #2
 1934 0266 83F85C20 		strb	r2, [r3, #92]
 1935              	.L128:
1495:Drivers/STM32F7xx_HAL_Driver/Src/stm32f7xx_hal_hcd.c ****     HAL_HCD_HC_NotifyURBChange_Callback(hhcd, (uint8_t)ch_num, hhcd->hc[ch_num].urb_state);
 1936              		.loc 1 1495 0
 1937 026a 0223     		movs	r3, #2
 1938 026c A360     		str	r3, [r4, #8]
1496:Drivers/STM32F7xx_HAL_Driver/Src/stm32f7xx_hal_hcd.c ****   }
 1939              		.loc 1 1496 0
 1940 026e 06EB8602 		add	r2, r6, r6, lsl #2
 1941 0272 D300     		lsls	r3, r2, #3
 1942 0274 2B44     		add	r3, r3, r5
 1943 0276 93F85C20 		ldrb	r2, [r3, #92]	@ zero_extendqisi2
 1944 027a 3146     		mov	r1, r6
 1945 027c 2846     		mov	r0, r5
 1946              	.LVL164:
 1947 027e FFF7FEFF 		bl	HAL_HCD_HC_NotifyURBChange_Callback
 1948              	.LVL165:
1502:Drivers/STM32F7xx_HAL_Driver/Src/stm32f7xx_hal_hcd.c **** 
 1949              		.loc 1 1502 0
 1950 0282 F2E6     		b	.L115
 1951              	.LVL166:
 1952              	.L144:
1464:Drivers/STM32F7xx_HAL_Driver/Src/stm32f7xx_hal_hcd.c ****     }
 1953              		.loc 1 1464 0
 1954 0284 06EB8602 		add	r2, r6, r6, lsl #2
 1955 0288 D300     		lsls	r3, r2, #3
 1956 028a 0344     		add	r3, r3, r0
 1957 028c 0222     		movs	r2, #2
 1958 028e 83F85C20 		strb	r2, [r3, #92]
 1959 0292 EAE7     		b	.L128
 1960              	.L145:
1468:Drivers/STM32F7xx_HAL_Driver/Src/stm32f7xx_hal_hcd.c ****     }
 1961              		.loc 1 1468 0
 1962 0294 2823     		movs	r3, #40
 1963 0296 03FB0603 		mla	r3, r3, r6, r0
 1964 029a 83F85C20 		strb	r2, [r3, #92]
 1965 029e E4E7     		b	.L128
 1966              	.L132:
1481:Drivers/STM32F7xx_HAL_Driver/Src/stm32f7xx_hal_hcd.c ****       }
 1967              		.loc 1 1481 0
 1968 02a0 2822     		movs	r2, #40
 1969 02a2 02FB0602 		mla	r2, r2, r6, r0
 1970 02a6 0221     		movs	r1, #2
 1971 02a8 82F85C10 		strb	r1, [r2, #92]
 1972 02ac 94E7     		b	.L133
 1973              		.cfi_endproc
 1974              	.LFE165:
 1976              		.section	.text.HAL_HCD_IRQHandler,"ax",%progbits
 1977              		.align	1
 1978              		.global	HAL_HCD_IRQHandler
 1979              		.syntax unified
 1980              		.thumb
ARM GAS  /tmp/ccqVt8hD.s 			page 69


 1981              		.thumb_func
 1982              		.fpu fpv5-sp-d16
 1984              	HAL_HCD_IRQHandler:
 1985              	.LFB148:
 495:Drivers/STM32F7xx_HAL_Driver/Src/stm32f7xx_hal_hcd.c ****   USB_OTG_GlobalTypeDef *USBx = hhcd->Instance;
 1986              		.loc 1 495 0
 1987              		.cfi_startproc
 1988              		@ args = 0, pretend = 0, frame = 0
 1989              		@ frame_needed = 0, uses_anonymous_args = 0
 1990              	.LVL167:
 1991 0000 F8B5     		push	{r3, r4, r5, r6, r7, lr}
 1992              	.LCFI21:
 1993              		.cfi_def_cfa_offset 24
 1994              		.cfi_offset 3, -24
 1995              		.cfi_offset 4, -20
 1996              		.cfi_offset 5, -16
 1997              		.cfi_offset 6, -12
 1998              		.cfi_offset 7, -8
 1999              		.cfi_offset 14, -4
 2000 0002 0446     		mov	r4, r0
 496:Drivers/STM32F7xx_HAL_Driver/Src/stm32f7xx_hal_hcd.c ****   uint32_t USBx_BASE = (uint32_t)USBx;
 2001              		.loc 1 496 0
 2002 0004 0568     		ldr	r5, [r0]
 2003              	.LVL168:
 501:Drivers/STM32F7xx_HAL_Driver/Src/stm32f7xx_hal_hcd.c ****   {
 2004              		.loc 1 501 0
 2005 0006 2846     		mov	r0, r5
 2006              	.LVL169:
 2007 0008 FFF7FEFF 		bl	USB_GetMode
 2008              	.LVL170:
 2009 000c 0128     		cmp	r0, #1
 2010 000e 00D0     		beq	.L161
 2011              	.L146:
 600:Drivers/STM32F7xx_HAL_Driver/Src/stm32f7xx_hal_hcd.c **** 
 2012              		.loc 1 600 0
 2013 0010 F8BD     		pop	{r3, r4, r5, r6, r7, pc}
 2014              	.LVL171:
 2015              	.L161:
 504:Drivers/STM32F7xx_HAL_Driver/Src/stm32f7xx_hal_hcd.c ****     {
 2016              		.loc 1 504 0
 2017 0012 2068     		ldr	r0, [r4]
 2018 0014 FFF7FEFF 		bl	USB_ReadInterrupts
 2019              	.LVL172:
 2020 0018 0028     		cmp	r0, #0
 2021 001a F9D0     		beq	.L146
 509:Drivers/STM32F7xx_HAL_Driver/Src/stm32f7xx_hal_hcd.c ****     {
 2022              		.loc 1 509 0
 2023 001c 2068     		ldr	r0, [r4]
 2024 001e FFF7FEFF 		bl	USB_ReadInterrupts
 2025              	.LVL173:
 2026 0022 10F4001F 		tst	r0, #2097152
 2027 0026 03D0     		beq	.L148
 512:Drivers/STM32F7xx_HAL_Driver/Src/stm32f7xx_hal_hcd.c ****     }
 2028              		.loc 1 512 0
 2029 0028 2368     		ldr	r3, [r4]
 2030 002a 4FF40012 		mov	r2, #2097152
 2031 002e 5A61     		str	r2, [r3, #20]
ARM GAS  /tmp/ccqVt8hD.s 			page 70


 2032              	.L148:
 515:Drivers/STM32F7xx_HAL_Driver/Src/stm32f7xx_hal_hcd.c ****     {
 2033              		.loc 1 515 0
 2034 0030 2068     		ldr	r0, [r4]
 2035 0032 FFF7FEFF 		bl	USB_ReadInterrupts
 2036              	.LVL174:
 2037 0036 10F4801F 		tst	r0, #1048576
 2038 003a 03D0     		beq	.L149
 518:Drivers/STM32F7xx_HAL_Driver/Src/stm32f7xx_hal_hcd.c ****     }
 2039              		.loc 1 518 0
 2040 003c 2368     		ldr	r3, [r4]
 2041 003e 4FF48012 		mov	r2, #1048576
 2042 0042 5A61     		str	r2, [r3, #20]
 2043              	.L149:
 521:Drivers/STM32F7xx_HAL_Driver/Src/stm32f7xx_hal_hcd.c ****     {
 2044              		.loc 1 521 0
 2045 0044 2068     		ldr	r0, [r4]
 2046 0046 FFF7FEFF 		bl	USB_ReadInterrupts
 2047              	.LVL175:
 2048 004a 10F0806F 		tst	r0, #67108864
 2049 004e 03D0     		beq	.L150
 524:Drivers/STM32F7xx_HAL_Driver/Src/stm32f7xx_hal_hcd.c ****     }
 2050              		.loc 1 524 0
 2051 0050 2368     		ldr	r3, [r4]
 2052 0052 4FF08062 		mov	r2, #67108864
 2053 0056 5A61     		str	r2, [r3, #20]
 2054              	.L150:
 527:Drivers/STM32F7xx_HAL_Driver/Src/stm32f7xx_hal_hcd.c ****     {
 2055              		.loc 1 527 0
 2056 0058 2068     		ldr	r0, [r4]
 2057 005a FFF7FEFF 		bl	USB_ReadInterrupts
 2058              	.LVL176:
 2059 005e 10F0020F 		tst	r0, #2
 2060 0062 02D0     		beq	.L151
 530:Drivers/STM32F7xx_HAL_Driver/Src/stm32f7xx_hal_hcd.c ****     }
 2061              		.loc 1 530 0
 2062 0064 2368     		ldr	r3, [r4]
 2063 0066 0222     		movs	r2, #2
 2064 0068 5A61     		str	r2, [r3, #20]
 2065              	.L151:
 534:Drivers/STM32F7xx_HAL_Driver/Src/stm32f7xx_hal_hcd.c ****     {
 2066              		.loc 1 534 0
 2067 006a 2068     		ldr	r0, [r4]
 2068 006c FFF7FEFF 		bl	USB_ReadInterrupts
 2069              	.LVL177:
 2070 0070 10F0005F 		tst	r0, #536870912
 2071 0074 08D0     		beq	.L152
 536:Drivers/STM32F7xx_HAL_Driver/Src/stm32f7xx_hal_hcd.c **** 
 2072              		.loc 1 536 0
 2073 0076 2368     		ldr	r3, [r4]
 2074 0078 4FF00052 		mov	r2, #536870912
 2075 007c 5A61     		str	r2, [r3, #20]
 538:Drivers/STM32F7xx_HAL_Driver/Src/stm32f7xx_hal_hcd.c ****       {
 2076              		.loc 1 538 0
 2077 007e D5F84034 		ldr	r3, [r5, #1088]
 2078 0082 13F0010F 		tst	r3, #1
 2079 0086 25D0     		beq	.L162
ARM GAS  /tmp/ccqVt8hD.s 			page 71


 2080              	.L152:
 552:Drivers/STM32F7xx_HAL_Driver/Src/stm32f7xx_hal_hcd.c ****     {
 2081              		.loc 1 552 0
 2082 0088 2068     		ldr	r0, [r4]
 2083 008a FFF7FEFF 		bl	USB_ReadInterrupts
 2084              	.LVL178:
 2085 008e 10F0807F 		tst	r0, #16777216
 2086 0092 27D1     		bne	.L163
 2087              	.L153:
 558:Drivers/STM32F7xx_HAL_Driver/Src/stm32f7xx_hal_hcd.c ****     {
 2088              		.loc 1 558 0
 2089 0094 2068     		ldr	r0, [r4]
 2090 0096 FFF7FEFF 		bl	USB_ReadInterrupts
 2091              	.LVL179:
 2092 009a 10F0080F 		tst	r0, #8
 2093 009e 25D1     		bne	.L164
 2094              	.L154:
 570:Drivers/STM32F7xx_HAL_Driver/Src/stm32f7xx_hal_hcd.c ****     {
 2095              		.loc 1 570 0
 2096 00a0 2068     		ldr	r0, [r4]
 2097 00a2 FFF7FEFF 		bl	USB_ReadInterrupts
 2098              	.LVL180:
 2099 00a6 10F0007F 		tst	r0, #33554432
 2100 00aa 26D1     		bne	.L165
 2101              	.L155:
 591:Drivers/STM32F7xx_HAL_Driver/Src/stm32f7xx_hal_hcd.c ****     {
 2102              		.loc 1 591 0
 2103 00ac 2068     		ldr	r0, [r4]
 2104 00ae FFF7FEFF 		bl	USB_ReadInterrupts
 2105              	.LVL181:
 2106 00b2 10F0100F 		tst	r0, #16
 2107 00b6 ABD0     		beq	.L146
 593:Drivers/STM32F7xx_HAL_Driver/Src/stm32f7xx_hal_hcd.c **** 
 2108              		.loc 1 593 0
 2109 00b8 2268     		ldr	r2, [r4]
 2110 00ba 9369     		ldr	r3, [r2, #24]
 2111 00bc 23F01003 		bic	r3, r3, #16
 2112 00c0 9361     		str	r3, [r2, #24]
 595:Drivers/STM32F7xx_HAL_Driver/Src/stm32f7xx_hal_hcd.c **** 
 2113              		.loc 1 595 0
 2114 00c2 2046     		mov	r0, r4
 2115 00c4 FFF7FEFF 		bl	HCD_RXQLVL_IRQHandler
 2116              	.LVL182:
 597:Drivers/STM32F7xx_HAL_Driver/Src/stm32f7xx_hal_hcd.c ****     }
 2117              		.loc 1 597 0
 2118 00c8 2268     		ldr	r2, [r4]
 2119 00ca 9369     		ldr	r3, [r2, #24]
 2120 00cc 43F01003 		orr	r3, r3, #16
 2121 00d0 9361     		str	r3, [r2, #24]
 2122 00d2 9DE7     		b	.L146
 2123              	.L162:
 544:Drivers/STM32F7xx_HAL_Driver/Src/stm32f7xx_hal_hcd.c **** #endif /* USE_HAL_HCD_REGISTER_CALLBACKS */
 2124              		.loc 1 544 0
 2125 00d4 2046     		mov	r0, r4
 2126 00d6 FFF7FEFF 		bl	HAL_HCD_Disconnect_Callback
 2127              	.LVL183:
 547:Drivers/STM32F7xx_HAL_Driver/Src/stm32f7xx_hal_hcd.c ****       }
ARM GAS  /tmp/ccqVt8hD.s 			page 72


 2128              		.loc 1 547 0
 2129 00da 0121     		movs	r1, #1
 2130 00dc 2068     		ldr	r0, [r4]
 2131 00de FFF7FEFF 		bl	USB_InitFSLSPClkSel
 2132              	.LVL184:
 2133 00e2 D1E7     		b	.L152
 2134              	.L163:
 554:Drivers/STM32F7xx_HAL_Driver/Src/stm32f7xx_hal_hcd.c ****     }
 2135              		.loc 1 554 0
 2136 00e4 2046     		mov	r0, r4
 2137 00e6 FFF7FEFF 		bl	HCD_Port_IRQHandler
 2138              	.LVL185:
 2139 00ea D3E7     		b	.L153
 2140              	.L164:
 563:Drivers/STM32F7xx_HAL_Driver/Src/stm32f7xx_hal_hcd.c **** #endif /* USE_HAL_HCD_REGISTER_CALLBACKS */
 2141              		.loc 1 563 0
 2142 00ec 2046     		mov	r0, r4
 2143 00ee FFF7FEFF 		bl	HAL_HCD_SOF_Callback
 2144              	.LVL186:
 566:Drivers/STM32F7xx_HAL_Driver/Src/stm32f7xx_hal_hcd.c ****     }
 2145              		.loc 1 566 0
 2146 00f2 2368     		ldr	r3, [r4]
 2147 00f4 0822     		movs	r2, #8
 2148 00f6 5A61     		str	r2, [r3, #20]
 2149 00f8 D2E7     		b	.L154
 2150              	.L165:
 572:Drivers/STM32F7xx_HAL_Driver/Src/stm32f7xx_hal_hcd.c ****       for (i = 0U; i < hhcd->Init.Host_channels; i++)
 2151              		.loc 1 572 0
 2152 00fa 2068     		ldr	r0, [r4]
 2153 00fc FFF7FEFF 		bl	USB_HC_ReadInterrupt
 2154              	.LVL187:
 2155 0100 0746     		mov	r7, r0
 2156              	.LVL188:
 573:Drivers/STM32F7xx_HAL_Driver/Src/stm32f7xx_hal_hcd.c ****       {
 2157              		.loc 1 573 0
 2158 0102 0026     		movs	r6, #0
 2159 0104 04E0     		b	.L156
 2160              	.LVL189:
 2161              	.L158:
 583:Drivers/STM32F7xx_HAL_Driver/Src/stm32f7xx_hal_hcd.c ****           }
 2162              		.loc 1 583 0
 2163 0106 F1B2     		uxtb	r1, r6
 2164 0108 2046     		mov	r0, r4
 2165 010a FFF7FEFF 		bl	HCD_HC_OUT_IRQHandler
 2166              	.LVL190:
 2167              	.L157:
 573:Drivers/STM32F7xx_HAL_Driver/Src/stm32f7xx_hal_hcd.c ****       {
 2168              		.loc 1 573 0 discriminator 2
 2169 010e 0136     		adds	r6, r6, #1
 2170              	.LVL191:
 2171              	.L156:
 573:Drivers/STM32F7xx_HAL_Driver/Src/stm32f7xx_hal_hcd.c ****       {
 2172              		.loc 1 573 0 is_stmt 0 discriminator 1
 2173 0110 A368     		ldr	r3, [r4, #8]
 2174 0112 B342     		cmp	r3, r6
 2175 0114 12D9     		bls	.L166
 575:Drivers/STM32F7xx_HAL_Driver/Src/stm32f7xx_hal_hcd.c ****         {
ARM GAS  /tmp/ccqVt8hD.s 			page 73


 2176              		.loc 1 575 0 is_stmt 1
 2177 0116 06F00F03 		and	r3, r6, #15
 2178 011a 27FA03F3 		lsr	r3, r7, r3
 2179 011e 13F0010F 		tst	r3, #1
 2180 0122 F4D0     		beq	.L157
 577:Drivers/STM32F7xx_HAL_Driver/Src/stm32f7xx_hal_hcd.c ****           {
 2181              		.loc 1 577 0
 2182 0124 05EB4613 		add	r3, r5, r6, lsl #5
 2183 0128 D3F80035 		ldr	r3, [r3, #1280]
 2184 012c 13F4004F 		tst	r3, #32768
 2185 0130 E9D0     		beq	.L158
 579:Drivers/STM32F7xx_HAL_Driver/Src/stm32f7xx_hal_hcd.c ****           }
 2186              		.loc 1 579 0
 2187 0132 F1B2     		uxtb	r1, r6
 2188 0134 2046     		mov	r0, r4
 2189 0136 FFF7FEFF 		bl	HCD_HC_IN_IRQHandler
 2190              	.LVL192:
 2191 013a E8E7     		b	.L157
 2192              	.L166:
 587:Drivers/STM32F7xx_HAL_Driver/Src/stm32f7xx_hal_hcd.c ****     }
 2193              		.loc 1 587 0
 2194 013c 2368     		ldr	r3, [r4]
 2195 013e 4FF00072 		mov	r2, #33554432
 2196 0142 5A61     		str	r2, [r3, #20]
 2197 0144 B2E7     		b	.L155
 2198              		.cfi_endproc
 2199              	.LFE148:
 2201              		.section	.text.HAL_HCD_Start,"ax",%progbits
 2202              		.align	1
 2203              		.global	HAL_HCD_Start
 2204              		.syntax unified
 2205              		.thumb
 2206              		.thumb_func
 2207              		.fpu fpv5-sp-d16
 2209              	HAL_HCD_Start:
 2210              	.LFB155:
1005:Drivers/STM32F7xx_HAL_Driver/Src/stm32f7xx_hal_hcd.c ****   __HAL_LOCK(hhcd);
 2211              		.loc 1 1005 0
 2212              		.cfi_startproc
 2213              		@ args = 0, pretend = 0, frame = 0
 2214              		@ frame_needed = 0, uses_anonymous_args = 0
 2215              	.LVL193:
 2216 0000 38B5     		push	{r3, r4, r5, lr}
 2217              	.LCFI22:
 2218              		.cfi_def_cfa_offset 16
 2219              		.cfi_offset 3, -16
 2220              		.cfi_offset 4, -12
 2221              		.cfi_offset 5, -8
 2222              		.cfi_offset 14, -4
1006:Drivers/STM32F7xx_HAL_Driver/Src/stm32f7xx_hal_hcd.c ****   __HAL_HCD_ENABLE(hhcd);
 2223              		.loc 1 1006 0
 2224 0002 90F8B832 		ldrb	r3, [r0, #696]	@ zero_extendqisi2
 2225 0006 012B     		cmp	r3, #1
 2226 0008 0ED0     		beq	.L169
 2227 000a 0446     		mov	r4, r0
1006:Drivers/STM32F7xx_HAL_Driver/Src/stm32f7xx_hal_hcd.c ****   __HAL_HCD_ENABLE(hhcd);
 2228              		.loc 1 1006 0 is_stmt 0 discriminator 2
ARM GAS  /tmp/ccqVt8hD.s 			page 74


 2229 000c 0125     		movs	r5, #1
 2230 000e 80F8B852 		strb	r5, [r0, #696]
1007:Drivers/STM32F7xx_HAL_Driver/Src/stm32f7xx_hal_hcd.c ****   (void)USB_DriveVbus(hhcd->Instance, 1U);
 2231              		.loc 1 1007 0 is_stmt 1 discriminator 2
 2232 0012 0068     		ldr	r0, [r0]
 2233              	.LVL194:
 2234 0014 FFF7FEFF 		bl	USB_EnableGlobalInt
 2235              	.LVL195:
1008:Drivers/STM32F7xx_HAL_Driver/Src/stm32f7xx_hal_hcd.c ****   __HAL_UNLOCK(hhcd);
 2236              		.loc 1 1008 0 discriminator 2
 2237 0018 2946     		mov	r1, r5
 2238 001a 2068     		ldr	r0, [r4]
 2239 001c FFF7FEFF 		bl	USB_DriveVbus
 2240              	.LVL196:
1009:Drivers/STM32F7xx_HAL_Driver/Src/stm32f7xx_hal_hcd.c **** 
 2241              		.loc 1 1009 0 discriminator 2
 2242 0020 0020     		movs	r0, #0
 2243 0022 84F8B802 		strb	r0, [r4, #696]
 2244              	.LVL197:
 2245              	.L168:
1012:Drivers/STM32F7xx_HAL_Driver/Src/stm32f7xx_hal_hcd.c **** 
 2246              		.loc 1 1012 0
 2247 0026 38BD     		pop	{r3, r4, r5, pc}
 2248              	.LVL198:
 2249              	.L169:
1006:Drivers/STM32F7xx_HAL_Driver/Src/stm32f7xx_hal_hcd.c ****   __HAL_HCD_ENABLE(hhcd);
 2250              		.loc 1 1006 0
 2251 0028 0220     		movs	r0, #2
 2252              	.LVL199:
 2253 002a FCE7     		b	.L168
 2254              		.cfi_endproc
 2255              	.LFE155:
 2257              		.section	.text.HAL_HCD_Stop,"ax",%progbits
 2258              		.align	1
 2259              		.global	HAL_HCD_Stop
 2260              		.syntax unified
 2261              		.thumb
 2262              		.thumb_func
 2263              		.fpu fpv5-sp-d16
 2265              	HAL_HCD_Stop:
 2266              	.LFB156:
1021:Drivers/STM32F7xx_HAL_Driver/Src/stm32f7xx_hal_hcd.c ****   __HAL_LOCK(hhcd);
 2267              		.loc 1 1021 0
 2268              		.cfi_startproc
 2269              		@ args = 0, pretend = 0, frame = 0
 2270              		@ frame_needed = 0, uses_anonymous_args = 0
 2271              	.LVL200:
1022:Drivers/STM32F7xx_HAL_Driver/Src/stm32f7xx_hal_hcd.c ****   (void)USB_StopHost(hhcd->Instance);
 2272              		.loc 1 1022 0
 2273 0000 90F8B832 		ldrb	r3, [r0, #696]	@ zero_extendqisi2
 2274 0004 012B     		cmp	r3, #1
 2275 0006 0BD0     		beq	.L173
1021:Drivers/STM32F7xx_HAL_Driver/Src/stm32f7xx_hal_hcd.c ****   __HAL_LOCK(hhcd);
 2276              		.loc 1 1021 0 discriminator 2
 2277 0008 10B5     		push	{r4, lr}
 2278              	.LCFI23:
 2279              		.cfi_def_cfa_offset 8
ARM GAS  /tmp/ccqVt8hD.s 			page 75


 2280              		.cfi_offset 4, -8
 2281              		.cfi_offset 14, -4
 2282 000a 0446     		mov	r4, r0
1022:Drivers/STM32F7xx_HAL_Driver/Src/stm32f7xx_hal_hcd.c ****   (void)USB_StopHost(hhcd->Instance);
 2283              		.loc 1 1022 0 discriminator 2
 2284 000c 0123     		movs	r3, #1
 2285 000e 80F8B832 		strb	r3, [r0, #696]
1023:Drivers/STM32F7xx_HAL_Driver/Src/stm32f7xx_hal_hcd.c ****   __HAL_UNLOCK(hhcd);
 2286              		.loc 1 1023 0 discriminator 2
 2287 0012 0068     		ldr	r0, [r0]
 2288              	.LVL201:
 2289 0014 FFF7FEFF 		bl	USB_StopHost
 2290              	.LVL202:
1024:Drivers/STM32F7xx_HAL_Driver/Src/stm32f7xx_hal_hcd.c **** 
 2291              		.loc 1 1024 0 discriminator 2
 2292 0018 0020     		movs	r0, #0
 2293 001a 84F8B802 		strb	r0, [r4, #696]
1027:Drivers/STM32F7xx_HAL_Driver/Src/stm32f7xx_hal_hcd.c **** 
 2294              		.loc 1 1027 0 discriminator 2
 2295 001e 10BD     		pop	{r4, pc}
 2296              	.LVL203:
 2297              	.L173:
 2298              	.LCFI24:
 2299              		.cfi_def_cfa_offset 0
 2300              		.cfi_restore 4
 2301              		.cfi_restore 14
1022:Drivers/STM32F7xx_HAL_Driver/Src/stm32f7xx_hal_hcd.c ****   (void)USB_StopHost(hhcd->Instance);
 2302              		.loc 1 1022 0
 2303 0020 0220     		movs	r0, #2
 2304              	.LVL204:
1027:Drivers/STM32F7xx_HAL_Driver/Src/stm32f7xx_hal_hcd.c **** 
 2305              		.loc 1 1027 0
 2306 0022 7047     		bx	lr
 2307              		.cfi_endproc
 2308              	.LFE156:
 2310              		.section	.text.HAL_HCD_ResetPort,"ax",%progbits
 2311              		.align	1
 2312              		.global	HAL_HCD_ResetPort
 2313              		.syntax unified
 2314              		.thumb
 2315              		.thumb_func
 2316              		.fpu fpv5-sp-d16
 2318              	HAL_HCD_ResetPort:
 2319              	.LFB157:
1035:Drivers/STM32F7xx_HAL_Driver/Src/stm32f7xx_hal_hcd.c ****   return (USB_ResetPort(hhcd->Instance));
 2320              		.loc 1 1035 0
 2321              		.cfi_startproc
 2322              		@ args = 0, pretend = 0, frame = 0
 2323              		@ frame_needed = 0, uses_anonymous_args = 0
 2324              	.LVL205:
 2325 0000 08B5     		push	{r3, lr}
 2326              	.LCFI25:
 2327              		.cfi_def_cfa_offset 8
 2328              		.cfi_offset 3, -8
 2329              		.cfi_offset 14, -4
1036:Drivers/STM32F7xx_HAL_Driver/Src/stm32f7xx_hal_hcd.c **** }
 2330              		.loc 1 1036 0
ARM GAS  /tmp/ccqVt8hD.s 			page 76


 2331 0002 0068     		ldr	r0, [r0]
 2332              	.LVL206:
 2333 0004 FFF7FEFF 		bl	USB_ResetPort
 2334              	.LVL207:
1037:Drivers/STM32F7xx_HAL_Driver/Src/stm32f7xx_hal_hcd.c **** 
 2335              		.loc 1 1037 0
 2336 0008 08BD     		pop	{r3, pc}
 2337              		.cfi_endproc
 2338              	.LFE157:
 2340              		.section	.text.HAL_HCD_GetState,"ax",%progbits
 2341              		.align	1
 2342              		.global	HAL_HCD_GetState
 2343              		.syntax unified
 2344              		.thumb
 2345              		.thumb_func
 2346              		.fpu fpv5-sp-d16
 2348              	HAL_HCD_GetState:
 2349              	.LFB158:
1064:Drivers/STM32F7xx_HAL_Driver/Src/stm32f7xx_hal_hcd.c ****   return hhcd->State;
 2350              		.loc 1 1064 0
 2351              		.cfi_startproc
 2352              		@ args = 0, pretend = 0, frame = 0
 2353              		@ frame_needed = 0, uses_anonymous_args = 0
 2354              		@ link register save eliminated.
 2355              	.LVL208:
1065:Drivers/STM32F7xx_HAL_Driver/Src/stm32f7xx_hal_hcd.c **** }
 2356              		.loc 1 1065 0
 2357 0000 90F8B902 		ldrb	r0, [r0, #697]	@ zero_extendqisi2
 2358              	.LVL209:
1066:Drivers/STM32F7xx_HAL_Driver/Src/stm32f7xx_hal_hcd.c **** 
 2359              		.loc 1 1066 0
 2360 0004 7047     		bx	lr
 2361              		.cfi_endproc
 2362              	.LFE158:
 2364              		.section	.text.HAL_HCD_HC_GetURBState,"ax",%progbits
 2365              		.align	1
 2366              		.global	HAL_HCD_HC_GetURBState
 2367              		.syntax unified
 2368              		.thumb
 2369              		.thumb_func
 2370              		.fpu fpv5-sp-d16
 2372              	HAL_HCD_HC_GetURBState:
 2373              	.LFB159:
1083:Drivers/STM32F7xx_HAL_Driver/Src/stm32f7xx_hal_hcd.c ****   return hhcd->hc[chnum].urb_state;
 2374              		.loc 1 1083 0
 2375              		.cfi_startproc
 2376              		@ args = 0, pretend = 0, frame = 0
 2377              		@ frame_needed = 0, uses_anonymous_args = 0
 2378              		@ link register save eliminated.
 2379              	.LVL210:
1084:Drivers/STM32F7xx_HAL_Driver/Src/stm32f7xx_hal_hcd.c **** }
 2380              		.loc 1 1084 0
 2381 0000 01EB8101 		add	r1, r1, r1, lsl #2
 2382              	.LVL211:
 2383 0004 CB00     		lsls	r3, r1, #3
 2384 0006 1844     		add	r0, r0, r3
 2385              	.LVL212:
ARM GAS  /tmp/ccqVt8hD.s 			page 77


1085:Drivers/STM32F7xx_HAL_Driver/Src/stm32f7xx_hal_hcd.c **** 
 2386              		.loc 1 1085 0
 2387 0008 90F85C00 		ldrb	r0, [r0, #92]	@ zero_extendqisi2
 2388 000c 7047     		bx	lr
 2389              		.cfi_endproc
 2390              	.LFE159:
 2392              		.section	.text.HAL_HCD_HC_GetXferCount,"ax",%progbits
 2393              		.align	1
 2394              		.global	HAL_HCD_HC_GetXferCount
 2395              		.syntax unified
 2396              		.thumb
 2397              		.thumb_func
 2398              		.fpu fpv5-sp-d16
 2400              	HAL_HCD_HC_GetXferCount:
 2401              	.LFB160:
1096:Drivers/STM32F7xx_HAL_Driver/Src/stm32f7xx_hal_hcd.c ****   return hhcd->hc[chnum].xfer_count;
 2402              		.loc 1 1096 0
 2403              		.cfi_startproc
 2404              		@ args = 0, pretend = 0, frame = 0
 2405              		@ frame_needed = 0, uses_anonymous_args = 0
 2406              		@ link register save eliminated.
 2407              	.LVL213:
1097:Drivers/STM32F7xx_HAL_Driver/Src/stm32f7xx_hal_hcd.c **** }
 2408              		.loc 1 1097 0
 2409 0000 01EB8101 		add	r1, r1, r1, lsl #2
 2410              	.LVL214:
 2411 0004 CB00     		lsls	r3, r1, #3
 2412 0006 1844     		add	r0, r0, r3
 2413              	.LVL215:
1098:Drivers/STM32F7xx_HAL_Driver/Src/stm32f7xx_hal_hcd.c **** 
 2414              		.loc 1 1098 0
 2415 0008 C06C     		ldr	r0, [r0, #76]
 2416 000a 7047     		bx	lr
 2417              		.cfi_endproc
 2418              	.LFE160:
 2420              		.section	.text.HAL_HCD_HC_GetState,"ax",%progbits
 2421              		.align	1
 2422              		.global	HAL_HCD_HC_GetState
 2423              		.syntax unified
 2424              		.thumb
 2425              		.thumb_func
 2426              		.fpu fpv5-sp-d16
 2428              	HAL_HCD_HC_GetState:
 2429              	.LFB161:
1118:Drivers/STM32F7xx_HAL_Driver/Src/stm32f7xx_hal_hcd.c ****   return hhcd->hc[chnum].state;
 2430              		.loc 1 1118 0
 2431              		.cfi_startproc
 2432              		@ args = 0, pretend = 0, frame = 0
 2433              		@ frame_needed = 0, uses_anonymous_args = 0
 2434              		@ link register save eliminated.
 2435              	.LVL216:
1119:Drivers/STM32F7xx_HAL_Driver/Src/stm32f7xx_hal_hcd.c **** }
 2436              		.loc 1 1119 0
 2437 0000 01EB8101 		add	r1, r1, r1, lsl #2
 2438              	.LVL217:
 2439 0004 CB00     		lsls	r3, r1, #3
 2440 0006 1844     		add	r0, r0, r3
ARM GAS  /tmp/ccqVt8hD.s 			page 78


 2441              	.LVL218:
1120:Drivers/STM32F7xx_HAL_Driver/Src/stm32f7xx_hal_hcd.c **** 
 2442              		.loc 1 1120 0
 2443 0008 90F85D00 		ldrb	r0, [r0, #93]	@ zero_extendqisi2
 2444 000c 7047     		bx	lr
 2445              		.cfi_endproc
 2446              	.LFE161:
 2448              		.section	.text.HAL_HCD_GetCurrentFrame,"ax",%progbits
 2449              		.align	1
 2450              		.global	HAL_HCD_GetCurrentFrame
 2451              		.syntax unified
 2452              		.thumb
 2453              		.thumb_func
 2454              		.fpu fpv5-sp-d16
 2456              	HAL_HCD_GetCurrentFrame:
 2457              	.LFB162:
1128:Drivers/STM32F7xx_HAL_Driver/Src/stm32f7xx_hal_hcd.c ****   return (USB_GetCurrentFrame(hhcd->Instance));
 2458              		.loc 1 1128 0
 2459              		.cfi_startproc
 2460              		@ args = 0, pretend = 0, frame = 0
 2461              		@ frame_needed = 0, uses_anonymous_args = 0
 2462              	.LVL219:
 2463 0000 08B5     		push	{r3, lr}
 2464              	.LCFI26:
 2465              		.cfi_def_cfa_offset 8
 2466              		.cfi_offset 3, -8
 2467              		.cfi_offset 14, -4
1129:Drivers/STM32F7xx_HAL_Driver/Src/stm32f7xx_hal_hcd.c **** }
 2468              		.loc 1 1129 0
 2469 0002 0068     		ldr	r0, [r0]
 2470              	.LVL220:
 2471 0004 FFF7FEFF 		bl	USB_GetCurrentFrame
 2472              	.LVL221:
1130:Drivers/STM32F7xx_HAL_Driver/Src/stm32f7xx_hal_hcd.c **** 
 2473              		.loc 1 1130 0
 2474 0008 08BD     		pop	{r3, pc}
 2475              		.cfi_endproc
 2476              	.LFE162:
 2478              		.section	.text.HAL_HCD_GetCurrentSpeed,"ax",%progbits
 2479              		.align	1
 2480              		.global	HAL_HCD_GetCurrentSpeed
 2481              		.syntax unified
 2482              		.thumb
 2483              		.thumb_func
 2484              		.fpu fpv5-sp-d16
 2486              	HAL_HCD_GetCurrentSpeed:
 2487              	.LFB163:
1138:Drivers/STM32F7xx_HAL_Driver/Src/stm32f7xx_hal_hcd.c ****   return (USB_GetHostSpeed(hhcd->Instance));
 2488              		.loc 1 1138 0
 2489              		.cfi_startproc
 2490              		@ args = 0, pretend = 0, frame = 0
 2491              		@ frame_needed = 0, uses_anonymous_args = 0
 2492              	.LVL222:
 2493 0000 08B5     		push	{r3, lr}
 2494              	.LCFI27:
 2495              		.cfi_def_cfa_offset 8
 2496              		.cfi_offset 3, -8
ARM GAS  /tmp/ccqVt8hD.s 			page 79


 2497              		.cfi_offset 14, -4
1139:Drivers/STM32F7xx_HAL_Driver/Src/stm32f7xx_hal_hcd.c **** }
 2498              		.loc 1 1139 0
 2499 0002 0068     		ldr	r0, [r0]
 2500              	.LVL223:
 2501 0004 FFF7FEFF 		bl	USB_GetHostSpeed
 2502              	.LVL224:
1140:Drivers/STM32F7xx_HAL_Driver/Src/stm32f7xx_hal_hcd.c **** 
 2503              		.loc 1 1140 0
 2504 0008 08BD     		pop	{r3, pc}
 2505              		.cfi_endproc
 2506              	.LFE163:
 2508              		.text
 2509              	.Letext0:
 2510              		.file 2 "/usr/include/newlib/machine/_default_types.h"
 2511              		.file 3 "/usr/include/newlib/sys/_stdint.h"
 2512              		.file 4 "Drivers/CMSIS/Include/core_cm7.h"
 2513              		.file 5 "Drivers/CMSIS/Device/ST/STM32F7xx/Include/system_stm32f7xx.h"
 2514              		.file 6 "Drivers/CMSIS/Device/ST/STM32F7xx/Include/stm32f746xx.h"
 2515              		.file 7 "Drivers/STM32F7xx_HAL_Driver/Inc/stm32f7xx_hal_def.h"
 2516              		.file 8 "Drivers/STM32F7xx_HAL_Driver/Inc/stm32f7xx_ll_usb.h"
 2517              		.file 9 "Drivers/STM32F7xx_HAL_Driver/Inc/stm32f7xx_hal_hcd.h"
 2518              		.file 10 "Drivers/STM32F7xx_HAL_Driver/Inc/stm32f7xx_hal.h"
ARM GAS  /tmp/ccqVt8hD.s 			page 80


DEFINED SYMBOLS
                            *ABS*:0000000000000000 stm32f7xx_hal_hcd.c
     /tmp/ccqVt8hD.s:18     .text.HCD_RXQLVL_IRQHandler:0000000000000000 $t
     /tmp/ccqVt8hD.s:24     .text.HCD_RXQLVL_IRQHandler:0000000000000000 HCD_RXQLVL_IRQHandler
     /tmp/ccqVt8hD.s:121    .text.HCD_RXQLVL_IRQHandler:0000000000000078 $d
     /tmp/ccqVt8hD.s:126    .text.HAL_HCD_HC_Init:0000000000000000 $t
     /tmp/ccqVt8hD.s:133    .text.HAL_HCD_HC_Init:0000000000000000 HAL_HCD_HC_Init
     /tmp/ccqVt8hD.s:235    .text.HAL_HCD_HC_Halt:0000000000000000 $t
     /tmp/ccqVt8hD.s:242    .text.HAL_HCD_HC_Halt:0000000000000000 HAL_HCD_HC_Halt
     /tmp/ccqVt8hD.s:288    .text.HAL_HCD_MspInit:0000000000000000 $t
     /tmp/ccqVt8hD.s:295    .text.HAL_HCD_MspInit:0000000000000000 HAL_HCD_MspInit
     /tmp/ccqVt8hD.s:309    .text.HAL_HCD_Init:0000000000000000 $t
     /tmp/ccqVt8hD.s:316    .text.HAL_HCD_Init:0000000000000000 HAL_HCD_Init
     /tmp/ccqVt8hD.s:438    .text.HAL_HCD_MspDeInit:0000000000000000 $t
     /tmp/ccqVt8hD.s:445    .text.HAL_HCD_MspDeInit:0000000000000000 HAL_HCD_MspDeInit
     /tmp/ccqVt8hD.s:459    .text.HAL_HCD_DeInit:0000000000000000 $t
     /tmp/ccqVt8hD.s:466    .text.HAL_HCD_DeInit:0000000000000000 HAL_HCD_DeInit
     /tmp/ccqVt8hD.s:512    .text.HAL_HCD_HC_SubmitRequest:0000000000000000 $t
     /tmp/ccqVt8hD.s:519    .text.HAL_HCD_HC_SubmitRequest:0000000000000000 HAL_HCD_HC_SubmitRequest
     /tmp/ccqVt8hD.s:563    .text.HAL_HCD_HC_SubmitRequest:000000000000003c $d
     /tmp/ccqVt8hD.s:567    .text.HAL_HCD_HC_SubmitRequest:0000000000000040 $t
     /tmp/ccqVt8hD.s:765    .text.HAL_HCD_SOF_Callback:0000000000000000 $t
     /tmp/ccqVt8hD.s:772    .text.HAL_HCD_SOF_Callback:0000000000000000 HAL_HCD_SOF_Callback
     /tmp/ccqVt8hD.s:786    .text.HAL_HCD_Connect_Callback:0000000000000000 $t
     /tmp/ccqVt8hD.s:793    .text.HAL_HCD_Connect_Callback:0000000000000000 HAL_HCD_Connect_Callback
     /tmp/ccqVt8hD.s:807    .text.HAL_HCD_Disconnect_Callback:0000000000000000 $t
     /tmp/ccqVt8hD.s:814    .text.HAL_HCD_Disconnect_Callback:0000000000000000 HAL_HCD_Disconnect_Callback
     /tmp/ccqVt8hD.s:828    .text.HAL_HCD_PortEnabled_Callback:0000000000000000 $t
     /tmp/ccqVt8hD.s:835    .text.HAL_HCD_PortEnabled_Callback:0000000000000000 HAL_HCD_PortEnabled_Callback
     /tmp/ccqVt8hD.s:849    .text.HAL_HCD_PortDisabled_Callback:0000000000000000 $t
     /tmp/ccqVt8hD.s:856    .text.HAL_HCD_PortDisabled_Callback:0000000000000000 HAL_HCD_PortDisabled_Callback
     /tmp/ccqVt8hD.s:870    .text.HCD_Port_IRQHandler:0000000000000000 $t
     /tmp/ccqVt8hD.s:876    .text.HCD_Port_IRQHandler:0000000000000000 HCD_Port_IRQHandler
     /tmp/ccqVt8hD.s:1008   .text.HAL_HCD_HC_NotifyURBChange_Callback:0000000000000000 $t
     /tmp/ccqVt8hD.s:1015   .text.HAL_HCD_HC_NotifyURBChange_Callback:0000000000000000 HAL_HCD_HC_NotifyURBChange_Callback
     /tmp/ccqVt8hD.s:1029   .text.HCD_HC_IN_IRQHandler:0000000000000000 $t
     /tmp/ccqVt8hD.s:1035   .text.HCD_HC_IN_IRQHandler:0000000000000000 HCD_HC_IN_IRQHandler
     /tmp/ccqVt8hD.s:1539   .text.HCD_HC_OUT_IRQHandler:0000000000000000 $t
     /tmp/ccqVt8hD.s:1545   .text.HCD_HC_OUT_IRQHandler:0000000000000000 HCD_HC_OUT_IRQHandler
     /tmp/ccqVt8hD.s:1977   .text.HAL_HCD_IRQHandler:0000000000000000 $t
     /tmp/ccqVt8hD.s:1984   .text.HAL_HCD_IRQHandler:0000000000000000 HAL_HCD_IRQHandler
     /tmp/ccqVt8hD.s:2202   .text.HAL_HCD_Start:0000000000000000 $t
     /tmp/ccqVt8hD.s:2209   .text.HAL_HCD_Start:0000000000000000 HAL_HCD_Start
     /tmp/ccqVt8hD.s:2258   .text.HAL_HCD_Stop:0000000000000000 $t
     /tmp/ccqVt8hD.s:2265   .text.HAL_HCD_Stop:0000000000000000 HAL_HCD_Stop
     /tmp/ccqVt8hD.s:2311   .text.HAL_HCD_ResetPort:0000000000000000 $t
     /tmp/ccqVt8hD.s:2318   .text.HAL_HCD_ResetPort:0000000000000000 HAL_HCD_ResetPort
     /tmp/ccqVt8hD.s:2341   .text.HAL_HCD_GetState:0000000000000000 $t
     /tmp/ccqVt8hD.s:2348   .text.HAL_HCD_GetState:0000000000000000 HAL_HCD_GetState
     /tmp/ccqVt8hD.s:2365   .text.HAL_HCD_HC_GetURBState:0000000000000000 $t
     /tmp/ccqVt8hD.s:2372   .text.HAL_HCD_HC_GetURBState:0000000000000000 HAL_HCD_HC_GetURBState
     /tmp/ccqVt8hD.s:2393   .text.HAL_HCD_HC_GetXferCount:0000000000000000 $t
     /tmp/ccqVt8hD.s:2400   .text.HAL_HCD_HC_GetXferCount:0000000000000000 HAL_HCD_HC_GetXferCount
     /tmp/ccqVt8hD.s:2421   .text.HAL_HCD_HC_GetState:0000000000000000 $t
     /tmp/ccqVt8hD.s:2428   .text.HAL_HCD_HC_GetState:0000000000000000 HAL_HCD_HC_GetState
     /tmp/ccqVt8hD.s:2449   .text.HAL_HCD_GetCurrentFrame:0000000000000000 $t
     /tmp/ccqVt8hD.s:2456   .text.HAL_HCD_GetCurrentFrame:0000000000000000 HAL_HCD_GetCurrentFrame
ARM GAS  /tmp/ccqVt8hD.s 			page 81


     /tmp/ccqVt8hD.s:2479   .text.HAL_HCD_GetCurrentSpeed:0000000000000000 $t
     /tmp/ccqVt8hD.s:2486   .text.HAL_HCD_GetCurrentSpeed:0000000000000000 HAL_HCD_GetCurrentSpeed

UNDEFINED SYMBOLS
USB_ReadPacket
USB_HC_Init
USB_HC_Halt
USB_DisableGlobalInt
USB_CoreInit
USB_SetCurrentMode
USB_HostInit
USB_HC_StartXfer
USB_InitFSLSPClkSel
USB_GetMode
USB_ReadInterrupts
USB_HC_ReadInterrupt
USB_EnableGlobalInt
USB_DriveVbus
USB_StopHost
USB_ResetPort
USB_GetCurrentFrame
USB_GetHostSpeed
