ARM GAS  /tmp/ccxJPvV1.s 			page 1


   1              		.cpu cortex-m7
   2              		.eabi_attribute 27, 1
   3              		.eabi_attribute 28, 1
   4              		.eabi_attribute 20, 1
   5              		.eabi_attribute 21, 1
   6              		.eabi_attribute 23, 3
   7              		.eabi_attribute 24, 1
   8              		.eabi_attribute 25, 1
   9              		.eabi_attribute 26, 1
  10              		.eabi_attribute 30, 1
  11              		.eabi_attribute 34, 1
  12              		.eabi_attribute 18, 4
  13              		.file	"stm32f7xx_ll_sdmmc.c"
  14              		.text
  15              	.Ltext0:
  16              		.cfi_sections	.debug_frame
  17              		.section	.text.SDMMC_GetCmdError,"ax",%progbits
  18              		.align	1
  19              		.syntax unified
  20              		.thumb
  21              		.thumb_func
  22              		.fpu fpv5-sp-d16
  24              	SDMMC_GetCmdError:
  25              	.LFB179:
  26              		.file 1 "Drivers/STM32F7xx_HAL_Driver/Src/stm32f7xx_ll_sdmmc.c"
   1:Drivers/STM32F7xx_HAL_Driver/Src/stm32f7xx_ll_sdmmc.c **** /**
   2:Drivers/STM32F7xx_HAL_Driver/Src/stm32f7xx_ll_sdmmc.c ****   ******************************************************************************
   3:Drivers/STM32F7xx_HAL_Driver/Src/stm32f7xx_ll_sdmmc.c ****   * @file    stm32f7xx_ll_sdmmc.c
   4:Drivers/STM32F7xx_HAL_Driver/Src/stm32f7xx_ll_sdmmc.c ****   * @author  MCD Application Team
   5:Drivers/STM32F7xx_HAL_Driver/Src/stm32f7xx_ll_sdmmc.c ****   * @brief   SDMMC Low Layer HAL module driver.
   6:Drivers/STM32F7xx_HAL_Driver/Src/stm32f7xx_ll_sdmmc.c ****   *    
   7:Drivers/STM32F7xx_HAL_Driver/Src/stm32f7xx_ll_sdmmc.c ****   *          This file provides firmware functions to manage the following 
   8:Drivers/STM32F7xx_HAL_Driver/Src/stm32f7xx_ll_sdmmc.c ****   *          functionalities of the SDMMC peripheral:
   9:Drivers/STM32F7xx_HAL_Driver/Src/stm32f7xx_ll_sdmmc.c ****   *           + Initialization/de-initialization functions
  10:Drivers/STM32F7xx_HAL_Driver/Src/stm32f7xx_ll_sdmmc.c ****   *           + I/O operation functions
  11:Drivers/STM32F7xx_HAL_Driver/Src/stm32f7xx_ll_sdmmc.c ****   *           + Peripheral Control functions 
  12:Drivers/STM32F7xx_HAL_Driver/Src/stm32f7xx_ll_sdmmc.c ****   *           + Peripheral State functions
  13:Drivers/STM32F7xx_HAL_Driver/Src/stm32f7xx_ll_sdmmc.c ****   *         
  14:Drivers/STM32F7xx_HAL_Driver/Src/stm32f7xx_ll_sdmmc.c ****   @verbatim
  15:Drivers/STM32F7xx_HAL_Driver/Src/stm32f7xx_ll_sdmmc.c ****   ==============================================================================
  16:Drivers/STM32F7xx_HAL_Driver/Src/stm32f7xx_ll_sdmmc.c ****                        ##### SDMMC peripheral features #####
  17:Drivers/STM32F7xx_HAL_Driver/Src/stm32f7xx_ll_sdmmc.c ****   ==============================================================================        
  18:Drivers/STM32F7xx_HAL_Driver/Src/stm32f7xx_ll_sdmmc.c ****     [..] The SD/SDMMC MMC card host interface (SDMMC) provides an interface between the AHB
  19:Drivers/STM32F7xx_HAL_Driver/Src/stm32f7xx_ll_sdmmc.c ****          peripheral bus and MultiMedia cards (MMCs), SD memory cards, SDMMC cards and CE-ATA
  20:Drivers/STM32F7xx_HAL_Driver/Src/stm32f7xx_ll_sdmmc.c ****          devices.
  21:Drivers/STM32F7xx_HAL_Driver/Src/stm32f7xx_ll_sdmmc.c ****     
  22:Drivers/STM32F7xx_HAL_Driver/Src/stm32f7xx_ll_sdmmc.c ****     [..] The SDMMC features include the following:
  23:Drivers/STM32F7xx_HAL_Driver/Src/stm32f7xx_ll_sdmmc.c ****          (+) Full compliance with MultiMedia Card System Specification Version 4.2. Card support
  24:Drivers/STM32F7xx_HAL_Driver/Src/stm32f7xx_ll_sdmmc.c ****              for three different databus modes: 1-bit (default), 4-bit and 8-bit
  25:Drivers/STM32F7xx_HAL_Driver/Src/stm32f7xx_ll_sdmmc.c ****          (+) Full compatibility with previous versions of MultiMedia Cards (forward compatibility)
  26:Drivers/STM32F7xx_HAL_Driver/Src/stm32f7xx_ll_sdmmc.c ****          (+) Full compliance with SD Memory Card Specifications Version 2.0
  27:Drivers/STM32F7xx_HAL_Driver/Src/stm32f7xx_ll_sdmmc.c ****          (+) Full compliance with SD I/O Card Specification Version 2.0: card support for two
  28:Drivers/STM32F7xx_HAL_Driver/Src/stm32f7xx_ll_sdmmc.c ****              different data bus modes: 1-bit (default) and 4-bit
  29:Drivers/STM32F7xx_HAL_Driver/Src/stm32f7xx_ll_sdmmc.c ****          (+) Full support of the CE-ATA features (full compliance with CE-ATA digital protocol
  30:Drivers/STM32F7xx_HAL_Driver/Src/stm32f7xx_ll_sdmmc.c ****              Rev1.1)
  31:Drivers/STM32F7xx_HAL_Driver/Src/stm32f7xx_ll_sdmmc.c ****          (+) Data transfer up to 48 MHz for the 8 bit mode
  32:Drivers/STM32F7xx_HAL_Driver/Src/stm32f7xx_ll_sdmmc.c ****          (+) Data and command output enable signals to control external bidirectional drivers
ARM GAS  /tmp/ccxJPvV1.s 			page 2


  33:Drivers/STM32F7xx_HAL_Driver/Src/stm32f7xx_ll_sdmmc.c ****    
  34:Drivers/STM32F7xx_HAL_Driver/Src/stm32f7xx_ll_sdmmc.c ****                            ##### How to use this driver #####
  35:Drivers/STM32F7xx_HAL_Driver/Src/stm32f7xx_ll_sdmmc.c ****   ==============================================================================
  36:Drivers/STM32F7xx_HAL_Driver/Src/stm32f7xx_ll_sdmmc.c ****     [..]
  37:Drivers/STM32F7xx_HAL_Driver/Src/stm32f7xx_ll_sdmmc.c ****       This driver is a considered as a driver of service for external devices drivers 
  38:Drivers/STM32F7xx_HAL_Driver/Src/stm32f7xx_ll_sdmmc.c ****       that interfaces with the SDMMC peripheral.
  39:Drivers/STM32F7xx_HAL_Driver/Src/stm32f7xx_ll_sdmmc.c ****       According to the device used (SD card/ MMC card / SDMMC card ...), a set of APIs 
  40:Drivers/STM32F7xx_HAL_Driver/Src/stm32f7xx_ll_sdmmc.c ****       is used in the device's driver to perform SDMMC operations and functionalities.
  41:Drivers/STM32F7xx_HAL_Driver/Src/stm32f7xx_ll_sdmmc.c ****    
  42:Drivers/STM32F7xx_HAL_Driver/Src/stm32f7xx_ll_sdmmc.c ****       This driver is almost transparent for the final user, it is only used to implement other
  43:Drivers/STM32F7xx_HAL_Driver/Src/stm32f7xx_ll_sdmmc.c ****       functionalities of the external device.
  44:Drivers/STM32F7xx_HAL_Driver/Src/stm32f7xx_ll_sdmmc.c ****    
  45:Drivers/STM32F7xx_HAL_Driver/Src/stm32f7xx_ll_sdmmc.c ****     [..]
  46:Drivers/STM32F7xx_HAL_Driver/Src/stm32f7xx_ll_sdmmc.c ****       (+) The SDMMC clock (SDMMCCLK = 48 MHz) is coming from a specific output (MSI, PLLUSB1CLK,
  47:Drivers/STM32F7xx_HAL_Driver/Src/stm32f7xx_ll_sdmmc.c ****           PLLUSB2CLK). Before start working with SDMMC peripheral make sure that the
  48:Drivers/STM32F7xx_HAL_Driver/Src/stm32f7xx_ll_sdmmc.c ****           PLL is well configured.
  49:Drivers/STM32F7xx_HAL_Driver/Src/stm32f7xx_ll_sdmmc.c ****           The SDMMC peripheral uses two clock signals:
  50:Drivers/STM32F7xx_HAL_Driver/Src/stm32f7xx_ll_sdmmc.c ****           (++) SDMMC adapter clock (SDMMCCLK = 48 MHz)
  51:Drivers/STM32F7xx_HAL_Driver/Src/stm32f7xx_ll_sdmmc.c ****           (++) APB2 bus clock (PCLK2)
  52:Drivers/STM32F7xx_HAL_Driver/Src/stm32f7xx_ll_sdmmc.c ****        
  53:Drivers/STM32F7xx_HAL_Driver/Src/stm32f7xx_ll_sdmmc.c ****           -@@- PCLK2 and SDMMC_CK clock frequencies must respect the following condition:
  54:Drivers/STM32F7xx_HAL_Driver/Src/stm32f7xx_ll_sdmmc.c ****                Frequency(PCLK2) >= (3 / 8 x Frequency(SDMMC_CK))
  55:Drivers/STM32F7xx_HAL_Driver/Src/stm32f7xx_ll_sdmmc.c ****   
  56:Drivers/STM32F7xx_HAL_Driver/Src/stm32f7xx_ll_sdmmc.c ****       (+) Enable/Disable peripheral clock using RCC peripheral macros related to SDMMC
  57:Drivers/STM32F7xx_HAL_Driver/Src/stm32f7xx_ll_sdmmc.c ****           peripheral.
  58:Drivers/STM32F7xx_HAL_Driver/Src/stm32f7xx_ll_sdmmc.c **** 
  59:Drivers/STM32F7xx_HAL_Driver/Src/stm32f7xx_ll_sdmmc.c ****       (+) Enable the Power ON State using the SDMMC_PowerState_ON() 
  60:Drivers/STM32F7xx_HAL_Driver/Src/stm32f7xx_ll_sdmmc.c ****           function and disable it using the function SDMMC_PowerState_OFF().
  61:Drivers/STM32F7xx_HAL_Driver/Src/stm32f7xx_ll_sdmmc.c ****                 
  62:Drivers/STM32F7xx_HAL_Driver/Src/stm32f7xx_ll_sdmmc.c ****       (+) Enable/Disable the clock using the __SDMMC_ENABLE()/__SDMMC_DISABLE() macros.
  63:Drivers/STM32F7xx_HAL_Driver/Src/stm32f7xx_ll_sdmmc.c ****   
  64:Drivers/STM32F7xx_HAL_Driver/Src/stm32f7xx_ll_sdmmc.c ****       (+) Enable/Disable the peripheral interrupts using the macros __SDMMC_ENABLE_IT() 
  65:Drivers/STM32F7xx_HAL_Driver/Src/stm32f7xx_ll_sdmmc.c ****           and __SDMMC_DISABLE_IT() if you need to use interrupt mode. 
  66:Drivers/STM32F7xx_HAL_Driver/Src/stm32f7xx_ll_sdmmc.c ****   
  67:Drivers/STM32F7xx_HAL_Driver/Src/stm32f7xx_ll_sdmmc.c ****       (+) When using the DMA mode 
  68:Drivers/STM32F7xx_HAL_Driver/Src/stm32f7xx_ll_sdmmc.c ****           (++) Configure the DMA in the MSP layer of the external device
  69:Drivers/STM32F7xx_HAL_Driver/Src/stm32f7xx_ll_sdmmc.c ****           (++) Active the needed channel Request 
  70:Drivers/STM32F7xx_HAL_Driver/Src/stm32f7xx_ll_sdmmc.c ****           (++) Enable the DMA using __SDMMC_DMA_ENABLE() macro or Disable it using the macro
  71:Drivers/STM32F7xx_HAL_Driver/Src/stm32f7xx_ll_sdmmc.c ****                __SDMMC_DMA_DISABLE().
  72:Drivers/STM32F7xx_HAL_Driver/Src/stm32f7xx_ll_sdmmc.c ****   
  73:Drivers/STM32F7xx_HAL_Driver/Src/stm32f7xx_ll_sdmmc.c ****       (+) To control the CPSM (Command Path State Machine) and send 
  74:Drivers/STM32F7xx_HAL_Driver/Src/stm32f7xx_ll_sdmmc.c ****           commands to the card use the SDMMC_SendCommand(), 
  75:Drivers/STM32F7xx_HAL_Driver/Src/stm32f7xx_ll_sdmmc.c ****           SDMMC_GetCommandResponse() and SDMMC_GetResponse() functions. First, user has
  76:Drivers/STM32F7xx_HAL_Driver/Src/stm32f7xx_ll_sdmmc.c ****           to fill the command structure (pointer to SDMMC_CmdInitTypeDef) according 
  77:Drivers/STM32F7xx_HAL_Driver/Src/stm32f7xx_ll_sdmmc.c ****           to the selected command to be sent.
  78:Drivers/STM32F7xx_HAL_Driver/Src/stm32f7xx_ll_sdmmc.c ****           The parameters that should be filled are:
  79:Drivers/STM32F7xx_HAL_Driver/Src/stm32f7xx_ll_sdmmc.c ****            (++) Command Argument
  80:Drivers/STM32F7xx_HAL_Driver/Src/stm32f7xx_ll_sdmmc.c ****            (++) Command Index
  81:Drivers/STM32F7xx_HAL_Driver/Src/stm32f7xx_ll_sdmmc.c ****            (++) Command Response type
  82:Drivers/STM32F7xx_HAL_Driver/Src/stm32f7xx_ll_sdmmc.c ****            (++) Command Wait
  83:Drivers/STM32F7xx_HAL_Driver/Src/stm32f7xx_ll_sdmmc.c ****            (++) CPSM Status (Enable or Disable).
  84:Drivers/STM32F7xx_HAL_Driver/Src/stm32f7xx_ll_sdmmc.c ****   
  85:Drivers/STM32F7xx_HAL_Driver/Src/stm32f7xx_ll_sdmmc.c ****           -@@- To check if the command is well received, read the SDMMC_CMDRESP
  86:Drivers/STM32F7xx_HAL_Driver/Src/stm32f7xx_ll_sdmmc.c ****               register using the SDMMC_GetCommandResponse().
  87:Drivers/STM32F7xx_HAL_Driver/Src/stm32f7xx_ll_sdmmc.c ****               The SDMMC responses registers (SDMMC_RESP1 to SDMMC_RESP2), use the
  88:Drivers/STM32F7xx_HAL_Driver/Src/stm32f7xx_ll_sdmmc.c ****               SDMMC_GetResponse() function.
  89:Drivers/STM32F7xx_HAL_Driver/Src/stm32f7xx_ll_sdmmc.c ****   
ARM GAS  /tmp/ccxJPvV1.s 			page 3


  90:Drivers/STM32F7xx_HAL_Driver/Src/stm32f7xx_ll_sdmmc.c ****       (+) To control the DPSM (Data Path State Machine) and send/receive 
  91:Drivers/STM32F7xx_HAL_Driver/Src/stm32f7xx_ll_sdmmc.c ****            data to/from the card use the SDMMC_DataConfig(), SDMMC_GetDataCounter(), 
  92:Drivers/STM32F7xx_HAL_Driver/Src/stm32f7xx_ll_sdmmc.c ****           SDMMC_ReadFIFO(), SDMMC_WriteFIFO() and SDMMC_GetFIFOCount() functions.
  93:Drivers/STM32F7xx_HAL_Driver/Src/stm32f7xx_ll_sdmmc.c ****   
  94:Drivers/STM32F7xx_HAL_Driver/Src/stm32f7xx_ll_sdmmc.c ****     *** Read Operations ***
  95:Drivers/STM32F7xx_HAL_Driver/Src/stm32f7xx_ll_sdmmc.c ****     =======================
  96:Drivers/STM32F7xx_HAL_Driver/Src/stm32f7xx_ll_sdmmc.c ****     [..]
  97:Drivers/STM32F7xx_HAL_Driver/Src/stm32f7xx_ll_sdmmc.c ****       (#) First, user has to fill the data structure (pointer to
  98:Drivers/STM32F7xx_HAL_Driver/Src/stm32f7xx_ll_sdmmc.c ****           SDMMC_DataInitTypeDef) according to the selected data type to be received.
  99:Drivers/STM32F7xx_HAL_Driver/Src/stm32f7xx_ll_sdmmc.c ****           The parameters that should be filled are:
 100:Drivers/STM32F7xx_HAL_Driver/Src/stm32f7xx_ll_sdmmc.c ****            (++) Data TimeOut
 101:Drivers/STM32F7xx_HAL_Driver/Src/stm32f7xx_ll_sdmmc.c ****            (++) Data Length
 102:Drivers/STM32F7xx_HAL_Driver/Src/stm32f7xx_ll_sdmmc.c ****            (++) Data Block size
 103:Drivers/STM32F7xx_HAL_Driver/Src/stm32f7xx_ll_sdmmc.c ****            (++) Data Transfer direction: should be from card (To SDMMC)
 104:Drivers/STM32F7xx_HAL_Driver/Src/stm32f7xx_ll_sdmmc.c ****            (++) Data Transfer mode
 105:Drivers/STM32F7xx_HAL_Driver/Src/stm32f7xx_ll_sdmmc.c ****            (++) DPSM Status (Enable or Disable)
 106:Drivers/STM32F7xx_HAL_Driver/Src/stm32f7xx_ll_sdmmc.c ****                                      
 107:Drivers/STM32F7xx_HAL_Driver/Src/stm32f7xx_ll_sdmmc.c ****       (#) Configure the SDMMC resources to receive the data from the card
 108:Drivers/STM32F7xx_HAL_Driver/Src/stm32f7xx_ll_sdmmc.c ****           according to selected transfer mode (Refer to Step 8, 9 and 10).
 109:Drivers/STM32F7xx_HAL_Driver/Src/stm32f7xx_ll_sdmmc.c ****   
 110:Drivers/STM32F7xx_HAL_Driver/Src/stm32f7xx_ll_sdmmc.c ****       (#) Send the selected Read command (refer to step 11).
 111:Drivers/STM32F7xx_HAL_Driver/Src/stm32f7xx_ll_sdmmc.c ****                     
 112:Drivers/STM32F7xx_HAL_Driver/Src/stm32f7xx_ll_sdmmc.c ****       (#) Use the SDMMC flags/interrupts to check the transfer status.
 113:Drivers/STM32F7xx_HAL_Driver/Src/stm32f7xx_ll_sdmmc.c ****   
 114:Drivers/STM32F7xx_HAL_Driver/Src/stm32f7xx_ll_sdmmc.c ****     *** Write Operations ***
 115:Drivers/STM32F7xx_HAL_Driver/Src/stm32f7xx_ll_sdmmc.c ****     ========================
 116:Drivers/STM32F7xx_HAL_Driver/Src/stm32f7xx_ll_sdmmc.c ****     [..]
 117:Drivers/STM32F7xx_HAL_Driver/Src/stm32f7xx_ll_sdmmc.c ****      (#) First, user has to fill the data structure (pointer to
 118:Drivers/STM32F7xx_HAL_Driver/Src/stm32f7xx_ll_sdmmc.c ****          SDMMC_DataInitTypeDef) according to the selected data type to be received.
 119:Drivers/STM32F7xx_HAL_Driver/Src/stm32f7xx_ll_sdmmc.c ****          The parameters that should be filled are:
 120:Drivers/STM32F7xx_HAL_Driver/Src/stm32f7xx_ll_sdmmc.c ****           (++) Data TimeOut
 121:Drivers/STM32F7xx_HAL_Driver/Src/stm32f7xx_ll_sdmmc.c ****           (++) Data Length
 122:Drivers/STM32F7xx_HAL_Driver/Src/stm32f7xx_ll_sdmmc.c ****           (++) Data Block size
 123:Drivers/STM32F7xx_HAL_Driver/Src/stm32f7xx_ll_sdmmc.c ****           (++) Data Transfer direction:  should be to card (To CARD)
 124:Drivers/STM32F7xx_HAL_Driver/Src/stm32f7xx_ll_sdmmc.c ****           (++) Data Transfer mode
 125:Drivers/STM32F7xx_HAL_Driver/Src/stm32f7xx_ll_sdmmc.c ****           (++) DPSM Status (Enable or Disable)
 126:Drivers/STM32F7xx_HAL_Driver/Src/stm32f7xx_ll_sdmmc.c ****   
 127:Drivers/STM32F7xx_HAL_Driver/Src/stm32f7xx_ll_sdmmc.c ****      (#) Configure the SDMMC resources to send the data to the card according to 
 128:Drivers/STM32F7xx_HAL_Driver/Src/stm32f7xx_ll_sdmmc.c ****          selected transfer mode.
 129:Drivers/STM32F7xx_HAL_Driver/Src/stm32f7xx_ll_sdmmc.c ****                      
 130:Drivers/STM32F7xx_HAL_Driver/Src/stm32f7xx_ll_sdmmc.c ****      (#) Send the selected Write command.
 131:Drivers/STM32F7xx_HAL_Driver/Src/stm32f7xx_ll_sdmmc.c ****                     
 132:Drivers/STM32F7xx_HAL_Driver/Src/stm32f7xx_ll_sdmmc.c ****      (#) Use the SDMMC flags/interrupts to check the transfer status.
 133:Drivers/STM32F7xx_HAL_Driver/Src/stm32f7xx_ll_sdmmc.c ****        
 134:Drivers/STM32F7xx_HAL_Driver/Src/stm32f7xx_ll_sdmmc.c ****     *** Command management operations ***
 135:Drivers/STM32F7xx_HAL_Driver/Src/stm32f7xx_ll_sdmmc.c ****     =====================================
 136:Drivers/STM32F7xx_HAL_Driver/Src/stm32f7xx_ll_sdmmc.c ****     [..]
 137:Drivers/STM32F7xx_HAL_Driver/Src/stm32f7xx_ll_sdmmc.c ****      (#) The commands used for Read/Write/Erase operations are managed in 
 138:Drivers/STM32F7xx_HAL_Driver/Src/stm32f7xx_ll_sdmmc.c ****          separate functions. 
 139:Drivers/STM32F7xx_HAL_Driver/Src/stm32f7xx_ll_sdmmc.c ****          Each function allows to send the needed command with the related argument,
 140:Drivers/STM32F7xx_HAL_Driver/Src/stm32f7xx_ll_sdmmc.c ****          then check the response.
 141:Drivers/STM32F7xx_HAL_Driver/Src/stm32f7xx_ll_sdmmc.c ****          By the same approach, you could implement a command and check the response.
 142:Drivers/STM32F7xx_HAL_Driver/Src/stm32f7xx_ll_sdmmc.c ****   
 143:Drivers/STM32F7xx_HAL_Driver/Src/stm32f7xx_ll_sdmmc.c ****   @endverbatim
 144:Drivers/STM32F7xx_HAL_Driver/Src/stm32f7xx_ll_sdmmc.c ****   ******************************************************************************
 145:Drivers/STM32F7xx_HAL_Driver/Src/stm32f7xx_ll_sdmmc.c ****   * @attention
 146:Drivers/STM32F7xx_HAL_Driver/Src/stm32f7xx_ll_sdmmc.c ****   *
ARM GAS  /tmp/ccxJPvV1.s 			page 4


 147:Drivers/STM32F7xx_HAL_Driver/Src/stm32f7xx_ll_sdmmc.c ****   * <h2><center>&copy; Copyright (c) 2017 STMicroelectronics.
 148:Drivers/STM32F7xx_HAL_Driver/Src/stm32f7xx_ll_sdmmc.c ****   * All rights reserved.</center></h2>
 149:Drivers/STM32F7xx_HAL_Driver/Src/stm32f7xx_ll_sdmmc.c ****   *
 150:Drivers/STM32F7xx_HAL_Driver/Src/stm32f7xx_ll_sdmmc.c ****   * This software component is licensed by ST under BSD 3-Clause license,
 151:Drivers/STM32F7xx_HAL_Driver/Src/stm32f7xx_ll_sdmmc.c ****   * the "License"; You may not use this file except in compliance with the
 152:Drivers/STM32F7xx_HAL_Driver/Src/stm32f7xx_ll_sdmmc.c ****   * License. You may obtain a copy of the License at:
 153:Drivers/STM32F7xx_HAL_Driver/Src/stm32f7xx_ll_sdmmc.c ****   *                       opensource.org/licenses/BSD-3-Clause
 154:Drivers/STM32F7xx_HAL_Driver/Src/stm32f7xx_ll_sdmmc.c ****   *
 155:Drivers/STM32F7xx_HAL_Driver/Src/stm32f7xx_ll_sdmmc.c ****   ******************************************************************************
 156:Drivers/STM32F7xx_HAL_Driver/Src/stm32f7xx_ll_sdmmc.c ****   */ 
 157:Drivers/STM32F7xx_HAL_Driver/Src/stm32f7xx_ll_sdmmc.c **** 
 158:Drivers/STM32F7xx_HAL_Driver/Src/stm32f7xx_ll_sdmmc.c **** /* Includes ------------------------------------------------------------------*/
 159:Drivers/STM32F7xx_HAL_Driver/Src/stm32f7xx_ll_sdmmc.c **** #include "stm32f7xx_hal.h"
 160:Drivers/STM32F7xx_HAL_Driver/Src/stm32f7xx_ll_sdmmc.c **** 
 161:Drivers/STM32F7xx_HAL_Driver/Src/stm32f7xx_ll_sdmmc.c **** #if defined(SDMMC1)
 162:Drivers/STM32F7xx_HAL_Driver/Src/stm32f7xx_ll_sdmmc.c **** 
 163:Drivers/STM32F7xx_HAL_Driver/Src/stm32f7xx_ll_sdmmc.c **** /** @addtogroup STM32F7xx_HAL_Driver
 164:Drivers/STM32F7xx_HAL_Driver/Src/stm32f7xx_ll_sdmmc.c ****   * @{
 165:Drivers/STM32F7xx_HAL_Driver/Src/stm32f7xx_ll_sdmmc.c ****   */
 166:Drivers/STM32F7xx_HAL_Driver/Src/stm32f7xx_ll_sdmmc.c **** 
 167:Drivers/STM32F7xx_HAL_Driver/Src/stm32f7xx_ll_sdmmc.c **** /** @defgroup SDMMC_LL SDMMC Low Layer
 168:Drivers/STM32F7xx_HAL_Driver/Src/stm32f7xx_ll_sdmmc.c ****   * @brief Low layer module for SD
 169:Drivers/STM32F7xx_HAL_Driver/Src/stm32f7xx_ll_sdmmc.c ****   * @{
 170:Drivers/STM32F7xx_HAL_Driver/Src/stm32f7xx_ll_sdmmc.c ****   */
 171:Drivers/STM32F7xx_HAL_Driver/Src/stm32f7xx_ll_sdmmc.c **** 
 172:Drivers/STM32F7xx_HAL_Driver/Src/stm32f7xx_ll_sdmmc.c **** #if defined(HAL_SD_MODULE_ENABLED) || defined(HAL_MMC_MODULE_ENABLED)
 173:Drivers/STM32F7xx_HAL_Driver/Src/stm32f7xx_ll_sdmmc.c **** 
 174:Drivers/STM32F7xx_HAL_Driver/Src/stm32f7xx_ll_sdmmc.c **** /* Private typedef -----------------------------------------------------------*/
 175:Drivers/STM32F7xx_HAL_Driver/Src/stm32f7xx_ll_sdmmc.c **** /* Private define ------------------------------------------------------------*/
 176:Drivers/STM32F7xx_HAL_Driver/Src/stm32f7xx_ll_sdmmc.c **** /* Private macro -------------------------------------------------------------*/
 177:Drivers/STM32F7xx_HAL_Driver/Src/stm32f7xx_ll_sdmmc.c **** /* Private variables ---------------------------------------------------------*/
 178:Drivers/STM32F7xx_HAL_Driver/Src/stm32f7xx_ll_sdmmc.c **** /* Private function prototypes -----------------------------------------------*/
 179:Drivers/STM32F7xx_HAL_Driver/Src/stm32f7xx_ll_sdmmc.c **** static uint32_t SDMMC_GetCmdError(SDMMC_TypeDef *SDMMCx);
 180:Drivers/STM32F7xx_HAL_Driver/Src/stm32f7xx_ll_sdmmc.c **** static uint32_t SDMMC_GetCmdResp1(SDMMC_TypeDef *SDMMCx, uint8_t SD_CMD, uint32_t Timeout);
 181:Drivers/STM32F7xx_HAL_Driver/Src/stm32f7xx_ll_sdmmc.c **** static uint32_t SDMMC_GetCmdResp2(SDMMC_TypeDef *SDMMCx);
 182:Drivers/STM32F7xx_HAL_Driver/Src/stm32f7xx_ll_sdmmc.c **** static uint32_t SDMMC_GetCmdResp3(SDMMC_TypeDef *SDMMCx);
 183:Drivers/STM32F7xx_HAL_Driver/Src/stm32f7xx_ll_sdmmc.c **** static uint32_t SDMMC_GetCmdResp7(SDMMC_TypeDef *SDMMCx);
 184:Drivers/STM32F7xx_HAL_Driver/Src/stm32f7xx_ll_sdmmc.c **** static uint32_t SDMMC_GetCmdResp6(SDMMC_TypeDef *SDMMCx, uint8_t SD_CMD, uint16_t *pRCA);
 185:Drivers/STM32F7xx_HAL_Driver/Src/stm32f7xx_ll_sdmmc.c **** 
 186:Drivers/STM32F7xx_HAL_Driver/Src/stm32f7xx_ll_sdmmc.c **** /* Exported functions --------------------------------------------------------*/
 187:Drivers/STM32F7xx_HAL_Driver/Src/stm32f7xx_ll_sdmmc.c **** 
 188:Drivers/STM32F7xx_HAL_Driver/Src/stm32f7xx_ll_sdmmc.c **** /** @defgroup SDMMC_LL_Exported_Functions SDMMC Low Layer Exported Functions
 189:Drivers/STM32F7xx_HAL_Driver/Src/stm32f7xx_ll_sdmmc.c ****   * @{
 190:Drivers/STM32F7xx_HAL_Driver/Src/stm32f7xx_ll_sdmmc.c ****   */
 191:Drivers/STM32F7xx_HAL_Driver/Src/stm32f7xx_ll_sdmmc.c **** 
 192:Drivers/STM32F7xx_HAL_Driver/Src/stm32f7xx_ll_sdmmc.c **** /** @defgroup HAL_SDMMC_LL_Group1 Initialization de-initialization functions 
 193:Drivers/STM32F7xx_HAL_Driver/Src/stm32f7xx_ll_sdmmc.c ****  *  @brief    Initialization and Configuration functions 
 194:Drivers/STM32F7xx_HAL_Driver/Src/stm32f7xx_ll_sdmmc.c ****  *
 195:Drivers/STM32F7xx_HAL_Driver/Src/stm32f7xx_ll_sdmmc.c **** @verbatim    
 196:Drivers/STM32F7xx_HAL_Driver/Src/stm32f7xx_ll_sdmmc.c ****  ===============================================================================
 197:Drivers/STM32F7xx_HAL_Driver/Src/stm32f7xx_ll_sdmmc.c ****               ##### Initialization/de-initialization functions #####
 198:Drivers/STM32F7xx_HAL_Driver/Src/stm32f7xx_ll_sdmmc.c ****  ===============================================================================
 199:Drivers/STM32F7xx_HAL_Driver/Src/stm32f7xx_ll_sdmmc.c ****     [..]  This section provides functions allowing to:
 200:Drivers/STM32F7xx_HAL_Driver/Src/stm32f7xx_ll_sdmmc.c ****  
 201:Drivers/STM32F7xx_HAL_Driver/Src/stm32f7xx_ll_sdmmc.c **** @endverbatim
 202:Drivers/STM32F7xx_HAL_Driver/Src/stm32f7xx_ll_sdmmc.c ****   * @{
 203:Drivers/STM32F7xx_HAL_Driver/Src/stm32f7xx_ll_sdmmc.c ****   */
ARM GAS  /tmp/ccxJPvV1.s 			page 5


 204:Drivers/STM32F7xx_HAL_Driver/Src/stm32f7xx_ll_sdmmc.c **** 
 205:Drivers/STM32F7xx_HAL_Driver/Src/stm32f7xx_ll_sdmmc.c **** /**
 206:Drivers/STM32F7xx_HAL_Driver/Src/stm32f7xx_ll_sdmmc.c ****   * @brief  Initializes the SDMMC according to the specified
 207:Drivers/STM32F7xx_HAL_Driver/Src/stm32f7xx_ll_sdmmc.c ****   *         parameters in the SDMMC_InitTypeDef and create the associated handle.
 208:Drivers/STM32F7xx_HAL_Driver/Src/stm32f7xx_ll_sdmmc.c ****   * @param  SDMMCx: Pointer to SDMMC register base
 209:Drivers/STM32F7xx_HAL_Driver/Src/stm32f7xx_ll_sdmmc.c ****   * @param  Init: SDMMC initialization structure   
 210:Drivers/STM32F7xx_HAL_Driver/Src/stm32f7xx_ll_sdmmc.c ****   * @retval HAL status
 211:Drivers/STM32F7xx_HAL_Driver/Src/stm32f7xx_ll_sdmmc.c ****   */
 212:Drivers/STM32F7xx_HAL_Driver/Src/stm32f7xx_ll_sdmmc.c **** HAL_StatusTypeDef SDMMC_Init(SDMMC_TypeDef *SDMMCx, SDMMC_InitTypeDef Init)
 213:Drivers/STM32F7xx_HAL_Driver/Src/stm32f7xx_ll_sdmmc.c **** {
 214:Drivers/STM32F7xx_HAL_Driver/Src/stm32f7xx_ll_sdmmc.c ****   uint32_t tmpreg = 0;
 215:Drivers/STM32F7xx_HAL_Driver/Src/stm32f7xx_ll_sdmmc.c **** 
 216:Drivers/STM32F7xx_HAL_Driver/Src/stm32f7xx_ll_sdmmc.c ****   /* Check the parameters */
 217:Drivers/STM32F7xx_HAL_Driver/Src/stm32f7xx_ll_sdmmc.c ****   assert_param(IS_SDMMC_ALL_INSTANCE(SDMMCx));
 218:Drivers/STM32F7xx_HAL_Driver/Src/stm32f7xx_ll_sdmmc.c ****   assert_param(IS_SDMMC_CLOCK_EDGE(Init.ClockEdge)); 
 219:Drivers/STM32F7xx_HAL_Driver/Src/stm32f7xx_ll_sdmmc.c ****   assert_param(IS_SDMMC_CLOCK_BYPASS(Init.ClockBypass));
 220:Drivers/STM32F7xx_HAL_Driver/Src/stm32f7xx_ll_sdmmc.c ****   assert_param(IS_SDMMC_CLOCK_POWER_SAVE(Init.ClockPowerSave));
 221:Drivers/STM32F7xx_HAL_Driver/Src/stm32f7xx_ll_sdmmc.c ****   assert_param(IS_SDMMC_BUS_WIDE(Init.BusWide));
 222:Drivers/STM32F7xx_HAL_Driver/Src/stm32f7xx_ll_sdmmc.c ****   assert_param(IS_SDMMC_HARDWARE_FLOW_CONTROL(Init.HardwareFlowControl));
 223:Drivers/STM32F7xx_HAL_Driver/Src/stm32f7xx_ll_sdmmc.c ****   assert_param(IS_SDMMC_CLKDIV(Init.ClockDiv));
 224:Drivers/STM32F7xx_HAL_Driver/Src/stm32f7xx_ll_sdmmc.c ****   
 225:Drivers/STM32F7xx_HAL_Driver/Src/stm32f7xx_ll_sdmmc.c ****   /* Set SDMMC configuration parameters */
 226:Drivers/STM32F7xx_HAL_Driver/Src/stm32f7xx_ll_sdmmc.c ****   tmpreg |= (Init.ClockEdge           |\
 227:Drivers/STM32F7xx_HAL_Driver/Src/stm32f7xx_ll_sdmmc.c ****              Init.ClockBypass         |\
 228:Drivers/STM32F7xx_HAL_Driver/Src/stm32f7xx_ll_sdmmc.c ****              Init.ClockPowerSave      |\
 229:Drivers/STM32F7xx_HAL_Driver/Src/stm32f7xx_ll_sdmmc.c ****              Init.BusWide             |\
 230:Drivers/STM32F7xx_HAL_Driver/Src/stm32f7xx_ll_sdmmc.c ****              Init.HardwareFlowControl |\
 231:Drivers/STM32F7xx_HAL_Driver/Src/stm32f7xx_ll_sdmmc.c ****              Init.ClockDiv
 232:Drivers/STM32F7xx_HAL_Driver/Src/stm32f7xx_ll_sdmmc.c ****              ); 
 233:Drivers/STM32F7xx_HAL_Driver/Src/stm32f7xx_ll_sdmmc.c ****   
 234:Drivers/STM32F7xx_HAL_Driver/Src/stm32f7xx_ll_sdmmc.c ****   /* Write to SDMMC CLKCR */
 235:Drivers/STM32F7xx_HAL_Driver/Src/stm32f7xx_ll_sdmmc.c ****   MODIFY_REG(SDMMCx->CLKCR, CLKCR_CLEAR_MASK, tmpreg);  
 236:Drivers/STM32F7xx_HAL_Driver/Src/stm32f7xx_ll_sdmmc.c **** 
 237:Drivers/STM32F7xx_HAL_Driver/Src/stm32f7xx_ll_sdmmc.c ****   return HAL_OK;
 238:Drivers/STM32F7xx_HAL_Driver/Src/stm32f7xx_ll_sdmmc.c **** }
 239:Drivers/STM32F7xx_HAL_Driver/Src/stm32f7xx_ll_sdmmc.c **** 
 240:Drivers/STM32F7xx_HAL_Driver/Src/stm32f7xx_ll_sdmmc.c **** 
 241:Drivers/STM32F7xx_HAL_Driver/Src/stm32f7xx_ll_sdmmc.c **** /**
 242:Drivers/STM32F7xx_HAL_Driver/Src/stm32f7xx_ll_sdmmc.c ****   * @}
 243:Drivers/STM32F7xx_HAL_Driver/Src/stm32f7xx_ll_sdmmc.c ****   */
 244:Drivers/STM32F7xx_HAL_Driver/Src/stm32f7xx_ll_sdmmc.c **** 
 245:Drivers/STM32F7xx_HAL_Driver/Src/stm32f7xx_ll_sdmmc.c **** /** @defgroup HAL_SDMMC_LL_Group2 IO operation functions 
 246:Drivers/STM32F7xx_HAL_Driver/Src/stm32f7xx_ll_sdmmc.c ****  *  @brief   Data transfers functions 
 247:Drivers/STM32F7xx_HAL_Driver/Src/stm32f7xx_ll_sdmmc.c ****  *
 248:Drivers/STM32F7xx_HAL_Driver/Src/stm32f7xx_ll_sdmmc.c **** @verbatim   
 249:Drivers/STM32F7xx_HAL_Driver/Src/stm32f7xx_ll_sdmmc.c ****  ===============================================================================
 250:Drivers/STM32F7xx_HAL_Driver/Src/stm32f7xx_ll_sdmmc.c ****                       ##### I/O operation functions #####
 251:Drivers/STM32F7xx_HAL_Driver/Src/stm32f7xx_ll_sdmmc.c ****  ===============================================================================  
 252:Drivers/STM32F7xx_HAL_Driver/Src/stm32f7xx_ll_sdmmc.c ****     [..]
 253:Drivers/STM32F7xx_HAL_Driver/Src/stm32f7xx_ll_sdmmc.c ****     This subsection provides a set of functions allowing to manage the SDMMC data 
 254:Drivers/STM32F7xx_HAL_Driver/Src/stm32f7xx_ll_sdmmc.c ****     transfers.
 255:Drivers/STM32F7xx_HAL_Driver/Src/stm32f7xx_ll_sdmmc.c **** 
 256:Drivers/STM32F7xx_HAL_Driver/Src/stm32f7xx_ll_sdmmc.c **** @endverbatim
 257:Drivers/STM32F7xx_HAL_Driver/Src/stm32f7xx_ll_sdmmc.c ****   * @{
 258:Drivers/STM32F7xx_HAL_Driver/Src/stm32f7xx_ll_sdmmc.c ****   */
 259:Drivers/STM32F7xx_HAL_Driver/Src/stm32f7xx_ll_sdmmc.c **** 
 260:Drivers/STM32F7xx_HAL_Driver/Src/stm32f7xx_ll_sdmmc.c **** /**
ARM GAS  /tmp/ccxJPvV1.s 			page 6


 261:Drivers/STM32F7xx_HAL_Driver/Src/stm32f7xx_ll_sdmmc.c ****   * @brief  Read data (word) from Rx FIFO in blocking mode (polling) 
 262:Drivers/STM32F7xx_HAL_Driver/Src/stm32f7xx_ll_sdmmc.c ****   * @param  SDMMCx: Pointer to SDMMC register base
 263:Drivers/STM32F7xx_HAL_Driver/Src/stm32f7xx_ll_sdmmc.c ****   * @retval HAL status
 264:Drivers/STM32F7xx_HAL_Driver/Src/stm32f7xx_ll_sdmmc.c ****   */
 265:Drivers/STM32F7xx_HAL_Driver/Src/stm32f7xx_ll_sdmmc.c **** uint32_t SDMMC_ReadFIFO(SDMMC_TypeDef *SDMMCx)
 266:Drivers/STM32F7xx_HAL_Driver/Src/stm32f7xx_ll_sdmmc.c **** {
 267:Drivers/STM32F7xx_HAL_Driver/Src/stm32f7xx_ll_sdmmc.c ****   /* Read data from Rx FIFO */ 
 268:Drivers/STM32F7xx_HAL_Driver/Src/stm32f7xx_ll_sdmmc.c ****   return (SDMMCx->FIFO);
 269:Drivers/STM32F7xx_HAL_Driver/Src/stm32f7xx_ll_sdmmc.c **** }
 270:Drivers/STM32F7xx_HAL_Driver/Src/stm32f7xx_ll_sdmmc.c **** 
 271:Drivers/STM32F7xx_HAL_Driver/Src/stm32f7xx_ll_sdmmc.c **** /**
 272:Drivers/STM32F7xx_HAL_Driver/Src/stm32f7xx_ll_sdmmc.c ****   * @brief  Write data (word) to Tx FIFO in blocking mode (polling) 
 273:Drivers/STM32F7xx_HAL_Driver/Src/stm32f7xx_ll_sdmmc.c ****   * @param  SDMMCx: Pointer to SDMMC register base
 274:Drivers/STM32F7xx_HAL_Driver/Src/stm32f7xx_ll_sdmmc.c ****   * @param  pWriteData: pointer to data to write
 275:Drivers/STM32F7xx_HAL_Driver/Src/stm32f7xx_ll_sdmmc.c ****   * @retval HAL status
 276:Drivers/STM32F7xx_HAL_Driver/Src/stm32f7xx_ll_sdmmc.c ****   */
 277:Drivers/STM32F7xx_HAL_Driver/Src/stm32f7xx_ll_sdmmc.c **** HAL_StatusTypeDef SDMMC_WriteFIFO(SDMMC_TypeDef *SDMMCx, uint32_t *pWriteData)
 278:Drivers/STM32F7xx_HAL_Driver/Src/stm32f7xx_ll_sdmmc.c **** { 
 279:Drivers/STM32F7xx_HAL_Driver/Src/stm32f7xx_ll_sdmmc.c ****   /* Write data to FIFO */ 
 280:Drivers/STM32F7xx_HAL_Driver/Src/stm32f7xx_ll_sdmmc.c ****   SDMMCx->FIFO = *pWriteData;
 281:Drivers/STM32F7xx_HAL_Driver/Src/stm32f7xx_ll_sdmmc.c **** 
 282:Drivers/STM32F7xx_HAL_Driver/Src/stm32f7xx_ll_sdmmc.c ****   return HAL_OK;
 283:Drivers/STM32F7xx_HAL_Driver/Src/stm32f7xx_ll_sdmmc.c **** }
 284:Drivers/STM32F7xx_HAL_Driver/Src/stm32f7xx_ll_sdmmc.c **** 
 285:Drivers/STM32F7xx_HAL_Driver/Src/stm32f7xx_ll_sdmmc.c **** /**
 286:Drivers/STM32F7xx_HAL_Driver/Src/stm32f7xx_ll_sdmmc.c ****   * @}
 287:Drivers/STM32F7xx_HAL_Driver/Src/stm32f7xx_ll_sdmmc.c ****   */
 288:Drivers/STM32F7xx_HAL_Driver/Src/stm32f7xx_ll_sdmmc.c **** 
 289:Drivers/STM32F7xx_HAL_Driver/Src/stm32f7xx_ll_sdmmc.c **** /** @defgroup HAL_SDMMC_LL_Group3 Peripheral Control functions 
 290:Drivers/STM32F7xx_HAL_Driver/Src/stm32f7xx_ll_sdmmc.c ****  *  @brief   management functions 
 291:Drivers/STM32F7xx_HAL_Driver/Src/stm32f7xx_ll_sdmmc.c ****  *
 292:Drivers/STM32F7xx_HAL_Driver/Src/stm32f7xx_ll_sdmmc.c **** @verbatim   
 293:Drivers/STM32F7xx_HAL_Driver/Src/stm32f7xx_ll_sdmmc.c ****  ===============================================================================
 294:Drivers/STM32F7xx_HAL_Driver/Src/stm32f7xx_ll_sdmmc.c ****                       ##### Peripheral Control functions #####
 295:Drivers/STM32F7xx_HAL_Driver/Src/stm32f7xx_ll_sdmmc.c ****  ===============================================================================  
 296:Drivers/STM32F7xx_HAL_Driver/Src/stm32f7xx_ll_sdmmc.c ****     [..]
 297:Drivers/STM32F7xx_HAL_Driver/Src/stm32f7xx_ll_sdmmc.c ****     This subsection provides a set of functions allowing to control the SDMMC data 
 298:Drivers/STM32F7xx_HAL_Driver/Src/stm32f7xx_ll_sdmmc.c ****     transfers.
 299:Drivers/STM32F7xx_HAL_Driver/Src/stm32f7xx_ll_sdmmc.c **** 
 300:Drivers/STM32F7xx_HAL_Driver/Src/stm32f7xx_ll_sdmmc.c **** @endverbatim
 301:Drivers/STM32F7xx_HAL_Driver/Src/stm32f7xx_ll_sdmmc.c ****   * @{
 302:Drivers/STM32F7xx_HAL_Driver/Src/stm32f7xx_ll_sdmmc.c ****   */
 303:Drivers/STM32F7xx_HAL_Driver/Src/stm32f7xx_ll_sdmmc.c **** 
 304:Drivers/STM32F7xx_HAL_Driver/Src/stm32f7xx_ll_sdmmc.c **** /**
 305:Drivers/STM32F7xx_HAL_Driver/Src/stm32f7xx_ll_sdmmc.c ****   * @brief  Set SDMMC Power state to ON. 
 306:Drivers/STM32F7xx_HAL_Driver/Src/stm32f7xx_ll_sdmmc.c ****   * @param  SDMMCx: Pointer to SDMMC register base
 307:Drivers/STM32F7xx_HAL_Driver/Src/stm32f7xx_ll_sdmmc.c ****   * @retval HAL status
 308:Drivers/STM32F7xx_HAL_Driver/Src/stm32f7xx_ll_sdmmc.c ****   */
 309:Drivers/STM32F7xx_HAL_Driver/Src/stm32f7xx_ll_sdmmc.c **** HAL_StatusTypeDef SDMMC_PowerState_ON(SDMMC_TypeDef *SDMMCx)
 310:Drivers/STM32F7xx_HAL_Driver/Src/stm32f7xx_ll_sdmmc.c **** {  
 311:Drivers/STM32F7xx_HAL_Driver/Src/stm32f7xx_ll_sdmmc.c ****   /* Set power state to ON */ 
 312:Drivers/STM32F7xx_HAL_Driver/Src/stm32f7xx_ll_sdmmc.c ****   SDMMCx->POWER = SDMMC_POWER_PWRCTRL;
 313:Drivers/STM32F7xx_HAL_Driver/Src/stm32f7xx_ll_sdmmc.c **** 
 314:Drivers/STM32F7xx_HAL_Driver/Src/stm32f7xx_ll_sdmmc.c ****   /* 1ms: required power up waiting time before starting the SD initialization
 315:Drivers/STM32F7xx_HAL_Driver/Src/stm32f7xx_ll_sdmmc.c ****   sequence */
 316:Drivers/STM32F7xx_HAL_Driver/Src/stm32f7xx_ll_sdmmc.c ****   HAL_Delay(2);
 317:Drivers/STM32F7xx_HAL_Driver/Src/stm32f7xx_ll_sdmmc.c ****   
ARM GAS  /tmp/ccxJPvV1.s 			page 7


 318:Drivers/STM32F7xx_HAL_Driver/Src/stm32f7xx_ll_sdmmc.c ****   return HAL_OK;
 319:Drivers/STM32F7xx_HAL_Driver/Src/stm32f7xx_ll_sdmmc.c **** }
 320:Drivers/STM32F7xx_HAL_Driver/Src/stm32f7xx_ll_sdmmc.c **** 
 321:Drivers/STM32F7xx_HAL_Driver/Src/stm32f7xx_ll_sdmmc.c **** /**
 322:Drivers/STM32F7xx_HAL_Driver/Src/stm32f7xx_ll_sdmmc.c ****   * @brief  Set SDMMC Power state to OFF. 
 323:Drivers/STM32F7xx_HAL_Driver/Src/stm32f7xx_ll_sdmmc.c ****   * @param  SDMMCx: Pointer to SDMMC register base
 324:Drivers/STM32F7xx_HAL_Driver/Src/stm32f7xx_ll_sdmmc.c ****   * @retval HAL status
 325:Drivers/STM32F7xx_HAL_Driver/Src/stm32f7xx_ll_sdmmc.c ****   */
 326:Drivers/STM32F7xx_HAL_Driver/Src/stm32f7xx_ll_sdmmc.c **** HAL_StatusTypeDef SDMMC_PowerState_OFF(SDMMC_TypeDef *SDMMCx)
 327:Drivers/STM32F7xx_HAL_Driver/Src/stm32f7xx_ll_sdmmc.c **** {
 328:Drivers/STM32F7xx_HAL_Driver/Src/stm32f7xx_ll_sdmmc.c ****   /* Set power state to OFF */
 329:Drivers/STM32F7xx_HAL_Driver/Src/stm32f7xx_ll_sdmmc.c ****   SDMMCx->POWER = (uint32_t)0x00000000;
 330:Drivers/STM32F7xx_HAL_Driver/Src/stm32f7xx_ll_sdmmc.c ****   
 331:Drivers/STM32F7xx_HAL_Driver/Src/stm32f7xx_ll_sdmmc.c ****   return HAL_OK;
 332:Drivers/STM32F7xx_HAL_Driver/Src/stm32f7xx_ll_sdmmc.c **** }
 333:Drivers/STM32F7xx_HAL_Driver/Src/stm32f7xx_ll_sdmmc.c **** 
 334:Drivers/STM32F7xx_HAL_Driver/Src/stm32f7xx_ll_sdmmc.c **** /**
 335:Drivers/STM32F7xx_HAL_Driver/Src/stm32f7xx_ll_sdmmc.c ****   * @brief  Get SDMMC Power state. 
 336:Drivers/STM32F7xx_HAL_Driver/Src/stm32f7xx_ll_sdmmc.c ****   * @param  SDMMCx: Pointer to SDMMC register base
 337:Drivers/STM32F7xx_HAL_Driver/Src/stm32f7xx_ll_sdmmc.c ****   * @retval Power status of the controller. The returned value can be one of the 
 338:Drivers/STM32F7xx_HAL_Driver/Src/stm32f7xx_ll_sdmmc.c ****   *         following values:
 339:Drivers/STM32F7xx_HAL_Driver/Src/stm32f7xx_ll_sdmmc.c ****   *            - 0x00: Power OFF
 340:Drivers/STM32F7xx_HAL_Driver/Src/stm32f7xx_ll_sdmmc.c ****   *            - 0x02: Power UP
 341:Drivers/STM32F7xx_HAL_Driver/Src/stm32f7xx_ll_sdmmc.c ****   *            - 0x03: Power ON 
 342:Drivers/STM32F7xx_HAL_Driver/Src/stm32f7xx_ll_sdmmc.c ****   */
 343:Drivers/STM32F7xx_HAL_Driver/Src/stm32f7xx_ll_sdmmc.c **** uint32_t SDMMC_GetPowerState(SDMMC_TypeDef *SDMMCx)  
 344:Drivers/STM32F7xx_HAL_Driver/Src/stm32f7xx_ll_sdmmc.c **** {
 345:Drivers/STM32F7xx_HAL_Driver/Src/stm32f7xx_ll_sdmmc.c ****   return (SDMMCx->POWER & SDMMC_POWER_PWRCTRL);
 346:Drivers/STM32F7xx_HAL_Driver/Src/stm32f7xx_ll_sdmmc.c **** }
 347:Drivers/STM32F7xx_HAL_Driver/Src/stm32f7xx_ll_sdmmc.c **** 
 348:Drivers/STM32F7xx_HAL_Driver/Src/stm32f7xx_ll_sdmmc.c **** /**
 349:Drivers/STM32F7xx_HAL_Driver/Src/stm32f7xx_ll_sdmmc.c ****   * @brief  Configure the SDMMC command path according to the specified parameters in
 350:Drivers/STM32F7xx_HAL_Driver/Src/stm32f7xx_ll_sdmmc.c ****   *         SDMMC_CmdInitTypeDef structure and send the command 
 351:Drivers/STM32F7xx_HAL_Driver/Src/stm32f7xx_ll_sdmmc.c ****   * @param  SDMMCx: Pointer to SDMMC register base
 352:Drivers/STM32F7xx_HAL_Driver/Src/stm32f7xx_ll_sdmmc.c ****   * @param  Command: pointer to a SDMMC_CmdInitTypeDef structure that contains 
 353:Drivers/STM32F7xx_HAL_Driver/Src/stm32f7xx_ll_sdmmc.c ****   *         the configuration information for the SDMMC command
 354:Drivers/STM32F7xx_HAL_Driver/Src/stm32f7xx_ll_sdmmc.c ****   * @retval HAL status
 355:Drivers/STM32F7xx_HAL_Driver/Src/stm32f7xx_ll_sdmmc.c ****   */
 356:Drivers/STM32F7xx_HAL_Driver/Src/stm32f7xx_ll_sdmmc.c **** HAL_StatusTypeDef SDMMC_SendCommand(SDMMC_TypeDef *SDMMCx, SDMMC_CmdInitTypeDef *Command)
 357:Drivers/STM32F7xx_HAL_Driver/Src/stm32f7xx_ll_sdmmc.c **** {
 358:Drivers/STM32F7xx_HAL_Driver/Src/stm32f7xx_ll_sdmmc.c ****   uint32_t tmpreg = 0;
 359:Drivers/STM32F7xx_HAL_Driver/Src/stm32f7xx_ll_sdmmc.c ****   
 360:Drivers/STM32F7xx_HAL_Driver/Src/stm32f7xx_ll_sdmmc.c ****   /* Check the parameters */
 361:Drivers/STM32F7xx_HAL_Driver/Src/stm32f7xx_ll_sdmmc.c ****   assert_param(IS_SDMMC_CMD_INDEX(Command->CmdIndex));
 362:Drivers/STM32F7xx_HAL_Driver/Src/stm32f7xx_ll_sdmmc.c ****   assert_param(IS_SDMMC_RESPONSE(Command->Response));
 363:Drivers/STM32F7xx_HAL_Driver/Src/stm32f7xx_ll_sdmmc.c ****   assert_param(IS_SDMMC_WAIT(Command->WaitForInterrupt));
 364:Drivers/STM32F7xx_HAL_Driver/Src/stm32f7xx_ll_sdmmc.c ****   assert_param(IS_SDMMC_CPSM(Command->CPSM));
 365:Drivers/STM32F7xx_HAL_Driver/Src/stm32f7xx_ll_sdmmc.c **** 
 366:Drivers/STM32F7xx_HAL_Driver/Src/stm32f7xx_ll_sdmmc.c ****   /* Set the SDMMC Argument value */
 367:Drivers/STM32F7xx_HAL_Driver/Src/stm32f7xx_ll_sdmmc.c ****   SDMMCx->ARG = Command->Argument;
 368:Drivers/STM32F7xx_HAL_Driver/Src/stm32f7xx_ll_sdmmc.c **** 
 369:Drivers/STM32F7xx_HAL_Driver/Src/stm32f7xx_ll_sdmmc.c ****   /* Set SDMMC command parameters */
 370:Drivers/STM32F7xx_HAL_Driver/Src/stm32f7xx_ll_sdmmc.c ****   tmpreg |= (uint32_t)(Command->CmdIndex         |\
 371:Drivers/STM32F7xx_HAL_Driver/Src/stm32f7xx_ll_sdmmc.c ****                        Command->Response         |\
 372:Drivers/STM32F7xx_HAL_Driver/Src/stm32f7xx_ll_sdmmc.c ****                        Command->WaitForInterrupt |\
 373:Drivers/STM32F7xx_HAL_Driver/Src/stm32f7xx_ll_sdmmc.c ****                        Command->CPSM);
 374:Drivers/STM32F7xx_HAL_Driver/Src/stm32f7xx_ll_sdmmc.c ****   
ARM GAS  /tmp/ccxJPvV1.s 			page 8


 375:Drivers/STM32F7xx_HAL_Driver/Src/stm32f7xx_ll_sdmmc.c ****   /* Write to SDMMC CMD register */
 376:Drivers/STM32F7xx_HAL_Driver/Src/stm32f7xx_ll_sdmmc.c ****   MODIFY_REG(SDMMCx->CMD, CMD_CLEAR_MASK, tmpreg); 
 377:Drivers/STM32F7xx_HAL_Driver/Src/stm32f7xx_ll_sdmmc.c ****   
 378:Drivers/STM32F7xx_HAL_Driver/Src/stm32f7xx_ll_sdmmc.c ****   return HAL_OK;  
 379:Drivers/STM32F7xx_HAL_Driver/Src/stm32f7xx_ll_sdmmc.c **** }
 380:Drivers/STM32F7xx_HAL_Driver/Src/stm32f7xx_ll_sdmmc.c **** 
 381:Drivers/STM32F7xx_HAL_Driver/Src/stm32f7xx_ll_sdmmc.c **** /**
 382:Drivers/STM32F7xx_HAL_Driver/Src/stm32f7xx_ll_sdmmc.c ****   * @brief  Return the command index of last command for which response received
 383:Drivers/STM32F7xx_HAL_Driver/Src/stm32f7xx_ll_sdmmc.c ****   * @param  SDMMCx: Pointer to SDMMC register base
 384:Drivers/STM32F7xx_HAL_Driver/Src/stm32f7xx_ll_sdmmc.c ****   * @retval Command index of the last command response received
 385:Drivers/STM32F7xx_HAL_Driver/Src/stm32f7xx_ll_sdmmc.c ****   */
 386:Drivers/STM32F7xx_HAL_Driver/Src/stm32f7xx_ll_sdmmc.c **** uint8_t SDMMC_GetCommandResponse(SDMMC_TypeDef *SDMMCx)
 387:Drivers/STM32F7xx_HAL_Driver/Src/stm32f7xx_ll_sdmmc.c **** {
 388:Drivers/STM32F7xx_HAL_Driver/Src/stm32f7xx_ll_sdmmc.c ****   return (uint8_t)(SDMMCx->RESPCMD);
 389:Drivers/STM32F7xx_HAL_Driver/Src/stm32f7xx_ll_sdmmc.c **** }
 390:Drivers/STM32F7xx_HAL_Driver/Src/stm32f7xx_ll_sdmmc.c **** 
 391:Drivers/STM32F7xx_HAL_Driver/Src/stm32f7xx_ll_sdmmc.c **** 
 392:Drivers/STM32F7xx_HAL_Driver/Src/stm32f7xx_ll_sdmmc.c **** /**
 393:Drivers/STM32F7xx_HAL_Driver/Src/stm32f7xx_ll_sdmmc.c ****   * @brief  Return the response received from the card for the last command
 394:Drivers/STM32F7xx_HAL_Driver/Src/stm32f7xx_ll_sdmmc.c ****   * @param  SDMMCx: Pointer to SDMMC register base    
 395:Drivers/STM32F7xx_HAL_Driver/Src/stm32f7xx_ll_sdmmc.c ****   * @param  Response: Specifies the SDMMC response register. 
 396:Drivers/STM32F7xx_HAL_Driver/Src/stm32f7xx_ll_sdmmc.c ****   *          This parameter can be one of the following values:
 397:Drivers/STM32F7xx_HAL_Driver/Src/stm32f7xx_ll_sdmmc.c ****   *            @arg SDMMC_RESP1: Response Register 1
 398:Drivers/STM32F7xx_HAL_Driver/Src/stm32f7xx_ll_sdmmc.c ****   *            @arg SDMMC_RESP2: Response Register 2
 399:Drivers/STM32F7xx_HAL_Driver/Src/stm32f7xx_ll_sdmmc.c ****   *            @arg SDMMC_RESP3: Response Register 3
 400:Drivers/STM32F7xx_HAL_Driver/Src/stm32f7xx_ll_sdmmc.c ****   *            @arg SDMMC_RESP4: Response Register 4  
 401:Drivers/STM32F7xx_HAL_Driver/Src/stm32f7xx_ll_sdmmc.c ****   * @retval The Corresponding response register value
 402:Drivers/STM32F7xx_HAL_Driver/Src/stm32f7xx_ll_sdmmc.c ****   */
 403:Drivers/STM32F7xx_HAL_Driver/Src/stm32f7xx_ll_sdmmc.c **** uint32_t SDMMC_GetResponse(SDMMC_TypeDef *SDMMCx, uint32_t Response)
 404:Drivers/STM32F7xx_HAL_Driver/Src/stm32f7xx_ll_sdmmc.c **** {
 405:Drivers/STM32F7xx_HAL_Driver/Src/stm32f7xx_ll_sdmmc.c ****   uint32_t tmp;
 406:Drivers/STM32F7xx_HAL_Driver/Src/stm32f7xx_ll_sdmmc.c **** 
 407:Drivers/STM32F7xx_HAL_Driver/Src/stm32f7xx_ll_sdmmc.c ****   /* Check the parameters */
 408:Drivers/STM32F7xx_HAL_Driver/Src/stm32f7xx_ll_sdmmc.c ****   assert_param(IS_SDMMC_RESP(Response));
 409:Drivers/STM32F7xx_HAL_Driver/Src/stm32f7xx_ll_sdmmc.c ****   
 410:Drivers/STM32F7xx_HAL_Driver/Src/stm32f7xx_ll_sdmmc.c ****   /* Get the response */
 411:Drivers/STM32F7xx_HAL_Driver/Src/stm32f7xx_ll_sdmmc.c ****   tmp = (uint32_t)(&(SDMMCx->RESP1)) + Response;
 412:Drivers/STM32F7xx_HAL_Driver/Src/stm32f7xx_ll_sdmmc.c ****   
 413:Drivers/STM32F7xx_HAL_Driver/Src/stm32f7xx_ll_sdmmc.c ****   return (*(__IO uint32_t *) tmp);
 414:Drivers/STM32F7xx_HAL_Driver/Src/stm32f7xx_ll_sdmmc.c **** }  
 415:Drivers/STM32F7xx_HAL_Driver/Src/stm32f7xx_ll_sdmmc.c **** 
 416:Drivers/STM32F7xx_HAL_Driver/Src/stm32f7xx_ll_sdmmc.c **** /**
 417:Drivers/STM32F7xx_HAL_Driver/Src/stm32f7xx_ll_sdmmc.c ****   * @brief  Configure the SDMMC data path according to the specified 
 418:Drivers/STM32F7xx_HAL_Driver/Src/stm32f7xx_ll_sdmmc.c ****   *         parameters in the SDMMC_DataInitTypeDef.
 419:Drivers/STM32F7xx_HAL_Driver/Src/stm32f7xx_ll_sdmmc.c ****   * @param  SDMMCx: Pointer to SDMMC register base  
 420:Drivers/STM32F7xx_HAL_Driver/Src/stm32f7xx_ll_sdmmc.c ****   * @param  Data : pointer to a SDMMC_DataInitTypeDef structure 
 421:Drivers/STM32F7xx_HAL_Driver/Src/stm32f7xx_ll_sdmmc.c ****   *         that contains the configuration information for the SDMMC data.
 422:Drivers/STM32F7xx_HAL_Driver/Src/stm32f7xx_ll_sdmmc.c ****   * @retval HAL status
 423:Drivers/STM32F7xx_HAL_Driver/Src/stm32f7xx_ll_sdmmc.c ****   */
 424:Drivers/STM32F7xx_HAL_Driver/Src/stm32f7xx_ll_sdmmc.c **** HAL_StatusTypeDef SDMMC_ConfigData(SDMMC_TypeDef *SDMMCx, SDMMC_DataInitTypeDef* Data)
 425:Drivers/STM32F7xx_HAL_Driver/Src/stm32f7xx_ll_sdmmc.c **** {
 426:Drivers/STM32F7xx_HAL_Driver/Src/stm32f7xx_ll_sdmmc.c ****   uint32_t tmpreg = 0;
 427:Drivers/STM32F7xx_HAL_Driver/Src/stm32f7xx_ll_sdmmc.c ****   
 428:Drivers/STM32F7xx_HAL_Driver/Src/stm32f7xx_ll_sdmmc.c ****   /* Check the parameters */
 429:Drivers/STM32F7xx_HAL_Driver/Src/stm32f7xx_ll_sdmmc.c ****   assert_param(IS_SDMMC_DATA_LENGTH(Data->DataLength));
 430:Drivers/STM32F7xx_HAL_Driver/Src/stm32f7xx_ll_sdmmc.c ****   assert_param(IS_SDMMC_BLOCK_SIZE(Data->DataBlockSize));
 431:Drivers/STM32F7xx_HAL_Driver/Src/stm32f7xx_ll_sdmmc.c ****   assert_param(IS_SDMMC_TRANSFER_DIR(Data->TransferDir));
ARM GAS  /tmp/ccxJPvV1.s 			page 9


 432:Drivers/STM32F7xx_HAL_Driver/Src/stm32f7xx_ll_sdmmc.c ****   assert_param(IS_SDMMC_TRANSFER_MODE(Data->TransferMode));
 433:Drivers/STM32F7xx_HAL_Driver/Src/stm32f7xx_ll_sdmmc.c ****   assert_param(IS_SDMMC_DPSM(Data->DPSM));
 434:Drivers/STM32F7xx_HAL_Driver/Src/stm32f7xx_ll_sdmmc.c **** 
 435:Drivers/STM32F7xx_HAL_Driver/Src/stm32f7xx_ll_sdmmc.c ****   /* Set the SDMMC Data TimeOut value */
 436:Drivers/STM32F7xx_HAL_Driver/Src/stm32f7xx_ll_sdmmc.c ****   SDMMCx->DTIMER = Data->DataTimeOut;
 437:Drivers/STM32F7xx_HAL_Driver/Src/stm32f7xx_ll_sdmmc.c **** 
 438:Drivers/STM32F7xx_HAL_Driver/Src/stm32f7xx_ll_sdmmc.c ****   /* Set the SDMMC DataLength value */
 439:Drivers/STM32F7xx_HAL_Driver/Src/stm32f7xx_ll_sdmmc.c ****   SDMMCx->DLEN = Data->DataLength;
 440:Drivers/STM32F7xx_HAL_Driver/Src/stm32f7xx_ll_sdmmc.c **** 
 441:Drivers/STM32F7xx_HAL_Driver/Src/stm32f7xx_ll_sdmmc.c ****   /* Set the SDMMC data configuration parameters */
 442:Drivers/STM32F7xx_HAL_Driver/Src/stm32f7xx_ll_sdmmc.c ****   tmpreg |= (uint32_t)(Data->DataBlockSize |\
 443:Drivers/STM32F7xx_HAL_Driver/Src/stm32f7xx_ll_sdmmc.c ****                        Data->TransferDir   |\
 444:Drivers/STM32F7xx_HAL_Driver/Src/stm32f7xx_ll_sdmmc.c ****                        Data->TransferMode  |\
 445:Drivers/STM32F7xx_HAL_Driver/Src/stm32f7xx_ll_sdmmc.c ****                        Data->DPSM);
 446:Drivers/STM32F7xx_HAL_Driver/Src/stm32f7xx_ll_sdmmc.c ****   
 447:Drivers/STM32F7xx_HAL_Driver/Src/stm32f7xx_ll_sdmmc.c ****   /* Write to SDMMC DCTRL */
 448:Drivers/STM32F7xx_HAL_Driver/Src/stm32f7xx_ll_sdmmc.c ****   MODIFY_REG(SDMMCx->DCTRL, DCTRL_CLEAR_MASK, tmpreg);
 449:Drivers/STM32F7xx_HAL_Driver/Src/stm32f7xx_ll_sdmmc.c **** 
 450:Drivers/STM32F7xx_HAL_Driver/Src/stm32f7xx_ll_sdmmc.c ****   return HAL_OK;
 451:Drivers/STM32F7xx_HAL_Driver/Src/stm32f7xx_ll_sdmmc.c **** 
 452:Drivers/STM32F7xx_HAL_Driver/Src/stm32f7xx_ll_sdmmc.c **** }
 453:Drivers/STM32F7xx_HAL_Driver/Src/stm32f7xx_ll_sdmmc.c **** 
 454:Drivers/STM32F7xx_HAL_Driver/Src/stm32f7xx_ll_sdmmc.c **** /**
 455:Drivers/STM32F7xx_HAL_Driver/Src/stm32f7xx_ll_sdmmc.c ****   * @brief  Returns number of remaining data bytes to be transferred.
 456:Drivers/STM32F7xx_HAL_Driver/Src/stm32f7xx_ll_sdmmc.c ****   * @param  SDMMCx: Pointer to SDMMC register base
 457:Drivers/STM32F7xx_HAL_Driver/Src/stm32f7xx_ll_sdmmc.c ****   * @retval Number of remaining data bytes to be transferred
 458:Drivers/STM32F7xx_HAL_Driver/Src/stm32f7xx_ll_sdmmc.c ****   */
 459:Drivers/STM32F7xx_HAL_Driver/Src/stm32f7xx_ll_sdmmc.c **** uint32_t SDMMC_GetDataCounter(SDMMC_TypeDef *SDMMCx)
 460:Drivers/STM32F7xx_HAL_Driver/Src/stm32f7xx_ll_sdmmc.c **** {
 461:Drivers/STM32F7xx_HAL_Driver/Src/stm32f7xx_ll_sdmmc.c ****   return (SDMMCx->DCOUNT);
 462:Drivers/STM32F7xx_HAL_Driver/Src/stm32f7xx_ll_sdmmc.c **** }
 463:Drivers/STM32F7xx_HAL_Driver/Src/stm32f7xx_ll_sdmmc.c **** 
 464:Drivers/STM32F7xx_HAL_Driver/Src/stm32f7xx_ll_sdmmc.c **** /**
 465:Drivers/STM32F7xx_HAL_Driver/Src/stm32f7xx_ll_sdmmc.c ****   * @brief  Get the FIFO data
 466:Drivers/STM32F7xx_HAL_Driver/Src/stm32f7xx_ll_sdmmc.c ****   * @param  SDMMCx: Pointer to SDMMC register base 
 467:Drivers/STM32F7xx_HAL_Driver/Src/stm32f7xx_ll_sdmmc.c ****   * @retval Data received
 468:Drivers/STM32F7xx_HAL_Driver/Src/stm32f7xx_ll_sdmmc.c ****   */
 469:Drivers/STM32F7xx_HAL_Driver/Src/stm32f7xx_ll_sdmmc.c **** uint32_t SDMMC_GetFIFOCount(SDMMC_TypeDef *SDMMCx)
 470:Drivers/STM32F7xx_HAL_Driver/Src/stm32f7xx_ll_sdmmc.c **** {
 471:Drivers/STM32F7xx_HAL_Driver/Src/stm32f7xx_ll_sdmmc.c ****   return (SDMMCx->FIFO);
 472:Drivers/STM32F7xx_HAL_Driver/Src/stm32f7xx_ll_sdmmc.c **** }
 473:Drivers/STM32F7xx_HAL_Driver/Src/stm32f7xx_ll_sdmmc.c **** 
 474:Drivers/STM32F7xx_HAL_Driver/Src/stm32f7xx_ll_sdmmc.c **** /**
 475:Drivers/STM32F7xx_HAL_Driver/Src/stm32f7xx_ll_sdmmc.c ****   * @brief  Sets one of the two options of inserting read wait interval.
 476:Drivers/STM32F7xx_HAL_Driver/Src/stm32f7xx_ll_sdmmc.c ****   * @param  SDMMCx: Pointer to SDMMC register base   
 477:Drivers/STM32F7xx_HAL_Driver/Src/stm32f7xx_ll_sdmmc.c ****   * @param  SDMMC_ReadWaitMode: SDMMC Read Wait operation mode.
 478:Drivers/STM32F7xx_HAL_Driver/Src/stm32f7xx_ll_sdmmc.c ****   *          This parameter can be:
 479:Drivers/STM32F7xx_HAL_Driver/Src/stm32f7xx_ll_sdmmc.c ****   *            @arg SDMMC_READ_WAIT_MODE_CLK: Read Wait control by stopping SDMMCCLK
 480:Drivers/STM32F7xx_HAL_Driver/Src/stm32f7xx_ll_sdmmc.c ****   *            @arg SDMMC_READ_WAIT_MODE_DATA2: Read Wait control using SDMMC_DATA2
 481:Drivers/STM32F7xx_HAL_Driver/Src/stm32f7xx_ll_sdmmc.c ****   * @retval None
 482:Drivers/STM32F7xx_HAL_Driver/Src/stm32f7xx_ll_sdmmc.c ****   */
 483:Drivers/STM32F7xx_HAL_Driver/Src/stm32f7xx_ll_sdmmc.c **** HAL_StatusTypeDef SDMMC_SetSDMMCReadWaitMode(SDMMC_TypeDef *SDMMCx, uint32_t SDMMC_ReadWaitMode)
 484:Drivers/STM32F7xx_HAL_Driver/Src/stm32f7xx_ll_sdmmc.c **** {
 485:Drivers/STM32F7xx_HAL_Driver/Src/stm32f7xx_ll_sdmmc.c ****   /* Check the parameters */
 486:Drivers/STM32F7xx_HAL_Driver/Src/stm32f7xx_ll_sdmmc.c ****   assert_param(IS_SDMMC_READWAIT_MODE(SDMMC_ReadWaitMode));
 487:Drivers/STM32F7xx_HAL_Driver/Src/stm32f7xx_ll_sdmmc.c **** 
 488:Drivers/STM32F7xx_HAL_Driver/Src/stm32f7xx_ll_sdmmc.c ****   /* Set SDMMC read wait mode */
ARM GAS  /tmp/ccxJPvV1.s 			page 10


 489:Drivers/STM32F7xx_HAL_Driver/Src/stm32f7xx_ll_sdmmc.c ****   MODIFY_REG(SDMMCx->DCTRL, SDMMC_DCTRL_RWMOD, SDMMC_ReadWaitMode);
 490:Drivers/STM32F7xx_HAL_Driver/Src/stm32f7xx_ll_sdmmc.c ****   
 491:Drivers/STM32F7xx_HAL_Driver/Src/stm32f7xx_ll_sdmmc.c ****   return HAL_OK;  
 492:Drivers/STM32F7xx_HAL_Driver/Src/stm32f7xx_ll_sdmmc.c **** }
 493:Drivers/STM32F7xx_HAL_Driver/Src/stm32f7xx_ll_sdmmc.c **** 
 494:Drivers/STM32F7xx_HAL_Driver/Src/stm32f7xx_ll_sdmmc.c **** /**
 495:Drivers/STM32F7xx_HAL_Driver/Src/stm32f7xx_ll_sdmmc.c ****   * @}
 496:Drivers/STM32F7xx_HAL_Driver/Src/stm32f7xx_ll_sdmmc.c ****   */
 497:Drivers/STM32F7xx_HAL_Driver/Src/stm32f7xx_ll_sdmmc.c **** 
 498:Drivers/STM32F7xx_HAL_Driver/Src/stm32f7xx_ll_sdmmc.c **** 
 499:Drivers/STM32F7xx_HAL_Driver/Src/stm32f7xx_ll_sdmmc.c **** /** @defgroup HAL_SDMMC_LL_Group4 Command management functions 
 500:Drivers/STM32F7xx_HAL_Driver/Src/stm32f7xx_ll_sdmmc.c ****  *  @brief   Data transfers functions 
 501:Drivers/STM32F7xx_HAL_Driver/Src/stm32f7xx_ll_sdmmc.c ****  *
 502:Drivers/STM32F7xx_HAL_Driver/Src/stm32f7xx_ll_sdmmc.c **** @verbatim   
 503:Drivers/STM32F7xx_HAL_Driver/Src/stm32f7xx_ll_sdmmc.c ****  ===============================================================================
 504:Drivers/STM32F7xx_HAL_Driver/Src/stm32f7xx_ll_sdmmc.c ****                    ##### Commands management functions #####
 505:Drivers/STM32F7xx_HAL_Driver/Src/stm32f7xx_ll_sdmmc.c ****  ===============================================================================  
 506:Drivers/STM32F7xx_HAL_Driver/Src/stm32f7xx_ll_sdmmc.c ****     [..]
 507:Drivers/STM32F7xx_HAL_Driver/Src/stm32f7xx_ll_sdmmc.c ****     This subsection provides a set of functions allowing to manage the needed commands.
 508:Drivers/STM32F7xx_HAL_Driver/Src/stm32f7xx_ll_sdmmc.c **** 
 509:Drivers/STM32F7xx_HAL_Driver/Src/stm32f7xx_ll_sdmmc.c **** @endverbatim
 510:Drivers/STM32F7xx_HAL_Driver/Src/stm32f7xx_ll_sdmmc.c ****   * @{
 511:Drivers/STM32F7xx_HAL_Driver/Src/stm32f7xx_ll_sdmmc.c ****   */
 512:Drivers/STM32F7xx_HAL_Driver/Src/stm32f7xx_ll_sdmmc.c **** 
 513:Drivers/STM32F7xx_HAL_Driver/Src/stm32f7xx_ll_sdmmc.c **** /**
 514:Drivers/STM32F7xx_HAL_Driver/Src/stm32f7xx_ll_sdmmc.c ****   * @brief  Send the Data Block Lenght command and check the response
 515:Drivers/STM32F7xx_HAL_Driver/Src/stm32f7xx_ll_sdmmc.c ****   * @param  SDMMCx: Pointer to SDMMC register base 
 516:Drivers/STM32F7xx_HAL_Driver/Src/stm32f7xx_ll_sdmmc.c ****   * @retval HAL status
 517:Drivers/STM32F7xx_HAL_Driver/Src/stm32f7xx_ll_sdmmc.c ****   */
 518:Drivers/STM32F7xx_HAL_Driver/Src/stm32f7xx_ll_sdmmc.c **** uint32_t SDMMC_CmdBlockLength(SDMMC_TypeDef *SDMMCx, uint32_t BlockSize)
 519:Drivers/STM32F7xx_HAL_Driver/Src/stm32f7xx_ll_sdmmc.c **** {
 520:Drivers/STM32F7xx_HAL_Driver/Src/stm32f7xx_ll_sdmmc.c ****   SDMMC_CmdInitTypeDef  sdmmc_cmdinit;
 521:Drivers/STM32F7xx_HAL_Driver/Src/stm32f7xx_ll_sdmmc.c ****   uint32_t errorstate;
 522:Drivers/STM32F7xx_HAL_Driver/Src/stm32f7xx_ll_sdmmc.c ****   
 523:Drivers/STM32F7xx_HAL_Driver/Src/stm32f7xx_ll_sdmmc.c ****   /* Set Block Size for Card */ 
 524:Drivers/STM32F7xx_HAL_Driver/Src/stm32f7xx_ll_sdmmc.c ****   sdmmc_cmdinit.Argument         = (uint32_t)BlockSize;
 525:Drivers/STM32F7xx_HAL_Driver/Src/stm32f7xx_ll_sdmmc.c ****   sdmmc_cmdinit.CmdIndex         = SDMMC_CMD_SET_BLOCKLEN;
 526:Drivers/STM32F7xx_HAL_Driver/Src/stm32f7xx_ll_sdmmc.c ****   sdmmc_cmdinit.Response         = SDMMC_RESPONSE_SHORT;
 527:Drivers/STM32F7xx_HAL_Driver/Src/stm32f7xx_ll_sdmmc.c ****   sdmmc_cmdinit.WaitForInterrupt = SDMMC_WAIT_NO;
 528:Drivers/STM32F7xx_HAL_Driver/Src/stm32f7xx_ll_sdmmc.c ****   sdmmc_cmdinit.CPSM             = SDMMC_CPSM_ENABLE;
 529:Drivers/STM32F7xx_HAL_Driver/Src/stm32f7xx_ll_sdmmc.c ****   (void)SDMMC_SendCommand(SDMMCx, &sdmmc_cmdinit);
 530:Drivers/STM32F7xx_HAL_Driver/Src/stm32f7xx_ll_sdmmc.c ****   
 531:Drivers/STM32F7xx_HAL_Driver/Src/stm32f7xx_ll_sdmmc.c ****   /* Check for error conditions */
 532:Drivers/STM32F7xx_HAL_Driver/Src/stm32f7xx_ll_sdmmc.c ****   errorstate = SDMMC_GetCmdResp1(SDMMCx, SDMMC_CMD_SET_BLOCKLEN, SDMMC_CMDTIMEOUT);
 533:Drivers/STM32F7xx_HAL_Driver/Src/stm32f7xx_ll_sdmmc.c **** 
 534:Drivers/STM32F7xx_HAL_Driver/Src/stm32f7xx_ll_sdmmc.c ****   return errorstate;
 535:Drivers/STM32F7xx_HAL_Driver/Src/stm32f7xx_ll_sdmmc.c **** }
 536:Drivers/STM32F7xx_HAL_Driver/Src/stm32f7xx_ll_sdmmc.c **** 
 537:Drivers/STM32F7xx_HAL_Driver/Src/stm32f7xx_ll_sdmmc.c **** /**
 538:Drivers/STM32F7xx_HAL_Driver/Src/stm32f7xx_ll_sdmmc.c ****   * @brief  Send the Read Single Block command and check the response
 539:Drivers/STM32F7xx_HAL_Driver/Src/stm32f7xx_ll_sdmmc.c ****   * @param  SDMMCx: Pointer to SDMMC register base 
 540:Drivers/STM32F7xx_HAL_Driver/Src/stm32f7xx_ll_sdmmc.c ****   * @retval HAL status
 541:Drivers/STM32F7xx_HAL_Driver/Src/stm32f7xx_ll_sdmmc.c ****   */
 542:Drivers/STM32F7xx_HAL_Driver/Src/stm32f7xx_ll_sdmmc.c **** uint32_t SDMMC_CmdReadSingleBlock(SDMMC_TypeDef *SDMMCx, uint32_t ReadAdd)
 543:Drivers/STM32F7xx_HAL_Driver/Src/stm32f7xx_ll_sdmmc.c **** {
 544:Drivers/STM32F7xx_HAL_Driver/Src/stm32f7xx_ll_sdmmc.c ****   SDMMC_CmdInitTypeDef  sdmmc_cmdinit;
 545:Drivers/STM32F7xx_HAL_Driver/Src/stm32f7xx_ll_sdmmc.c ****   uint32_t errorstate;
ARM GAS  /tmp/ccxJPvV1.s 			page 11


 546:Drivers/STM32F7xx_HAL_Driver/Src/stm32f7xx_ll_sdmmc.c ****   
 547:Drivers/STM32F7xx_HAL_Driver/Src/stm32f7xx_ll_sdmmc.c ****   /* Set Block Size for Card */ 
 548:Drivers/STM32F7xx_HAL_Driver/Src/stm32f7xx_ll_sdmmc.c ****   sdmmc_cmdinit.Argument         = (uint32_t)ReadAdd;
 549:Drivers/STM32F7xx_HAL_Driver/Src/stm32f7xx_ll_sdmmc.c ****   sdmmc_cmdinit.CmdIndex         = SDMMC_CMD_READ_SINGLE_BLOCK;
 550:Drivers/STM32F7xx_HAL_Driver/Src/stm32f7xx_ll_sdmmc.c ****   sdmmc_cmdinit.Response         = SDMMC_RESPONSE_SHORT;
 551:Drivers/STM32F7xx_HAL_Driver/Src/stm32f7xx_ll_sdmmc.c ****   sdmmc_cmdinit.WaitForInterrupt = SDMMC_WAIT_NO;
 552:Drivers/STM32F7xx_HAL_Driver/Src/stm32f7xx_ll_sdmmc.c ****   sdmmc_cmdinit.CPSM             = SDMMC_CPSM_ENABLE;
 553:Drivers/STM32F7xx_HAL_Driver/Src/stm32f7xx_ll_sdmmc.c ****   (void)SDMMC_SendCommand(SDMMCx, &sdmmc_cmdinit);
 554:Drivers/STM32F7xx_HAL_Driver/Src/stm32f7xx_ll_sdmmc.c ****   
 555:Drivers/STM32F7xx_HAL_Driver/Src/stm32f7xx_ll_sdmmc.c ****   /* Check for error conditions */
 556:Drivers/STM32F7xx_HAL_Driver/Src/stm32f7xx_ll_sdmmc.c ****   errorstate = SDMMC_GetCmdResp1(SDMMCx, SDMMC_CMD_READ_SINGLE_BLOCK, SDMMC_CMDTIMEOUT);
 557:Drivers/STM32F7xx_HAL_Driver/Src/stm32f7xx_ll_sdmmc.c **** 
 558:Drivers/STM32F7xx_HAL_Driver/Src/stm32f7xx_ll_sdmmc.c ****   return errorstate;
 559:Drivers/STM32F7xx_HAL_Driver/Src/stm32f7xx_ll_sdmmc.c **** }
 560:Drivers/STM32F7xx_HAL_Driver/Src/stm32f7xx_ll_sdmmc.c **** 
 561:Drivers/STM32F7xx_HAL_Driver/Src/stm32f7xx_ll_sdmmc.c **** /**
 562:Drivers/STM32F7xx_HAL_Driver/Src/stm32f7xx_ll_sdmmc.c ****   * @brief  Send the Read Multi Block command and check the response
 563:Drivers/STM32F7xx_HAL_Driver/Src/stm32f7xx_ll_sdmmc.c ****   * @param  SDMMCx: Pointer to SDMMC register base 
 564:Drivers/STM32F7xx_HAL_Driver/Src/stm32f7xx_ll_sdmmc.c ****   * @retval HAL status
 565:Drivers/STM32F7xx_HAL_Driver/Src/stm32f7xx_ll_sdmmc.c ****   */
 566:Drivers/STM32F7xx_HAL_Driver/Src/stm32f7xx_ll_sdmmc.c **** uint32_t SDMMC_CmdReadMultiBlock(SDMMC_TypeDef *SDMMCx, uint32_t ReadAdd)
 567:Drivers/STM32F7xx_HAL_Driver/Src/stm32f7xx_ll_sdmmc.c **** {
 568:Drivers/STM32F7xx_HAL_Driver/Src/stm32f7xx_ll_sdmmc.c ****   SDMMC_CmdInitTypeDef  sdmmc_cmdinit;
 569:Drivers/STM32F7xx_HAL_Driver/Src/stm32f7xx_ll_sdmmc.c ****   uint32_t errorstate;
 570:Drivers/STM32F7xx_HAL_Driver/Src/stm32f7xx_ll_sdmmc.c ****   
 571:Drivers/STM32F7xx_HAL_Driver/Src/stm32f7xx_ll_sdmmc.c ****   /* Set Block Size for Card */ 
 572:Drivers/STM32F7xx_HAL_Driver/Src/stm32f7xx_ll_sdmmc.c ****   sdmmc_cmdinit.Argument         = (uint32_t)ReadAdd;
 573:Drivers/STM32F7xx_HAL_Driver/Src/stm32f7xx_ll_sdmmc.c ****   sdmmc_cmdinit.CmdIndex         = SDMMC_CMD_READ_MULT_BLOCK;
 574:Drivers/STM32F7xx_HAL_Driver/Src/stm32f7xx_ll_sdmmc.c ****   sdmmc_cmdinit.Response         = SDMMC_RESPONSE_SHORT;
 575:Drivers/STM32F7xx_HAL_Driver/Src/stm32f7xx_ll_sdmmc.c ****   sdmmc_cmdinit.WaitForInterrupt = SDMMC_WAIT_NO;
 576:Drivers/STM32F7xx_HAL_Driver/Src/stm32f7xx_ll_sdmmc.c ****   sdmmc_cmdinit.CPSM             = SDMMC_CPSM_ENABLE;
 577:Drivers/STM32F7xx_HAL_Driver/Src/stm32f7xx_ll_sdmmc.c ****   (void)SDMMC_SendCommand(SDMMCx, &sdmmc_cmdinit);
 578:Drivers/STM32F7xx_HAL_Driver/Src/stm32f7xx_ll_sdmmc.c ****   
 579:Drivers/STM32F7xx_HAL_Driver/Src/stm32f7xx_ll_sdmmc.c ****   /* Check for error conditions */
 580:Drivers/STM32F7xx_HAL_Driver/Src/stm32f7xx_ll_sdmmc.c ****   errorstate = SDMMC_GetCmdResp1(SDMMCx, SDMMC_CMD_READ_MULT_BLOCK, SDMMC_CMDTIMEOUT);
 581:Drivers/STM32F7xx_HAL_Driver/Src/stm32f7xx_ll_sdmmc.c **** 
 582:Drivers/STM32F7xx_HAL_Driver/Src/stm32f7xx_ll_sdmmc.c ****   return errorstate;
 583:Drivers/STM32F7xx_HAL_Driver/Src/stm32f7xx_ll_sdmmc.c **** }
 584:Drivers/STM32F7xx_HAL_Driver/Src/stm32f7xx_ll_sdmmc.c **** 
 585:Drivers/STM32F7xx_HAL_Driver/Src/stm32f7xx_ll_sdmmc.c **** /**
 586:Drivers/STM32F7xx_HAL_Driver/Src/stm32f7xx_ll_sdmmc.c ****   * @brief  Send the Write Single Block command and check the response
 587:Drivers/STM32F7xx_HAL_Driver/Src/stm32f7xx_ll_sdmmc.c ****   * @param  SDMMCx: Pointer to SDMMC register base 
 588:Drivers/STM32F7xx_HAL_Driver/Src/stm32f7xx_ll_sdmmc.c ****   * @retval HAL status
 589:Drivers/STM32F7xx_HAL_Driver/Src/stm32f7xx_ll_sdmmc.c ****   */
 590:Drivers/STM32F7xx_HAL_Driver/Src/stm32f7xx_ll_sdmmc.c **** uint32_t SDMMC_CmdWriteSingleBlock(SDMMC_TypeDef *SDMMCx, uint32_t WriteAdd)
 591:Drivers/STM32F7xx_HAL_Driver/Src/stm32f7xx_ll_sdmmc.c **** {
 592:Drivers/STM32F7xx_HAL_Driver/Src/stm32f7xx_ll_sdmmc.c ****   SDMMC_CmdInitTypeDef  sdmmc_cmdinit;
 593:Drivers/STM32F7xx_HAL_Driver/Src/stm32f7xx_ll_sdmmc.c ****   uint32_t errorstate;
 594:Drivers/STM32F7xx_HAL_Driver/Src/stm32f7xx_ll_sdmmc.c ****   
 595:Drivers/STM32F7xx_HAL_Driver/Src/stm32f7xx_ll_sdmmc.c ****   /* Set Block Size for Card */ 
 596:Drivers/STM32F7xx_HAL_Driver/Src/stm32f7xx_ll_sdmmc.c ****   sdmmc_cmdinit.Argument         = (uint32_t)WriteAdd;
 597:Drivers/STM32F7xx_HAL_Driver/Src/stm32f7xx_ll_sdmmc.c ****   sdmmc_cmdinit.CmdIndex         = SDMMC_CMD_WRITE_SINGLE_BLOCK;
 598:Drivers/STM32F7xx_HAL_Driver/Src/stm32f7xx_ll_sdmmc.c ****   sdmmc_cmdinit.Response         = SDMMC_RESPONSE_SHORT;
 599:Drivers/STM32F7xx_HAL_Driver/Src/stm32f7xx_ll_sdmmc.c ****   sdmmc_cmdinit.WaitForInterrupt = SDMMC_WAIT_NO;
 600:Drivers/STM32F7xx_HAL_Driver/Src/stm32f7xx_ll_sdmmc.c ****   sdmmc_cmdinit.CPSM             = SDMMC_CPSM_ENABLE;
 601:Drivers/STM32F7xx_HAL_Driver/Src/stm32f7xx_ll_sdmmc.c ****   (void)SDMMC_SendCommand(SDMMCx, &sdmmc_cmdinit);
 602:Drivers/STM32F7xx_HAL_Driver/Src/stm32f7xx_ll_sdmmc.c ****   
ARM GAS  /tmp/ccxJPvV1.s 			page 12


 603:Drivers/STM32F7xx_HAL_Driver/Src/stm32f7xx_ll_sdmmc.c ****   /* Check for error conditions */
 604:Drivers/STM32F7xx_HAL_Driver/Src/stm32f7xx_ll_sdmmc.c ****   errorstate = SDMMC_GetCmdResp1(SDMMCx, SDMMC_CMD_WRITE_SINGLE_BLOCK, SDMMC_CMDTIMEOUT);
 605:Drivers/STM32F7xx_HAL_Driver/Src/stm32f7xx_ll_sdmmc.c **** 
 606:Drivers/STM32F7xx_HAL_Driver/Src/stm32f7xx_ll_sdmmc.c ****   return errorstate;
 607:Drivers/STM32F7xx_HAL_Driver/Src/stm32f7xx_ll_sdmmc.c **** }
 608:Drivers/STM32F7xx_HAL_Driver/Src/stm32f7xx_ll_sdmmc.c **** 
 609:Drivers/STM32F7xx_HAL_Driver/Src/stm32f7xx_ll_sdmmc.c **** /**
 610:Drivers/STM32F7xx_HAL_Driver/Src/stm32f7xx_ll_sdmmc.c ****   * @brief  Send the Write Multi Block command and check the response
 611:Drivers/STM32F7xx_HAL_Driver/Src/stm32f7xx_ll_sdmmc.c ****   * @param  SDMMCx: Pointer to SDMMC register base 
 612:Drivers/STM32F7xx_HAL_Driver/Src/stm32f7xx_ll_sdmmc.c ****   * @retval HAL status
 613:Drivers/STM32F7xx_HAL_Driver/Src/stm32f7xx_ll_sdmmc.c ****   */
 614:Drivers/STM32F7xx_HAL_Driver/Src/stm32f7xx_ll_sdmmc.c **** uint32_t SDMMC_CmdWriteMultiBlock(SDMMC_TypeDef *SDMMCx, uint32_t WriteAdd)
 615:Drivers/STM32F7xx_HAL_Driver/Src/stm32f7xx_ll_sdmmc.c **** {
 616:Drivers/STM32F7xx_HAL_Driver/Src/stm32f7xx_ll_sdmmc.c ****   SDMMC_CmdInitTypeDef  sdmmc_cmdinit;
 617:Drivers/STM32F7xx_HAL_Driver/Src/stm32f7xx_ll_sdmmc.c ****   uint32_t errorstate;
 618:Drivers/STM32F7xx_HAL_Driver/Src/stm32f7xx_ll_sdmmc.c ****   
 619:Drivers/STM32F7xx_HAL_Driver/Src/stm32f7xx_ll_sdmmc.c ****   /* Set Block Size for Card */ 
 620:Drivers/STM32F7xx_HAL_Driver/Src/stm32f7xx_ll_sdmmc.c ****   sdmmc_cmdinit.Argument         = (uint32_t)WriteAdd;
 621:Drivers/STM32F7xx_HAL_Driver/Src/stm32f7xx_ll_sdmmc.c ****   sdmmc_cmdinit.CmdIndex         = SDMMC_CMD_WRITE_MULT_BLOCK;
 622:Drivers/STM32F7xx_HAL_Driver/Src/stm32f7xx_ll_sdmmc.c ****   sdmmc_cmdinit.Response         = SDMMC_RESPONSE_SHORT;
 623:Drivers/STM32F7xx_HAL_Driver/Src/stm32f7xx_ll_sdmmc.c ****   sdmmc_cmdinit.WaitForInterrupt = SDMMC_WAIT_NO;
 624:Drivers/STM32F7xx_HAL_Driver/Src/stm32f7xx_ll_sdmmc.c ****   sdmmc_cmdinit.CPSM             = SDMMC_CPSM_ENABLE;
 625:Drivers/STM32F7xx_HAL_Driver/Src/stm32f7xx_ll_sdmmc.c ****   (void)SDMMC_SendCommand(SDMMCx, &sdmmc_cmdinit);
 626:Drivers/STM32F7xx_HAL_Driver/Src/stm32f7xx_ll_sdmmc.c ****   
 627:Drivers/STM32F7xx_HAL_Driver/Src/stm32f7xx_ll_sdmmc.c ****   /* Check for error conditions */
 628:Drivers/STM32F7xx_HAL_Driver/Src/stm32f7xx_ll_sdmmc.c ****   errorstate = SDMMC_GetCmdResp1(SDMMCx, SDMMC_CMD_WRITE_MULT_BLOCK, SDMMC_CMDTIMEOUT);
 629:Drivers/STM32F7xx_HAL_Driver/Src/stm32f7xx_ll_sdmmc.c **** 
 630:Drivers/STM32F7xx_HAL_Driver/Src/stm32f7xx_ll_sdmmc.c ****   return errorstate;
 631:Drivers/STM32F7xx_HAL_Driver/Src/stm32f7xx_ll_sdmmc.c **** }
 632:Drivers/STM32F7xx_HAL_Driver/Src/stm32f7xx_ll_sdmmc.c **** 
 633:Drivers/STM32F7xx_HAL_Driver/Src/stm32f7xx_ll_sdmmc.c **** /**
 634:Drivers/STM32F7xx_HAL_Driver/Src/stm32f7xx_ll_sdmmc.c ****   * @brief  Send the Start Address Erase command for SD and check the response
 635:Drivers/STM32F7xx_HAL_Driver/Src/stm32f7xx_ll_sdmmc.c ****   * @param  SDMMCx: Pointer to SDMMC register base 
 636:Drivers/STM32F7xx_HAL_Driver/Src/stm32f7xx_ll_sdmmc.c ****   * @retval HAL status
 637:Drivers/STM32F7xx_HAL_Driver/Src/stm32f7xx_ll_sdmmc.c ****   */
 638:Drivers/STM32F7xx_HAL_Driver/Src/stm32f7xx_ll_sdmmc.c **** uint32_t SDMMC_CmdSDEraseStartAdd(SDMMC_TypeDef *SDMMCx, uint32_t StartAdd)
 639:Drivers/STM32F7xx_HAL_Driver/Src/stm32f7xx_ll_sdmmc.c **** {
 640:Drivers/STM32F7xx_HAL_Driver/Src/stm32f7xx_ll_sdmmc.c ****   SDMMC_CmdInitTypeDef  sdmmc_cmdinit;
 641:Drivers/STM32F7xx_HAL_Driver/Src/stm32f7xx_ll_sdmmc.c ****   uint32_t errorstate;
 642:Drivers/STM32F7xx_HAL_Driver/Src/stm32f7xx_ll_sdmmc.c ****   
 643:Drivers/STM32F7xx_HAL_Driver/Src/stm32f7xx_ll_sdmmc.c ****   /* Set Block Size for Card */ 
 644:Drivers/STM32F7xx_HAL_Driver/Src/stm32f7xx_ll_sdmmc.c ****   sdmmc_cmdinit.Argument         = (uint32_t)StartAdd;
 645:Drivers/STM32F7xx_HAL_Driver/Src/stm32f7xx_ll_sdmmc.c ****   sdmmc_cmdinit.CmdIndex         = SDMMC_CMD_SD_ERASE_GRP_START;
 646:Drivers/STM32F7xx_HAL_Driver/Src/stm32f7xx_ll_sdmmc.c ****   sdmmc_cmdinit.Response         = SDMMC_RESPONSE_SHORT;
 647:Drivers/STM32F7xx_HAL_Driver/Src/stm32f7xx_ll_sdmmc.c ****   sdmmc_cmdinit.WaitForInterrupt = SDMMC_WAIT_NO;
 648:Drivers/STM32F7xx_HAL_Driver/Src/stm32f7xx_ll_sdmmc.c ****   sdmmc_cmdinit.CPSM             = SDMMC_CPSM_ENABLE;
 649:Drivers/STM32F7xx_HAL_Driver/Src/stm32f7xx_ll_sdmmc.c ****   (void)SDMMC_SendCommand(SDMMCx, &sdmmc_cmdinit);
 650:Drivers/STM32F7xx_HAL_Driver/Src/stm32f7xx_ll_sdmmc.c ****   
 651:Drivers/STM32F7xx_HAL_Driver/Src/stm32f7xx_ll_sdmmc.c ****   /* Check for error conditions */
 652:Drivers/STM32F7xx_HAL_Driver/Src/stm32f7xx_ll_sdmmc.c ****   errorstate = SDMMC_GetCmdResp1(SDMMCx, SDMMC_CMD_SD_ERASE_GRP_START, SDMMC_CMDTIMEOUT);
 653:Drivers/STM32F7xx_HAL_Driver/Src/stm32f7xx_ll_sdmmc.c **** 
 654:Drivers/STM32F7xx_HAL_Driver/Src/stm32f7xx_ll_sdmmc.c ****   return errorstate;
 655:Drivers/STM32F7xx_HAL_Driver/Src/stm32f7xx_ll_sdmmc.c **** }
 656:Drivers/STM32F7xx_HAL_Driver/Src/stm32f7xx_ll_sdmmc.c **** 
 657:Drivers/STM32F7xx_HAL_Driver/Src/stm32f7xx_ll_sdmmc.c **** /**
 658:Drivers/STM32F7xx_HAL_Driver/Src/stm32f7xx_ll_sdmmc.c ****   * @brief  Send the End Address Erase command for SD and check the response
 659:Drivers/STM32F7xx_HAL_Driver/Src/stm32f7xx_ll_sdmmc.c ****   * @param  SDMMCx: Pointer to SDMMC register base 
ARM GAS  /tmp/ccxJPvV1.s 			page 13


 660:Drivers/STM32F7xx_HAL_Driver/Src/stm32f7xx_ll_sdmmc.c ****   * @retval HAL status
 661:Drivers/STM32F7xx_HAL_Driver/Src/stm32f7xx_ll_sdmmc.c ****   */
 662:Drivers/STM32F7xx_HAL_Driver/Src/stm32f7xx_ll_sdmmc.c **** uint32_t SDMMC_CmdSDEraseEndAdd(SDMMC_TypeDef *SDMMCx, uint32_t EndAdd)
 663:Drivers/STM32F7xx_HAL_Driver/Src/stm32f7xx_ll_sdmmc.c **** {
 664:Drivers/STM32F7xx_HAL_Driver/Src/stm32f7xx_ll_sdmmc.c ****   SDMMC_CmdInitTypeDef  sdmmc_cmdinit;
 665:Drivers/STM32F7xx_HAL_Driver/Src/stm32f7xx_ll_sdmmc.c ****   uint32_t errorstate;
 666:Drivers/STM32F7xx_HAL_Driver/Src/stm32f7xx_ll_sdmmc.c ****   
 667:Drivers/STM32F7xx_HAL_Driver/Src/stm32f7xx_ll_sdmmc.c ****   /* Set Block Size for Card */ 
 668:Drivers/STM32F7xx_HAL_Driver/Src/stm32f7xx_ll_sdmmc.c ****   sdmmc_cmdinit.Argument         = (uint32_t)EndAdd;
 669:Drivers/STM32F7xx_HAL_Driver/Src/stm32f7xx_ll_sdmmc.c ****   sdmmc_cmdinit.CmdIndex         = SDMMC_CMD_SD_ERASE_GRP_END;
 670:Drivers/STM32F7xx_HAL_Driver/Src/stm32f7xx_ll_sdmmc.c ****   sdmmc_cmdinit.Response         = SDMMC_RESPONSE_SHORT;
 671:Drivers/STM32F7xx_HAL_Driver/Src/stm32f7xx_ll_sdmmc.c ****   sdmmc_cmdinit.WaitForInterrupt = SDMMC_WAIT_NO;
 672:Drivers/STM32F7xx_HAL_Driver/Src/stm32f7xx_ll_sdmmc.c ****   sdmmc_cmdinit.CPSM             = SDMMC_CPSM_ENABLE;
 673:Drivers/STM32F7xx_HAL_Driver/Src/stm32f7xx_ll_sdmmc.c ****   (void)SDMMC_SendCommand(SDMMCx, &sdmmc_cmdinit);
 674:Drivers/STM32F7xx_HAL_Driver/Src/stm32f7xx_ll_sdmmc.c ****   
 675:Drivers/STM32F7xx_HAL_Driver/Src/stm32f7xx_ll_sdmmc.c ****   /* Check for error conditions */
 676:Drivers/STM32F7xx_HAL_Driver/Src/stm32f7xx_ll_sdmmc.c ****   errorstate = SDMMC_GetCmdResp1(SDMMCx, SDMMC_CMD_SD_ERASE_GRP_END, SDMMC_CMDTIMEOUT);
 677:Drivers/STM32F7xx_HAL_Driver/Src/stm32f7xx_ll_sdmmc.c **** 
 678:Drivers/STM32F7xx_HAL_Driver/Src/stm32f7xx_ll_sdmmc.c ****   return errorstate;
 679:Drivers/STM32F7xx_HAL_Driver/Src/stm32f7xx_ll_sdmmc.c **** }
 680:Drivers/STM32F7xx_HAL_Driver/Src/stm32f7xx_ll_sdmmc.c **** 
 681:Drivers/STM32F7xx_HAL_Driver/Src/stm32f7xx_ll_sdmmc.c **** /**
 682:Drivers/STM32F7xx_HAL_Driver/Src/stm32f7xx_ll_sdmmc.c ****   * @brief  Send the Start Address Erase command and check the response
 683:Drivers/STM32F7xx_HAL_Driver/Src/stm32f7xx_ll_sdmmc.c ****   * @param  SDMMCx: Pointer to SDMMC register base 
 684:Drivers/STM32F7xx_HAL_Driver/Src/stm32f7xx_ll_sdmmc.c ****   * @retval HAL status
 685:Drivers/STM32F7xx_HAL_Driver/Src/stm32f7xx_ll_sdmmc.c ****   */
 686:Drivers/STM32F7xx_HAL_Driver/Src/stm32f7xx_ll_sdmmc.c **** uint32_t SDMMC_CmdEraseStartAdd(SDMMC_TypeDef *SDMMCx, uint32_t StartAdd)
 687:Drivers/STM32F7xx_HAL_Driver/Src/stm32f7xx_ll_sdmmc.c **** {
 688:Drivers/STM32F7xx_HAL_Driver/Src/stm32f7xx_ll_sdmmc.c ****   SDMMC_CmdInitTypeDef  sdmmc_cmdinit;
 689:Drivers/STM32F7xx_HAL_Driver/Src/stm32f7xx_ll_sdmmc.c ****   uint32_t errorstate;
 690:Drivers/STM32F7xx_HAL_Driver/Src/stm32f7xx_ll_sdmmc.c ****   
 691:Drivers/STM32F7xx_HAL_Driver/Src/stm32f7xx_ll_sdmmc.c ****   /* Set Block Size for Card */ 
 692:Drivers/STM32F7xx_HAL_Driver/Src/stm32f7xx_ll_sdmmc.c ****   sdmmc_cmdinit.Argument         = (uint32_t)StartAdd;
 693:Drivers/STM32F7xx_HAL_Driver/Src/stm32f7xx_ll_sdmmc.c ****   sdmmc_cmdinit.CmdIndex         = SDMMC_CMD_ERASE_GRP_START;
 694:Drivers/STM32F7xx_HAL_Driver/Src/stm32f7xx_ll_sdmmc.c ****   sdmmc_cmdinit.Response         = SDMMC_RESPONSE_SHORT;
 695:Drivers/STM32F7xx_HAL_Driver/Src/stm32f7xx_ll_sdmmc.c ****   sdmmc_cmdinit.WaitForInterrupt = SDMMC_WAIT_NO;
 696:Drivers/STM32F7xx_HAL_Driver/Src/stm32f7xx_ll_sdmmc.c ****   sdmmc_cmdinit.CPSM             = SDMMC_CPSM_ENABLE;
 697:Drivers/STM32F7xx_HAL_Driver/Src/stm32f7xx_ll_sdmmc.c ****   (void)SDMMC_SendCommand(SDMMCx, &sdmmc_cmdinit);
 698:Drivers/STM32F7xx_HAL_Driver/Src/stm32f7xx_ll_sdmmc.c ****   
 699:Drivers/STM32F7xx_HAL_Driver/Src/stm32f7xx_ll_sdmmc.c ****   /* Check for error conditions */
 700:Drivers/STM32F7xx_HAL_Driver/Src/stm32f7xx_ll_sdmmc.c ****   errorstate = SDMMC_GetCmdResp1(SDMMCx, SDMMC_CMD_ERASE_GRP_START, SDMMC_CMDTIMEOUT);
 701:Drivers/STM32F7xx_HAL_Driver/Src/stm32f7xx_ll_sdmmc.c **** 
 702:Drivers/STM32F7xx_HAL_Driver/Src/stm32f7xx_ll_sdmmc.c ****   return errorstate;
 703:Drivers/STM32F7xx_HAL_Driver/Src/stm32f7xx_ll_sdmmc.c **** }
 704:Drivers/STM32F7xx_HAL_Driver/Src/stm32f7xx_ll_sdmmc.c **** 
 705:Drivers/STM32F7xx_HAL_Driver/Src/stm32f7xx_ll_sdmmc.c **** /**
 706:Drivers/STM32F7xx_HAL_Driver/Src/stm32f7xx_ll_sdmmc.c ****   * @brief  Send the End Address Erase command and check the response
 707:Drivers/STM32F7xx_HAL_Driver/Src/stm32f7xx_ll_sdmmc.c ****   * @param  SDMMCx: Pointer to SDMMC register base 
 708:Drivers/STM32F7xx_HAL_Driver/Src/stm32f7xx_ll_sdmmc.c ****   * @retval HAL status
 709:Drivers/STM32F7xx_HAL_Driver/Src/stm32f7xx_ll_sdmmc.c ****   */
 710:Drivers/STM32F7xx_HAL_Driver/Src/stm32f7xx_ll_sdmmc.c **** uint32_t SDMMC_CmdEraseEndAdd(SDMMC_TypeDef *SDMMCx, uint32_t EndAdd)
 711:Drivers/STM32F7xx_HAL_Driver/Src/stm32f7xx_ll_sdmmc.c **** {
 712:Drivers/STM32F7xx_HAL_Driver/Src/stm32f7xx_ll_sdmmc.c ****   SDMMC_CmdInitTypeDef  sdmmc_cmdinit;
 713:Drivers/STM32F7xx_HAL_Driver/Src/stm32f7xx_ll_sdmmc.c ****   uint32_t errorstate;
 714:Drivers/STM32F7xx_HAL_Driver/Src/stm32f7xx_ll_sdmmc.c ****   
 715:Drivers/STM32F7xx_HAL_Driver/Src/stm32f7xx_ll_sdmmc.c ****   /* Set Block Size for Card */ 
 716:Drivers/STM32F7xx_HAL_Driver/Src/stm32f7xx_ll_sdmmc.c ****   sdmmc_cmdinit.Argument         = (uint32_t)EndAdd;
ARM GAS  /tmp/ccxJPvV1.s 			page 14


 717:Drivers/STM32F7xx_HAL_Driver/Src/stm32f7xx_ll_sdmmc.c ****   sdmmc_cmdinit.CmdIndex         = SDMMC_CMD_ERASE_GRP_END;
 718:Drivers/STM32F7xx_HAL_Driver/Src/stm32f7xx_ll_sdmmc.c ****   sdmmc_cmdinit.Response         = SDMMC_RESPONSE_SHORT;
 719:Drivers/STM32F7xx_HAL_Driver/Src/stm32f7xx_ll_sdmmc.c ****   sdmmc_cmdinit.WaitForInterrupt = SDMMC_WAIT_NO;
 720:Drivers/STM32F7xx_HAL_Driver/Src/stm32f7xx_ll_sdmmc.c ****   sdmmc_cmdinit.CPSM             = SDMMC_CPSM_ENABLE;
 721:Drivers/STM32F7xx_HAL_Driver/Src/stm32f7xx_ll_sdmmc.c ****   (void)SDMMC_SendCommand(SDMMCx, &sdmmc_cmdinit);
 722:Drivers/STM32F7xx_HAL_Driver/Src/stm32f7xx_ll_sdmmc.c ****   
 723:Drivers/STM32F7xx_HAL_Driver/Src/stm32f7xx_ll_sdmmc.c ****   /* Check for error conditions */
 724:Drivers/STM32F7xx_HAL_Driver/Src/stm32f7xx_ll_sdmmc.c ****   errorstate = SDMMC_GetCmdResp1(SDMMCx, SDMMC_CMD_ERASE_GRP_END, SDMMC_CMDTIMEOUT);
 725:Drivers/STM32F7xx_HAL_Driver/Src/stm32f7xx_ll_sdmmc.c **** 
 726:Drivers/STM32F7xx_HAL_Driver/Src/stm32f7xx_ll_sdmmc.c ****   return errorstate;
 727:Drivers/STM32F7xx_HAL_Driver/Src/stm32f7xx_ll_sdmmc.c **** }
 728:Drivers/STM32F7xx_HAL_Driver/Src/stm32f7xx_ll_sdmmc.c **** 
 729:Drivers/STM32F7xx_HAL_Driver/Src/stm32f7xx_ll_sdmmc.c **** /**
 730:Drivers/STM32F7xx_HAL_Driver/Src/stm32f7xx_ll_sdmmc.c ****   * @brief  Send the Erase command and check the response
 731:Drivers/STM32F7xx_HAL_Driver/Src/stm32f7xx_ll_sdmmc.c ****   * @param  SDMMCx: Pointer to SDMMC register base 
 732:Drivers/STM32F7xx_HAL_Driver/Src/stm32f7xx_ll_sdmmc.c ****   * @retval HAL status
 733:Drivers/STM32F7xx_HAL_Driver/Src/stm32f7xx_ll_sdmmc.c ****   */
 734:Drivers/STM32F7xx_HAL_Driver/Src/stm32f7xx_ll_sdmmc.c **** uint32_t SDMMC_CmdErase(SDMMC_TypeDef *SDMMCx)
 735:Drivers/STM32F7xx_HAL_Driver/Src/stm32f7xx_ll_sdmmc.c **** {
 736:Drivers/STM32F7xx_HAL_Driver/Src/stm32f7xx_ll_sdmmc.c ****   SDMMC_CmdInitTypeDef  sdmmc_cmdinit;
 737:Drivers/STM32F7xx_HAL_Driver/Src/stm32f7xx_ll_sdmmc.c ****   uint32_t errorstate;
 738:Drivers/STM32F7xx_HAL_Driver/Src/stm32f7xx_ll_sdmmc.c ****   
 739:Drivers/STM32F7xx_HAL_Driver/Src/stm32f7xx_ll_sdmmc.c ****   /* Set Block Size for Card */ 
 740:Drivers/STM32F7xx_HAL_Driver/Src/stm32f7xx_ll_sdmmc.c ****   sdmmc_cmdinit.Argument         = 0U;
 741:Drivers/STM32F7xx_HAL_Driver/Src/stm32f7xx_ll_sdmmc.c ****   sdmmc_cmdinit.CmdIndex         = SDMMC_CMD_ERASE;
 742:Drivers/STM32F7xx_HAL_Driver/Src/stm32f7xx_ll_sdmmc.c ****   sdmmc_cmdinit.Response         = SDMMC_RESPONSE_SHORT;
 743:Drivers/STM32F7xx_HAL_Driver/Src/stm32f7xx_ll_sdmmc.c ****   sdmmc_cmdinit.WaitForInterrupt = SDMMC_WAIT_NO;
 744:Drivers/STM32F7xx_HAL_Driver/Src/stm32f7xx_ll_sdmmc.c ****   sdmmc_cmdinit.CPSM             = SDMMC_CPSM_ENABLE;
 745:Drivers/STM32F7xx_HAL_Driver/Src/stm32f7xx_ll_sdmmc.c ****   (void)SDMMC_SendCommand(SDMMCx, &sdmmc_cmdinit);
 746:Drivers/STM32F7xx_HAL_Driver/Src/stm32f7xx_ll_sdmmc.c ****   
 747:Drivers/STM32F7xx_HAL_Driver/Src/stm32f7xx_ll_sdmmc.c ****   /* Check for error conditions */
 748:Drivers/STM32F7xx_HAL_Driver/Src/stm32f7xx_ll_sdmmc.c ****   errorstate = SDMMC_GetCmdResp1(SDMMCx, SDMMC_CMD_ERASE, SDMMC_MAXERASETIMEOUT);
 749:Drivers/STM32F7xx_HAL_Driver/Src/stm32f7xx_ll_sdmmc.c **** 
 750:Drivers/STM32F7xx_HAL_Driver/Src/stm32f7xx_ll_sdmmc.c ****   return errorstate;
 751:Drivers/STM32F7xx_HAL_Driver/Src/stm32f7xx_ll_sdmmc.c **** }
 752:Drivers/STM32F7xx_HAL_Driver/Src/stm32f7xx_ll_sdmmc.c **** 
 753:Drivers/STM32F7xx_HAL_Driver/Src/stm32f7xx_ll_sdmmc.c **** /**
 754:Drivers/STM32F7xx_HAL_Driver/Src/stm32f7xx_ll_sdmmc.c ****   * @brief  Send the Stop Transfer command and check the response.
 755:Drivers/STM32F7xx_HAL_Driver/Src/stm32f7xx_ll_sdmmc.c ****   * @param  SDMMCx: Pointer to SDMMC register base 
 756:Drivers/STM32F7xx_HAL_Driver/Src/stm32f7xx_ll_sdmmc.c ****   * @retval HAL status
 757:Drivers/STM32F7xx_HAL_Driver/Src/stm32f7xx_ll_sdmmc.c ****   */
 758:Drivers/STM32F7xx_HAL_Driver/Src/stm32f7xx_ll_sdmmc.c **** uint32_t SDMMC_CmdStopTransfer(SDMMC_TypeDef *SDMMCx)
 759:Drivers/STM32F7xx_HAL_Driver/Src/stm32f7xx_ll_sdmmc.c **** {
 760:Drivers/STM32F7xx_HAL_Driver/Src/stm32f7xx_ll_sdmmc.c ****   SDMMC_CmdInitTypeDef  sdmmc_cmdinit;
 761:Drivers/STM32F7xx_HAL_Driver/Src/stm32f7xx_ll_sdmmc.c ****   uint32_t errorstate;
 762:Drivers/STM32F7xx_HAL_Driver/Src/stm32f7xx_ll_sdmmc.c ****   
 763:Drivers/STM32F7xx_HAL_Driver/Src/stm32f7xx_ll_sdmmc.c ****   /* Send CMD12 STOP_TRANSMISSION  */
 764:Drivers/STM32F7xx_HAL_Driver/Src/stm32f7xx_ll_sdmmc.c ****   sdmmc_cmdinit.Argument         = 0U;
 765:Drivers/STM32F7xx_HAL_Driver/Src/stm32f7xx_ll_sdmmc.c ****   sdmmc_cmdinit.CmdIndex         = SDMMC_CMD_STOP_TRANSMISSION;
 766:Drivers/STM32F7xx_HAL_Driver/Src/stm32f7xx_ll_sdmmc.c ****   sdmmc_cmdinit.Response         = SDMMC_RESPONSE_SHORT;
 767:Drivers/STM32F7xx_HAL_Driver/Src/stm32f7xx_ll_sdmmc.c ****   sdmmc_cmdinit.WaitForInterrupt = SDMMC_WAIT_NO;
 768:Drivers/STM32F7xx_HAL_Driver/Src/stm32f7xx_ll_sdmmc.c ****   sdmmc_cmdinit.CPSM             = SDMMC_CPSM_ENABLE;
 769:Drivers/STM32F7xx_HAL_Driver/Src/stm32f7xx_ll_sdmmc.c ****   (void)SDMMC_SendCommand(SDMMCx, &sdmmc_cmdinit);
 770:Drivers/STM32F7xx_HAL_Driver/Src/stm32f7xx_ll_sdmmc.c ****   
 771:Drivers/STM32F7xx_HAL_Driver/Src/stm32f7xx_ll_sdmmc.c ****   /* Check for error conditions */
 772:Drivers/STM32F7xx_HAL_Driver/Src/stm32f7xx_ll_sdmmc.c ****   errorstate = SDMMC_GetCmdResp1(SDMMCx, SDMMC_CMD_STOP_TRANSMISSION, SDMMC_STOPTRANSFERTIMEOUT);
 773:Drivers/STM32F7xx_HAL_Driver/Src/stm32f7xx_ll_sdmmc.c **** 
ARM GAS  /tmp/ccxJPvV1.s 			page 15


 774:Drivers/STM32F7xx_HAL_Driver/Src/stm32f7xx_ll_sdmmc.c ****   return errorstate;
 775:Drivers/STM32F7xx_HAL_Driver/Src/stm32f7xx_ll_sdmmc.c **** }
 776:Drivers/STM32F7xx_HAL_Driver/Src/stm32f7xx_ll_sdmmc.c **** 
 777:Drivers/STM32F7xx_HAL_Driver/Src/stm32f7xx_ll_sdmmc.c **** /**
 778:Drivers/STM32F7xx_HAL_Driver/Src/stm32f7xx_ll_sdmmc.c ****   * @brief  Send the Select Deselect command and check the response.
 779:Drivers/STM32F7xx_HAL_Driver/Src/stm32f7xx_ll_sdmmc.c ****   * @param  SDMMCx: Pointer to SDMMC register base 
 780:Drivers/STM32F7xx_HAL_Driver/Src/stm32f7xx_ll_sdmmc.c ****   * @param  addr: Address of the card to be selected  
 781:Drivers/STM32F7xx_HAL_Driver/Src/stm32f7xx_ll_sdmmc.c ****   * @retval HAL status
 782:Drivers/STM32F7xx_HAL_Driver/Src/stm32f7xx_ll_sdmmc.c ****   */
 783:Drivers/STM32F7xx_HAL_Driver/Src/stm32f7xx_ll_sdmmc.c **** uint32_t SDMMC_CmdSelDesel(SDMMC_TypeDef *SDMMCx, uint64_t Addr)
 784:Drivers/STM32F7xx_HAL_Driver/Src/stm32f7xx_ll_sdmmc.c **** {
 785:Drivers/STM32F7xx_HAL_Driver/Src/stm32f7xx_ll_sdmmc.c ****   SDMMC_CmdInitTypeDef  sdmmc_cmdinit;
 786:Drivers/STM32F7xx_HAL_Driver/Src/stm32f7xx_ll_sdmmc.c ****   uint32_t errorstate;
 787:Drivers/STM32F7xx_HAL_Driver/Src/stm32f7xx_ll_sdmmc.c ****   
 788:Drivers/STM32F7xx_HAL_Driver/Src/stm32f7xx_ll_sdmmc.c ****   /* Send CMD7 SDMMC_SEL_DESEL_CARD */
 789:Drivers/STM32F7xx_HAL_Driver/Src/stm32f7xx_ll_sdmmc.c ****   sdmmc_cmdinit.Argument         = (uint32_t)Addr;
 790:Drivers/STM32F7xx_HAL_Driver/Src/stm32f7xx_ll_sdmmc.c ****   sdmmc_cmdinit.CmdIndex         = SDMMC_CMD_SEL_DESEL_CARD;
 791:Drivers/STM32F7xx_HAL_Driver/Src/stm32f7xx_ll_sdmmc.c ****   sdmmc_cmdinit.Response         = SDMMC_RESPONSE_SHORT;
 792:Drivers/STM32F7xx_HAL_Driver/Src/stm32f7xx_ll_sdmmc.c ****   sdmmc_cmdinit.WaitForInterrupt = SDMMC_WAIT_NO;
 793:Drivers/STM32F7xx_HAL_Driver/Src/stm32f7xx_ll_sdmmc.c ****   sdmmc_cmdinit.CPSM             = SDMMC_CPSM_ENABLE;
 794:Drivers/STM32F7xx_HAL_Driver/Src/stm32f7xx_ll_sdmmc.c ****   (void)SDMMC_SendCommand(SDMMCx, &sdmmc_cmdinit);
 795:Drivers/STM32F7xx_HAL_Driver/Src/stm32f7xx_ll_sdmmc.c ****   
 796:Drivers/STM32F7xx_HAL_Driver/Src/stm32f7xx_ll_sdmmc.c ****   /* Check for error conditions */
 797:Drivers/STM32F7xx_HAL_Driver/Src/stm32f7xx_ll_sdmmc.c ****   errorstate = SDMMC_GetCmdResp1(SDMMCx, SDMMC_CMD_SEL_DESEL_CARD, SDMMC_CMDTIMEOUT);
 798:Drivers/STM32F7xx_HAL_Driver/Src/stm32f7xx_ll_sdmmc.c **** 
 799:Drivers/STM32F7xx_HAL_Driver/Src/stm32f7xx_ll_sdmmc.c ****   return errorstate;
 800:Drivers/STM32F7xx_HAL_Driver/Src/stm32f7xx_ll_sdmmc.c **** }
 801:Drivers/STM32F7xx_HAL_Driver/Src/stm32f7xx_ll_sdmmc.c **** 
 802:Drivers/STM32F7xx_HAL_Driver/Src/stm32f7xx_ll_sdmmc.c **** /**
 803:Drivers/STM32F7xx_HAL_Driver/Src/stm32f7xx_ll_sdmmc.c ****   * @brief  Send the Go Idle State command and check the response.
 804:Drivers/STM32F7xx_HAL_Driver/Src/stm32f7xx_ll_sdmmc.c ****   * @param  SDMMCx: Pointer to SDMMC register base 
 805:Drivers/STM32F7xx_HAL_Driver/Src/stm32f7xx_ll_sdmmc.c ****   * @retval HAL status
 806:Drivers/STM32F7xx_HAL_Driver/Src/stm32f7xx_ll_sdmmc.c ****   */
 807:Drivers/STM32F7xx_HAL_Driver/Src/stm32f7xx_ll_sdmmc.c **** uint32_t SDMMC_CmdGoIdleState(SDMMC_TypeDef *SDMMCx)
 808:Drivers/STM32F7xx_HAL_Driver/Src/stm32f7xx_ll_sdmmc.c **** {
 809:Drivers/STM32F7xx_HAL_Driver/Src/stm32f7xx_ll_sdmmc.c ****   SDMMC_CmdInitTypeDef  sdmmc_cmdinit;
 810:Drivers/STM32F7xx_HAL_Driver/Src/stm32f7xx_ll_sdmmc.c ****   uint32_t errorstate;
 811:Drivers/STM32F7xx_HAL_Driver/Src/stm32f7xx_ll_sdmmc.c ****   
 812:Drivers/STM32F7xx_HAL_Driver/Src/stm32f7xx_ll_sdmmc.c ****   sdmmc_cmdinit.Argument         = 0U;
 813:Drivers/STM32F7xx_HAL_Driver/Src/stm32f7xx_ll_sdmmc.c ****   sdmmc_cmdinit.CmdIndex         = SDMMC_CMD_GO_IDLE_STATE;
 814:Drivers/STM32F7xx_HAL_Driver/Src/stm32f7xx_ll_sdmmc.c ****   sdmmc_cmdinit.Response         = SDMMC_RESPONSE_NO;
 815:Drivers/STM32F7xx_HAL_Driver/Src/stm32f7xx_ll_sdmmc.c ****   sdmmc_cmdinit.WaitForInterrupt = SDMMC_WAIT_NO;
 816:Drivers/STM32F7xx_HAL_Driver/Src/stm32f7xx_ll_sdmmc.c ****   sdmmc_cmdinit.CPSM             = SDMMC_CPSM_ENABLE;
 817:Drivers/STM32F7xx_HAL_Driver/Src/stm32f7xx_ll_sdmmc.c ****   (void)SDMMC_SendCommand(SDMMCx, &sdmmc_cmdinit);
 818:Drivers/STM32F7xx_HAL_Driver/Src/stm32f7xx_ll_sdmmc.c ****   
 819:Drivers/STM32F7xx_HAL_Driver/Src/stm32f7xx_ll_sdmmc.c ****   /* Check for error conditions */
 820:Drivers/STM32F7xx_HAL_Driver/Src/stm32f7xx_ll_sdmmc.c ****   errorstate = SDMMC_GetCmdError(SDMMCx);
 821:Drivers/STM32F7xx_HAL_Driver/Src/stm32f7xx_ll_sdmmc.c **** 
 822:Drivers/STM32F7xx_HAL_Driver/Src/stm32f7xx_ll_sdmmc.c ****   return errorstate;
 823:Drivers/STM32F7xx_HAL_Driver/Src/stm32f7xx_ll_sdmmc.c **** }
 824:Drivers/STM32F7xx_HAL_Driver/Src/stm32f7xx_ll_sdmmc.c **** 
 825:Drivers/STM32F7xx_HAL_Driver/Src/stm32f7xx_ll_sdmmc.c **** /**
 826:Drivers/STM32F7xx_HAL_Driver/Src/stm32f7xx_ll_sdmmc.c ****   * @brief  Send the Operating Condition command and check the response.
 827:Drivers/STM32F7xx_HAL_Driver/Src/stm32f7xx_ll_sdmmc.c ****   * @param  SDMMCx: Pointer to SDMMC register base 
 828:Drivers/STM32F7xx_HAL_Driver/Src/stm32f7xx_ll_sdmmc.c ****   * @retval HAL status
 829:Drivers/STM32F7xx_HAL_Driver/Src/stm32f7xx_ll_sdmmc.c ****   */
 830:Drivers/STM32F7xx_HAL_Driver/Src/stm32f7xx_ll_sdmmc.c **** uint32_t SDMMC_CmdOperCond(SDMMC_TypeDef *SDMMCx)
ARM GAS  /tmp/ccxJPvV1.s 			page 16


 831:Drivers/STM32F7xx_HAL_Driver/Src/stm32f7xx_ll_sdmmc.c **** {
 832:Drivers/STM32F7xx_HAL_Driver/Src/stm32f7xx_ll_sdmmc.c ****   SDMMC_CmdInitTypeDef  sdmmc_cmdinit;
 833:Drivers/STM32F7xx_HAL_Driver/Src/stm32f7xx_ll_sdmmc.c ****   uint32_t errorstate;
 834:Drivers/STM32F7xx_HAL_Driver/Src/stm32f7xx_ll_sdmmc.c ****   
 835:Drivers/STM32F7xx_HAL_Driver/Src/stm32f7xx_ll_sdmmc.c ****   /* Send CMD8 to verify SD card interface operating condition */
 836:Drivers/STM32F7xx_HAL_Driver/Src/stm32f7xx_ll_sdmmc.c ****   /* Argument: - [31:12]: Reserved (shall be set to '0')
 837:Drivers/STM32F7xx_HAL_Driver/Src/stm32f7xx_ll_sdmmc.c ****   - [11:8]: Supply Voltage (VHS) 0x1 (Range: 2.7-3.6 V)
 838:Drivers/STM32F7xx_HAL_Driver/Src/stm32f7xx_ll_sdmmc.c ****   - [7:0]: Check Pattern (recommended 0xAA) */
 839:Drivers/STM32F7xx_HAL_Driver/Src/stm32f7xx_ll_sdmmc.c ****   /* CMD Response: R7 */
 840:Drivers/STM32F7xx_HAL_Driver/Src/stm32f7xx_ll_sdmmc.c ****   sdmmc_cmdinit.Argument         = SDMMC_CHECK_PATTERN;
 841:Drivers/STM32F7xx_HAL_Driver/Src/stm32f7xx_ll_sdmmc.c ****   sdmmc_cmdinit.CmdIndex         = SDMMC_CMD_HS_SEND_EXT_CSD;
 842:Drivers/STM32F7xx_HAL_Driver/Src/stm32f7xx_ll_sdmmc.c ****   sdmmc_cmdinit.Response         = SDMMC_RESPONSE_SHORT;
 843:Drivers/STM32F7xx_HAL_Driver/Src/stm32f7xx_ll_sdmmc.c ****   sdmmc_cmdinit.WaitForInterrupt = SDMMC_WAIT_NO;
 844:Drivers/STM32F7xx_HAL_Driver/Src/stm32f7xx_ll_sdmmc.c ****   sdmmc_cmdinit.CPSM             = SDMMC_CPSM_ENABLE;
 845:Drivers/STM32F7xx_HAL_Driver/Src/stm32f7xx_ll_sdmmc.c ****   (void)SDMMC_SendCommand(SDMMCx, &sdmmc_cmdinit);
 846:Drivers/STM32F7xx_HAL_Driver/Src/stm32f7xx_ll_sdmmc.c ****   
 847:Drivers/STM32F7xx_HAL_Driver/Src/stm32f7xx_ll_sdmmc.c ****   /* Check for error conditions */
 848:Drivers/STM32F7xx_HAL_Driver/Src/stm32f7xx_ll_sdmmc.c ****   errorstate = SDMMC_GetCmdResp7(SDMMCx);
 849:Drivers/STM32F7xx_HAL_Driver/Src/stm32f7xx_ll_sdmmc.c **** 
 850:Drivers/STM32F7xx_HAL_Driver/Src/stm32f7xx_ll_sdmmc.c ****   return errorstate;
 851:Drivers/STM32F7xx_HAL_Driver/Src/stm32f7xx_ll_sdmmc.c **** }
 852:Drivers/STM32F7xx_HAL_Driver/Src/stm32f7xx_ll_sdmmc.c **** 
 853:Drivers/STM32F7xx_HAL_Driver/Src/stm32f7xx_ll_sdmmc.c **** /**
 854:Drivers/STM32F7xx_HAL_Driver/Src/stm32f7xx_ll_sdmmc.c ****   * @brief  Send the Application command to verify that that the next command 
 855:Drivers/STM32F7xx_HAL_Driver/Src/stm32f7xx_ll_sdmmc.c ****   *         is an application specific com-mand rather than a standard command
 856:Drivers/STM32F7xx_HAL_Driver/Src/stm32f7xx_ll_sdmmc.c ****   *         and check the response.
 857:Drivers/STM32F7xx_HAL_Driver/Src/stm32f7xx_ll_sdmmc.c ****   * @param  SDMMCx: Pointer to SDMMC register base 
 858:Drivers/STM32F7xx_HAL_Driver/Src/stm32f7xx_ll_sdmmc.c ****   * @param  Argument: Command Argument 
 859:Drivers/STM32F7xx_HAL_Driver/Src/stm32f7xx_ll_sdmmc.c ****   * @retval HAL status
 860:Drivers/STM32F7xx_HAL_Driver/Src/stm32f7xx_ll_sdmmc.c ****   */
 861:Drivers/STM32F7xx_HAL_Driver/Src/stm32f7xx_ll_sdmmc.c **** uint32_t SDMMC_CmdAppCommand(SDMMC_TypeDef *SDMMCx, uint32_t Argument)
 862:Drivers/STM32F7xx_HAL_Driver/Src/stm32f7xx_ll_sdmmc.c **** {
 863:Drivers/STM32F7xx_HAL_Driver/Src/stm32f7xx_ll_sdmmc.c ****   SDMMC_CmdInitTypeDef  sdmmc_cmdinit;
 864:Drivers/STM32F7xx_HAL_Driver/Src/stm32f7xx_ll_sdmmc.c ****   uint32_t errorstate;
 865:Drivers/STM32F7xx_HAL_Driver/Src/stm32f7xx_ll_sdmmc.c ****   
 866:Drivers/STM32F7xx_HAL_Driver/Src/stm32f7xx_ll_sdmmc.c ****   sdmmc_cmdinit.Argument         = (uint32_t)Argument;
 867:Drivers/STM32F7xx_HAL_Driver/Src/stm32f7xx_ll_sdmmc.c ****   sdmmc_cmdinit.CmdIndex         = SDMMC_CMD_APP_CMD;
 868:Drivers/STM32F7xx_HAL_Driver/Src/stm32f7xx_ll_sdmmc.c ****   sdmmc_cmdinit.Response         = SDMMC_RESPONSE_SHORT;
 869:Drivers/STM32F7xx_HAL_Driver/Src/stm32f7xx_ll_sdmmc.c ****   sdmmc_cmdinit.WaitForInterrupt = SDMMC_WAIT_NO;
 870:Drivers/STM32F7xx_HAL_Driver/Src/stm32f7xx_ll_sdmmc.c ****   sdmmc_cmdinit.CPSM             = SDMMC_CPSM_ENABLE;
 871:Drivers/STM32F7xx_HAL_Driver/Src/stm32f7xx_ll_sdmmc.c ****   (void)SDMMC_SendCommand(SDMMCx, &sdmmc_cmdinit);
 872:Drivers/STM32F7xx_HAL_Driver/Src/stm32f7xx_ll_sdmmc.c ****   
 873:Drivers/STM32F7xx_HAL_Driver/Src/stm32f7xx_ll_sdmmc.c ****   /* Check for error conditions */
 874:Drivers/STM32F7xx_HAL_Driver/Src/stm32f7xx_ll_sdmmc.c ****   /* If there is a HAL_ERROR, it is a MMC card, else
 875:Drivers/STM32F7xx_HAL_Driver/Src/stm32f7xx_ll_sdmmc.c ****   it is a SD card: SD card 2.0 (voltage range mismatch)
 876:Drivers/STM32F7xx_HAL_Driver/Src/stm32f7xx_ll_sdmmc.c ****      or SD card 1.x */
 877:Drivers/STM32F7xx_HAL_Driver/Src/stm32f7xx_ll_sdmmc.c ****   errorstate = SDMMC_GetCmdResp1(SDMMCx, SDMMC_CMD_APP_CMD, SDMMC_CMDTIMEOUT);
 878:Drivers/STM32F7xx_HAL_Driver/Src/stm32f7xx_ll_sdmmc.c **** 
 879:Drivers/STM32F7xx_HAL_Driver/Src/stm32f7xx_ll_sdmmc.c ****   return errorstate;
 880:Drivers/STM32F7xx_HAL_Driver/Src/stm32f7xx_ll_sdmmc.c **** }
 881:Drivers/STM32F7xx_HAL_Driver/Src/stm32f7xx_ll_sdmmc.c **** 
 882:Drivers/STM32F7xx_HAL_Driver/Src/stm32f7xx_ll_sdmmc.c **** /**
 883:Drivers/STM32F7xx_HAL_Driver/Src/stm32f7xx_ll_sdmmc.c ****   * @brief  Send the command asking the accessed card to send its operating 
 884:Drivers/STM32F7xx_HAL_Driver/Src/stm32f7xx_ll_sdmmc.c ****   *         condition register (OCR)
 885:Drivers/STM32F7xx_HAL_Driver/Src/stm32f7xx_ll_sdmmc.c ****   * @param  SDMMCx: Pointer to SDMMC register base 
 886:Drivers/STM32F7xx_HAL_Driver/Src/stm32f7xx_ll_sdmmc.c ****   * @param  Argument: Command Argument
 887:Drivers/STM32F7xx_HAL_Driver/Src/stm32f7xx_ll_sdmmc.c ****   * @retval HAL status
ARM GAS  /tmp/ccxJPvV1.s 			page 17


 888:Drivers/STM32F7xx_HAL_Driver/Src/stm32f7xx_ll_sdmmc.c ****   */
 889:Drivers/STM32F7xx_HAL_Driver/Src/stm32f7xx_ll_sdmmc.c **** uint32_t SDMMC_CmdAppOperCommand(SDMMC_TypeDef *SDMMCx, uint32_t Argument)
 890:Drivers/STM32F7xx_HAL_Driver/Src/stm32f7xx_ll_sdmmc.c **** {
 891:Drivers/STM32F7xx_HAL_Driver/Src/stm32f7xx_ll_sdmmc.c ****   SDMMC_CmdInitTypeDef  sdmmc_cmdinit;
 892:Drivers/STM32F7xx_HAL_Driver/Src/stm32f7xx_ll_sdmmc.c ****   uint32_t errorstate;
 893:Drivers/STM32F7xx_HAL_Driver/Src/stm32f7xx_ll_sdmmc.c ****   
 894:Drivers/STM32F7xx_HAL_Driver/Src/stm32f7xx_ll_sdmmc.c ****   sdmmc_cmdinit.Argument         = SDMMC_VOLTAGE_WINDOW_SD | Argument;
 895:Drivers/STM32F7xx_HAL_Driver/Src/stm32f7xx_ll_sdmmc.c ****   sdmmc_cmdinit.CmdIndex         = SDMMC_CMD_SD_APP_OP_COND;
 896:Drivers/STM32F7xx_HAL_Driver/Src/stm32f7xx_ll_sdmmc.c ****   sdmmc_cmdinit.Response         = SDMMC_RESPONSE_SHORT;
 897:Drivers/STM32F7xx_HAL_Driver/Src/stm32f7xx_ll_sdmmc.c ****   sdmmc_cmdinit.WaitForInterrupt = SDMMC_WAIT_NO;
 898:Drivers/STM32F7xx_HAL_Driver/Src/stm32f7xx_ll_sdmmc.c ****   sdmmc_cmdinit.CPSM             = SDMMC_CPSM_ENABLE;
 899:Drivers/STM32F7xx_HAL_Driver/Src/stm32f7xx_ll_sdmmc.c ****   (void)SDMMC_SendCommand(SDMMCx, &sdmmc_cmdinit);
 900:Drivers/STM32F7xx_HAL_Driver/Src/stm32f7xx_ll_sdmmc.c ****   
 901:Drivers/STM32F7xx_HAL_Driver/Src/stm32f7xx_ll_sdmmc.c ****   /* Check for error conditions */
 902:Drivers/STM32F7xx_HAL_Driver/Src/stm32f7xx_ll_sdmmc.c ****   errorstate = SDMMC_GetCmdResp3(SDMMCx);
 903:Drivers/STM32F7xx_HAL_Driver/Src/stm32f7xx_ll_sdmmc.c **** 
 904:Drivers/STM32F7xx_HAL_Driver/Src/stm32f7xx_ll_sdmmc.c ****   return errorstate;
 905:Drivers/STM32F7xx_HAL_Driver/Src/stm32f7xx_ll_sdmmc.c **** }
 906:Drivers/STM32F7xx_HAL_Driver/Src/stm32f7xx_ll_sdmmc.c **** 
 907:Drivers/STM32F7xx_HAL_Driver/Src/stm32f7xx_ll_sdmmc.c **** /**
 908:Drivers/STM32F7xx_HAL_Driver/Src/stm32f7xx_ll_sdmmc.c ****   * @brief  Send the Bus Width command and check the response.
 909:Drivers/STM32F7xx_HAL_Driver/Src/stm32f7xx_ll_sdmmc.c ****   * @param  SDMMCx: Pointer to SDMMC register base 
 910:Drivers/STM32F7xx_HAL_Driver/Src/stm32f7xx_ll_sdmmc.c ****   * @param  BusWidth: BusWidth
 911:Drivers/STM32F7xx_HAL_Driver/Src/stm32f7xx_ll_sdmmc.c ****   * @retval HAL status
 912:Drivers/STM32F7xx_HAL_Driver/Src/stm32f7xx_ll_sdmmc.c ****   */
 913:Drivers/STM32F7xx_HAL_Driver/Src/stm32f7xx_ll_sdmmc.c **** uint32_t SDMMC_CmdBusWidth(SDMMC_TypeDef *SDMMCx, uint32_t BusWidth)
 914:Drivers/STM32F7xx_HAL_Driver/Src/stm32f7xx_ll_sdmmc.c **** {
 915:Drivers/STM32F7xx_HAL_Driver/Src/stm32f7xx_ll_sdmmc.c ****   SDMMC_CmdInitTypeDef  sdmmc_cmdinit;
 916:Drivers/STM32F7xx_HAL_Driver/Src/stm32f7xx_ll_sdmmc.c ****   uint32_t errorstate;
 917:Drivers/STM32F7xx_HAL_Driver/Src/stm32f7xx_ll_sdmmc.c ****   
 918:Drivers/STM32F7xx_HAL_Driver/Src/stm32f7xx_ll_sdmmc.c ****   sdmmc_cmdinit.Argument         = (uint32_t)BusWidth;
 919:Drivers/STM32F7xx_HAL_Driver/Src/stm32f7xx_ll_sdmmc.c ****   sdmmc_cmdinit.CmdIndex         = SDMMC_CMD_APP_SD_SET_BUSWIDTH;
 920:Drivers/STM32F7xx_HAL_Driver/Src/stm32f7xx_ll_sdmmc.c ****   sdmmc_cmdinit.Response         = SDMMC_RESPONSE_SHORT;
 921:Drivers/STM32F7xx_HAL_Driver/Src/stm32f7xx_ll_sdmmc.c ****   sdmmc_cmdinit.WaitForInterrupt = SDMMC_WAIT_NO;
 922:Drivers/STM32F7xx_HAL_Driver/Src/stm32f7xx_ll_sdmmc.c ****   sdmmc_cmdinit.CPSM             = SDMMC_CPSM_ENABLE;
 923:Drivers/STM32F7xx_HAL_Driver/Src/stm32f7xx_ll_sdmmc.c ****   (void)SDMMC_SendCommand(SDMMCx, &sdmmc_cmdinit);
 924:Drivers/STM32F7xx_HAL_Driver/Src/stm32f7xx_ll_sdmmc.c ****   
 925:Drivers/STM32F7xx_HAL_Driver/Src/stm32f7xx_ll_sdmmc.c ****   /* Check for error conditions */
 926:Drivers/STM32F7xx_HAL_Driver/Src/stm32f7xx_ll_sdmmc.c ****   errorstate = SDMMC_GetCmdResp1(SDMMCx, SDMMC_CMD_APP_SD_SET_BUSWIDTH, SDMMC_CMDTIMEOUT);
 927:Drivers/STM32F7xx_HAL_Driver/Src/stm32f7xx_ll_sdmmc.c **** 
 928:Drivers/STM32F7xx_HAL_Driver/Src/stm32f7xx_ll_sdmmc.c ****   return errorstate;
 929:Drivers/STM32F7xx_HAL_Driver/Src/stm32f7xx_ll_sdmmc.c **** }
 930:Drivers/STM32F7xx_HAL_Driver/Src/stm32f7xx_ll_sdmmc.c **** 
 931:Drivers/STM32F7xx_HAL_Driver/Src/stm32f7xx_ll_sdmmc.c **** /**
 932:Drivers/STM32F7xx_HAL_Driver/Src/stm32f7xx_ll_sdmmc.c ****   * @brief  Send the Send SCR command and check the response.
 933:Drivers/STM32F7xx_HAL_Driver/Src/stm32f7xx_ll_sdmmc.c ****   * @param  SDMMCx: Pointer to SDMMC register base 
 934:Drivers/STM32F7xx_HAL_Driver/Src/stm32f7xx_ll_sdmmc.c ****   * @retval HAL status
 935:Drivers/STM32F7xx_HAL_Driver/Src/stm32f7xx_ll_sdmmc.c ****   */
 936:Drivers/STM32F7xx_HAL_Driver/Src/stm32f7xx_ll_sdmmc.c **** uint32_t SDMMC_CmdSendSCR(SDMMC_TypeDef *SDMMCx)
 937:Drivers/STM32F7xx_HAL_Driver/Src/stm32f7xx_ll_sdmmc.c **** {
 938:Drivers/STM32F7xx_HAL_Driver/Src/stm32f7xx_ll_sdmmc.c ****   SDMMC_CmdInitTypeDef  sdmmc_cmdinit;
 939:Drivers/STM32F7xx_HAL_Driver/Src/stm32f7xx_ll_sdmmc.c ****   uint32_t errorstate;
 940:Drivers/STM32F7xx_HAL_Driver/Src/stm32f7xx_ll_sdmmc.c ****   
 941:Drivers/STM32F7xx_HAL_Driver/Src/stm32f7xx_ll_sdmmc.c ****   /* Send CMD51 SD_APP_SEND_SCR */
 942:Drivers/STM32F7xx_HAL_Driver/Src/stm32f7xx_ll_sdmmc.c ****   sdmmc_cmdinit.Argument         = 0U;
 943:Drivers/STM32F7xx_HAL_Driver/Src/stm32f7xx_ll_sdmmc.c ****   sdmmc_cmdinit.CmdIndex         = SDMMC_CMD_SD_APP_SEND_SCR;
 944:Drivers/STM32F7xx_HAL_Driver/Src/stm32f7xx_ll_sdmmc.c ****   sdmmc_cmdinit.Response         = SDMMC_RESPONSE_SHORT;
ARM GAS  /tmp/ccxJPvV1.s 			page 18


 945:Drivers/STM32F7xx_HAL_Driver/Src/stm32f7xx_ll_sdmmc.c ****   sdmmc_cmdinit.WaitForInterrupt = SDMMC_WAIT_NO;
 946:Drivers/STM32F7xx_HAL_Driver/Src/stm32f7xx_ll_sdmmc.c ****   sdmmc_cmdinit.CPSM             = SDMMC_CPSM_ENABLE;
 947:Drivers/STM32F7xx_HAL_Driver/Src/stm32f7xx_ll_sdmmc.c ****   (void)SDMMC_SendCommand(SDMMCx, &sdmmc_cmdinit);
 948:Drivers/STM32F7xx_HAL_Driver/Src/stm32f7xx_ll_sdmmc.c ****   
 949:Drivers/STM32F7xx_HAL_Driver/Src/stm32f7xx_ll_sdmmc.c ****   /* Check for error conditions */
 950:Drivers/STM32F7xx_HAL_Driver/Src/stm32f7xx_ll_sdmmc.c ****   errorstate = SDMMC_GetCmdResp1(SDMMCx, SDMMC_CMD_SD_APP_SEND_SCR, SDMMC_CMDTIMEOUT);
 951:Drivers/STM32F7xx_HAL_Driver/Src/stm32f7xx_ll_sdmmc.c **** 
 952:Drivers/STM32F7xx_HAL_Driver/Src/stm32f7xx_ll_sdmmc.c ****   return errorstate;
 953:Drivers/STM32F7xx_HAL_Driver/Src/stm32f7xx_ll_sdmmc.c **** }
 954:Drivers/STM32F7xx_HAL_Driver/Src/stm32f7xx_ll_sdmmc.c **** 
 955:Drivers/STM32F7xx_HAL_Driver/Src/stm32f7xx_ll_sdmmc.c **** /**
 956:Drivers/STM32F7xx_HAL_Driver/Src/stm32f7xx_ll_sdmmc.c ****   * @brief  Send the Send CID command and check the response.
 957:Drivers/STM32F7xx_HAL_Driver/Src/stm32f7xx_ll_sdmmc.c ****   * @param  SDMMCx: Pointer to SDMMC register base 
 958:Drivers/STM32F7xx_HAL_Driver/Src/stm32f7xx_ll_sdmmc.c ****   * @retval HAL status
 959:Drivers/STM32F7xx_HAL_Driver/Src/stm32f7xx_ll_sdmmc.c ****   */
 960:Drivers/STM32F7xx_HAL_Driver/Src/stm32f7xx_ll_sdmmc.c **** uint32_t SDMMC_CmdSendCID(SDMMC_TypeDef *SDMMCx)
 961:Drivers/STM32F7xx_HAL_Driver/Src/stm32f7xx_ll_sdmmc.c **** {
 962:Drivers/STM32F7xx_HAL_Driver/Src/stm32f7xx_ll_sdmmc.c ****   SDMMC_CmdInitTypeDef  sdmmc_cmdinit;
 963:Drivers/STM32F7xx_HAL_Driver/Src/stm32f7xx_ll_sdmmc.c ****   uint32_t errorstate;
 964:Drivers/STM32F7xx_HAL_Driver/Src/stm32f7xx_ll_sdmmc.c ****   
 965:Drivers/STM32F7xx_HAL_Driver/Src/stm32f7xx_ll_sdmmc.c ****   /* Send CMD2 ALL_SEND_CID */
 966:Drivers/STM32F7xx_HAL_Driver/Src/stm32f7xx_ll_sdmmc.c ****   sdmmc_cmdinit.Argument         = 0U;
 967:Drivers/STM32F7xx_HAL_Driver/Src/stm32f7xx_ll_sdmmc.c ****   sdmmc_cmdinit.CmdIndex         = SDMMC_CMD_ALL_SEND_CID;
 968:Drivers/STM32F7xx_HAL_Driver/Src/stm32f7xx_ll_sdmmc.c ****   sdmmc_cmdinit.Response         = SDMMC_RESPONSE_LONG;
 969:Drivers/STM32F7xx_HAL_Driver/Src/stm32f7xx_ll_sdmmc.c ****   sdmmc_cmdinit.WaitForInterrupt = SDMMC_WAIT_NO;
 970:Drivers/STM32F7xx_HAL_Driver/Src/stm32f7xx_ll_sdmmc.c ****   sdmmc_cmdinit.CPSM             = SDMMC_CPSM_ENABLE;
 971:Drivers/STM32F7xx_HAL_Driver/Src/stm32f7xx_ll_sdmmc.c ****   (void)SDMMC_SendCommand(SDMMCx, &sdmmc_cmdinit);
 972:Drivers/STM32F7xx_HAL_Driver/Src/stm32f7xx_ll_sdmmc.c ****   
 973:Drivers/STM32F7xx_HAL_Driver/Src/stm32f7xx_ll_sdmmc.c ****   /* Check for error conditions */
 974:Drivers/STM32F7xx_HAL_Driver/Src/stm32f7xx_ll_sdmmc.c ****   errorstate = SDMMC_GetCmdResp2(SDMMCx);
 975:Drivers/STM32F7xx_HAL_Driver/Src/stm32f7xx_ll_sdmmc.c **** 
 976:Drivers/STM32F7xx_HAL_Driver/Src/stm32f7xx_ll_sdmmc.c ****   return errorstate;
 977:Drivers/STM32F7xx_HAL_Driver/Src/stm32f7xx_ll_sdmmc.c **** }
 978:Drivers/STM32F7xx_HAL_Driver/Src/stm32f7xx_ll_sdmmc.c **** 
 979:Drivers/STM32F7xx_HAL_Driver/Src/stm32f7xx_ll_sdmmc.c **** /**
 980:Drivers/STM32F7xx_HAL_Driver/Src/stm32f7xx_ll_sdmmc.c ****   * @brief  Send the Send CSD command and check the response.
 981:Drivers/STM32F7xx_HAL_Driver/Src/stm32f7xx_ll_sdmmc.c ****   * @param  SDMMCx: Pointer to SDMMC register base 
 982:Drivers/STM32F7xx_HAL_Driver/Src/stm32f7xx_ll_sdmmc.c ****   * @param  Argument: Command Argument
 983:Drivers/STM32F7xx_HAL_Driver/Src/stm32f7xx_ll_sdmmc.c ****   * @retval HAL status
 984:Drivers/STM32F7xx_HAL_Driver/Src/stm32f7xx_ll_sdmmc.c ****   */
 985:Drivers/STM32F7xx_HAL_Driver/Src/stm32f7xx_ll_sdmmc.c **** uint32_t SDMMC_CmdSendCSD(SDMMC_TypeDef *SDMMCx, uint32_t Argument)
 986:Drivers/STM32F7xx_HAL_Driver/Src/stm32f7xx_ll_sdmmc.c **** {
 987:Drivers/STM32F7xx_HAL_Driver/Src/stm32f7xx_ll_sdmmc.c ****   SDMMC_CmdInitTypeDef  sdmmc_cmdinit;
 988:Drivers/STM32F7xx_HAL_Driver/Src/stm32f7xx_ll_sdmmc.c ****   uint32_t errorstate;
 989:Drivers/STM32F7xx_HAL_Driver/Src/stm32f7xx_ll_sdmmc.c ****   
 990:Drivers/STM32F7xx_HAL_Driver/Src/stm32f7xx_ll_sdmmc.c ****   /* Send CMD9 SEND_CSD */
 991:Drivers/STM32F7xx_HAL_Driver/Src/stm32f7xx_ll_sdmmc.c ****   sdmmc_cmdinit.Argument         = Argument;
 992:Drivers/STM32F7xx_HAL_Driver/Src/stm32f7xx_ll_sdmmc.c ****   sdmmc_cmdinit.CmdIndex         = SDMMC_CMD_SEND_CSD;
 993:Drivers/STM32F7xx_HAL_Driver/Src/stm32f7xx_ll_sdmmc.c ****   sdmmc_cmdinit.Response         = SDMMC_RESPONSE_LONG;
 994:Drivers/STM32F7xx_HAL_Driver/Src/stm32f7xx_ll_sdmmc.c ****   sdmmc_cmdinit.WaitForInterrupt = SDMMC_WAIT_NO;
 995:Drivers/STM32F7xx_HAL_Driver/Src/stm32f7xx_ll_sdmmc.c ****   sdmmc_cmdinit.CPSM             = SDMMC_CPSM_ENABLE;
 996:Drivers/STM32F7xx_HAL_Driver/Src/stm32f7xx_ll_sdmmc.c ****   (void)SDMMC_SendCommand(SDMMCx, &sdmmc_cmdinit);
 997:Drivers/STM32F7xx_HAL_Driver/Src/stm32f7xx_ll_sdmmc.c ****   
 998:Drivers/STM32F7xx_HAL_Driver/Src/stm32f7xx_ll_sdmmc.c ****   /* Check for error conditions */
 999:Drivers/STM32F7xx_HAL_Driver/Src/stm32f7xx_ll_sdmmc.c ****   errorstate = SDMMC_GetCmdResp2(SDMMCx);
1000:Drivers/STM32F7xx_HAL_Driver/Src/stm32f7xx_ll_sdmmc.c **** 
1001:Drivers/STM32F7xx_HAL_Driver/Src/stm32f7xx_ll_sdmmc.c ****   return errorstate;
ARM GAS  /tmp/ccxJPvV1.s 			page 19


1002:Drivers/STM32F7xx_HAL_Driver/Src/stm32f7xx_ll_sdmmc.c **** }
1003:Drivers/STM32F7xx_HAL_Driver/Src/stm32f7xx_ll_sdmmc.c **** 
1004:Drivers/STM32F7xx_HAL_Driver/Src/stm32f7xx_ll_sdmmc.c **** /**
1005:Drivers/STM32F7xx_HAL_Driver/Src/stm32f7xx_ll_sdmmc.c ****   * @brief  Send the Send CSD command and check the response.
1006:Drivers/STM32F7xx_HAL_Driver/Src/stm32f7xx_ll_sdmmc.c ****   * @param  SDMMCx: Pointer to SDMMC register base 
1007:Drivers/STM32F7xx_HAL_Driver/Src/stm32f7xx_ll_sdmmc.c ****   * @param  pRCA: Card RCA  
1008:Drivers/STM32F7xx_HAL_Driver/Src/stm32f7xx_ll_sdmmc.c ****   * @retval HAL status
1009:Drivers/STM32F7xx_HAL_Driver/Src/stm32f7xx_ll_sdmmc.c ****   */
1010:Drivers/STM32F7xx_HAL_Driver/Src/stm32f7xx_ll_sdmmc.c **** uint32_t SDMMC_CmdSetRelAdd(SDMMC_TypeDef *SDMMCx, uint16_t *pRCA)
1011:Drivers/STM32F7xx_HAL_Driver/Src/stm32f7xx_ll_sdmmc.c **** {
1012:Drivers/STM32F7xx_HAL_Driver/Src/stm32f7xx_ll_sdmmc.c ****   SDMMC_CmdInitTypeDef  sdmmc_cmdinit;
1013:Drivers/STM32F7xx_HAL_Driver/Src/stm32f7xx_ll_sdmmc.c ****   uint32_t errorstate;
1014:Drivers/STM32F7xx_HAL_Driver/Src/stm32f7xx_ll_sdmmc.c ****   
1015:Drivers/STM32F7xx_HAL_Driver/Src/stm32f7xx_ll_sdmmc.c ****   /* Send CMD3 SD_CMD_SET_REL_ADDR */
1016:Drivers/STM32F7xx_HAL_Driver/Src/stm32f7xx_ll_sdmmc.c ****   sdmmc_cmdinit.Argument         = 0U;
1017:Drivers/STM32F7xx_HAL_Driver/Src/stm32f7xx_ll_sdmmc.c ****   sdmmc_cmdinit.CmdIndex         = SDMMC_CMD_SET_REL_ADDR;
1018:Drivers/STM32F7xx_HAL_Driver/Src/stm32f7xx_ll_sdmmc.c ****   sdmmc_cmdinit.Response         = SDMMC_RESPONSE_SHORT;
1019:Drivers/STM32F7xx_HAL_Driver/Src/stm32f7xx_ll_sdmmc.c ****   sdmmc_cmdinit.WaitForInterrupt = SDMMC_WAIT_NO;
1020:Drivers/STM32F7xx_HAL_Driver/Src/stm32f7xx_ll_sdmmc.c ****   sdmmc_cmdinit.CPSM             = SDMMC_CPSM_ENABLE;
1021:Drivers/STM32F7xx_HAL_Driver/Src/stm32f7xx_ll_sdmmc.c ****   (void)SDMMC_SendCommand(SDMMCx, &sdmmc_cmdinit);
1022:Drivers/STM32F7xx_HAL_Driver/Src/stm32f7xx_ll_sdmmc.c ****   
1023:Drivers/STM32F7xx_HAL_Driver/Src/stm32f7xx_ll_sdmmc.c ****   /* Check for error conditions */
1024:Drivers/STM32F7xx_HAL_Driver/Src/stm32f7xx_ll_sdmmc.c ****   errorstate = SDMMC_GetCmdResp6(SDMMCx, SDMMC_CMD_SET_REL_ADDR, pRCA);
1025:Drivers/STM32F7xx_HAL_Driver/Src/stm32f7xx_ll_sdmmc.c **** 
1026:Drivers/STM32F7xx_HAL_Driver/Src/stm32f7xx_ll_sdmmc.c ****   return errorstate;
1027:Drivers/STM32F7xx_HAL_Driver/Src/stm32f7xx_ll_sdmmc.c **** }
1028:Drivers/STM32F7xx_HAL_Driver/Src/stm32f7xx_ll_sdmmc.c **** 
1029:Drivers/STM32F7xx_HAL_Driver/Src/stm32f7xx_ll_sdmmc.c **** /**
1030:Drivers/STM32F7xx_HAL_Driver/Src/stm32f7xx_ll_sdmmc.c ****   * @brief  Send the Status command and check the response.
1031:Drivers/STM32F7xx_HAL_Driver/Src/stm32f7xx_ll_sdmmc.c ****   * @param  SDMMCx: Pointer to SDMMC register base 
1032:Drivers/STM32F7xx_HAL_Driver/Src/stm32f7xx_ll_sdmmc.c ****   * @param  Argument: Command Argument
1033:Drivers/STM32F7xx_HAL_Driver/Src/stm32f7xx_ll_sdmmc.c ****   * @retval HAL status
1034:Drivers/STM32F7xx_HAL_Driver/Src/stm32f7xx_ll_sdmmc.c ****   */
1035:Drivers/STM32F7xx_HAL_Driver/Src/stm32f7xx_ll_sdmmc.c **** uint32_t SDMMC_CmdSendStatus(SDMMC_TypeDef *SDMMCx, uint32_t Argument)
1036:Drivers/STM32F7xx_HAL_Driver/Src/stm32f7xx_ll_sdmmc.c **** {
1037:Drivers/STM32F7xx_HAL_Driver/Src/stm32f7xx_ll_sdmmc.c ****   SDMMC_CmdInitTypeDef  sdmmc_cmdinit;
1038:Drivers/STM32F7xx_HAL_Driver/Src/stm32f7xx_ll_sdmmc.c ****   uint32_t errorstate;
1039:Drivers/STM32F7xx_HAL_Driver/Src/stm32f7xx_ll_sdmmc.c ****   
1040:Drivers/STM32F7xx_HAL_Driver/Src/stm32f7xx_ll_sdmmc.c ****   sdmmc_cmdinit.Argument         = Argument;
1041:Drivers/STM32F7xx_HAL_Driver/Src/stm32f7xx_ll_sdmmc.c ****   sdmmc_cmdinit.CmdIndex         = SDMMC_CMD_SEND_STATUS;
1042:Drivers/STM32F7xx_HAL_Driver/Src/stm32f7xx_ll_sdmmc.c ****   sdmmc_cmdinit.Response         = SDMMC_RESPONSE_SHORT;
1043:Drivers/STM32F7xx_HAL_Driver/Src/stm32f7xx_ll_sdmmc.c ****   sdmmc_cmdinit.WaitForInterrupt = SDMMC_WAIT_NO;
1044:Drivers/STM32F7xx_HAL_Driver/Src/stm32f7xx_ll_sdmmc.c ****   sdmmc_cmdinit.CPSM             = SDMMC_CPSM_ENABLE;
1045:Drivers/STM32F7xx_HAL_Driver/Src/stm32f7xx_ll_sdmmc.c ****   (void)SDMMC_SendCommand(SDMMCx, &sdmmc_cmdinit);
1046:Drivers/STM32F7xx_HAL_Driver/Src/stm32f7xx_ll_sdmmc.c ****   
1047:Drivers/STM32F7xx_HAL_Driver/Src/stm32f7xx_ll_sdmmc.c ****   /* Check for error conditions */
1048:Drivers/STM32F7xx_HAL_Driver/Src/stm32f7xx_ll_sdmmc.c ****   errorstate = SDMMC_GetCmdResp1(SDMMCx, SDMMC_CMD_SEND_STATUS, SDMMC_CMDTIMEOUT);
1049:Drivers/STM32F7xx_HAL_Driver/Src/stm32f7xx_ll_sdmmc.c **** 
1050:Drivers/STM32F7xx_HAL_Driver/Src/stm32f7xx_ll_sdmmc.c ****   return errorstate;
1051:Drivers/STM32F7xx_HAL_Driver/Src/stm32f7xx_ll_sdmmc.c **** }
1052:Drivers/STM32F7xx_HAL_Driver/Src/stm32f7xx_ll_sdmmc.c **** 
1053:Drivers/STM32F7xx_HAL_Driver/Src/stm32f7xx_ll_sdmmc.c **** /**
1054:Drivers/STM32F7xx_HAL_Driver/Src/stm32f7xx_ll_sdmmc.c ****   * @brief  Send the Status register command and check the response.
1055:Drivers/STM32F7xx_HAL_Driver/Src/stm32f7xx_ll_sdmmc.c ****   * @param  SDMMCx: Pointer to SDMMC register base 
1056:Drivers/STM32F7xx_HAL_Driver/Src/stm32f7xx_ll_sdmmc.c ****   * @retval HAL status
1057:Drivers/STM32F7xx_HAL_Driver/Src/stm32f7xx_ll_sdmmc.c ****   */
1058:Drivers/STM32F7xx_HAL_Driver/Src/stm32f7xx_ll_sdmmc.c **** uint32_t SDMMC_CmdStatusRegister(SDMMC_TypeDef *SDMMCx)
ARM GAS  /tmp/ccxJPvV1.s 			page 20


1059:Drivers/STM32F7xx_HAL_Driver/Src/stm32f7xx_ll_sdmmc.c **** {
1060:Drivers/STM32F7xx_HAL_Driver/Src/stm32f7xx_ll_sdmmc.c ****   SDMMC_CmdInitTypeDef  sdmmc_cmdinit;
1061:Drivers/STM32F7xx_HAL_Driver/Src/stm32f7xx_ll_sdmmc.c ****   uint32_t errorstate;
1062:Drivers/STM32F7xx_HAL_Driver/Src/stm32f7xx_ll_sdmmc.c ****   
1063:Drivers/STM32F7xx_HAL_Driver/Src/stm32f7xx_ll_sdmmc.c ****   sdmmc_cmdinit.Argument         = 0U;
1064:Drivers/STM32F7xx_HAL_Driver/Src/stm32f7xx_ll_sdmmc.c ****   sdmmc_cmdinit.CmdIndex         = SDMMC_CMD_SD_APP_STATUS;
1065:Drivers/STM32F7xx_HAL_Driver/Src/stm32f7xx_ll_sdmmc.c ****   sdmmc_cmdinit.Response         = SDMMC_RESPONSE_SHORT;
1066:Drivers/STM32F7xx_HAL_Driver/Src/stm32f7xx_ll_sdmmc.c ****   sdmmc_cmdinit.WaitForInterrupt = SDMMC_WAIT_NO;
1067:Drivers/STM32F7xx_HAL_Driver/Src/stm32f7xx_ll_sdmmc.c ****   sdmmc_cmdinit.CPSM             = SDMMC_CPSM_ENABLE;
1068:Drivers/STM32F7xx_HAL_Driver/Src/stm32f7xx_ll_sdmmc.c ****   (void)SDMMC_SendCommand(SDMMCx, &sdmmc_cmdinit);
1069:Drivers/STM32F7xx_HAL_Driver/Src/stm32f7xx_ll_sdmmc.c ****   
1070:Drivers/STM32F7xx_HAL_Driver/Src/stm32f7xx_ll_sdmmc.c ****   /* Check for error conditions */
1071:Drivers/STM32F7xx_HAL_Driver/Src/stm32f7xx_ll_sdmmc.c ****   errorstate = SDMMC_GetCmdResp1(SDMMCx, SDMMC_CMD_SD_APP_STATUS, SDMMC_CMDTIMEOUT);
1072:Drivers/STM32F7xx_HAL_Driver/Src/stm32f7xx_ll_sdmmc.c **** 
1073:Drivers/STM32F7xx_HAL_Driver/Src/stm32f7xx_ll_sdmmc.c ****   return errorstate;
1074:Drivers/STM32F7xx_HAL_Driver/Src/stm32f7xx_ll_sdmmc.c **** }
1075:Drivers/STM32F7xx_HAL_Driver/Src/stm32f7xx_ll_sdmmc.c **** 
1076:Drivers/STM32F7xx_HAL_Driver/Src/stm32f7xx_ll_sdmmc.c **** /**
1077:Drivers/STM32F7xx_HAL_Driver/Src/stm32f7xx_ll_sdmmc.c ****   * @brief  Sends host capacity support information and activates the card's 
1078:Drivers/STM32F7xx_HAL_Driver/Src/stm32f7xx_ll_sdmmc.c ****   *         initialization process. Send SDMMC_CMD_SEND_OP_COND command
1079:Drivers/STM32F7xx_HAL_Driver/Src/stm32f7xx_ll_sdmmc.c ****   * @param  SDMMCx: Pointer to SDMMC register base 
1080:Drivers/STM32F7xx_HAL_Driver/Src/stm32f7xx_ll_sdmmc.c ****   * @parame Argument: Argument used for the command
1081:Drivers/STM32F7xx_HAL_Driver/Src/stm32f7xx_ll_sdmmc.c ****   * @retval HAL status
1082:Drivers/STM32F7xx_HAL_Driver/Src/stm32f7xx_ll_sdmmc.c ****   */
1083:Drivers/STM32F7xx_HAL_Driver/Src/stm32f7xx_ll_sdmmc.c **** uint32_t SDMMC_CmdOpCondition(SDMMC_TypeDef *SDMMCx, uint32_t Argument)
1084:Drivers/STM32F7xx_HAL_Driver/Src/stm32f7xx_ll_sdmmc.c **** {
1085:Drivers/STM32F7xx_HAL_Driver/Src/stm32f7xx_ll_sdmmc.c ****   SDMMC_CmdInitTypeDef  sdmmc_cmdinit;
1086:Drivers/STM32F7xx_HAL_Driver/Src/stm32f7xx_ll_sdmmc.c ****   uint32_t errorstate;
1087:Drivers/STM32F7xx_HAL_Driver/Src/stm32f7xx_ll_sdmmc.c ****   
1088:Drivers/STM32F7xx_HAL_Driver/Src/stm32f7xx_ll_sdmmc.c ****   sdmmc_cmdinit.Argument         = Argument;
1089:Drivers/STM32F7xx_HAL_Driver/Src/stm32f7xx_ll_sdmmc.c ****   sdmmc_cmdinit.CmdIndex         = SDMMC_CMD_SEND_OP_COND;
1090:Drivers/STM32F7xx_HAL_Driver/Src/stm32f7xx_ll_sdmmc.c ****   sdmmc_cmdinit.Response         = SDMMC_RESPONSE_SHORT;
1091:Drivers/STM32F7xx_HAL_Driver/Src/stm32f7xx_ll_sdmmc.c ****   sdmmc_cmdinit.WaitForInterrupt = SDMMC_WAIT_NO;
1092:Drivers/STM32F7xx_HAL_Driver/Src/stm32f7xx_ll_sdmmc.c ****   sdmmc_cmdinit.CPSM             = SDMMC_CPSM_ENABLE;
1093:Drivers/STM32F7xx_HAL_Driver/Src/stm32f7xx_ll_sdmmc.c ****   (void)SDMMC_SendCommand(SDMMCx, &sdmmc_cmdinit);
1094:Drivers/STM32F7xx_HAL_Driver/Src/stm32f7xx_ll_sdmmc.c ****   
1095:Drivers/STM32F7xx_HAL_Driver/Src/stm32f7xx_ll_sdmmc.c ****   /* Check for error conditions */
1096:Drivers/STM32F7xx_HAL_Driver/Src/stm32f7xx_ll_sdmmc.c ****   errorstate = SDMMC_GetCmdResp3(SDMMCx);
1097:Drivers/STM32F7xx_HAL_Driver/Src/stm32f7xx_ll_sdmmc.c **** 
1098:Drivers/STM32F7xx_HAL_Driver/Src/stm32f7xx_ll_sdmmc.c ****   return errorstate;
1099:Drivers/STM32F7xx_HAL_Driver/Src/stm32f7xx_ll_sdmmc.c **** }
1100:Drivers/STM32F7xx_HAL_Driver/Src/stm32f7xx_ll_sdmmc.c **** 
1101:Drivers/STM32F7xx_HAL_Driver/Src/stm32f7xx_ll_sdmmc.c **** /**
1102:Drivers/STM32F7xx_HAL_Driver/Src/stm32f7xx_ll_sdmmc.c ****   * @brief  Checks switchable function and switch card function. SDMMC_CMD_HS_SWITCH comand
1103:Drivers/STM32F7xx_HAL_Driver/Src/stm32f7xx_ll_sdmmc.c ****   * @param  SDMMCx: Pointer to SDMMC register base 
1104:Drivers/STM32F7xx_HAL_Driver/Src/stm32f7xx_ll_sdmmc.c ****   * @parame Argument: Argument used for the command
1105:Drivers/STM32F7xx_HAL_Driver/Src/stm32f7xx_ll_sdmmc.c ****   * @retval HAL status
1106:Drivers/STM32F7xx_HAL_Driver/Src/stm32f7xx_ll_sdmmc.c ****   */
1107:Drivers/STM32F7xx_HAL_Driver/Src/stm32f7xx_ll_sdmmc.c **** uint32_t SDMMC_CmdSwitch(SDMMC_TypeDef *SDMMCx, uint32_t Argument)
1108:Drivers/STM32F7xx_HAL_Driver/Src/stm32f7xx_ll_sdmmc.c **** {
1109:Drivers/STM32F7xx_HAL_Driver/Src/stm32f7xx_ll_sdmmc.c ****   SDMMC_CmdInitTypeDef  sdmmc_cmdinit;
1110:Drivers/STM32F7xx_HAL_Driver/Src/stm32f7xx_ll_sdmmc.c ****   uint32_t errorstate;
1111:Drivers/STM32F7xx_HAL_Driver/Src/stm32f7xx_ll_sdmmc.c ****   
1112:Drivers/STM32F7xx_HAL_Driver/Src/stm32f7xx_ll_sdmmc.c ****   /* Send CMD6 to activate SDR50 Mode and Power Limit 1.44W */
1113:Drivers/STM32F7xx_HAL_Driver/Src/stm32f7xx_ll_sdmmc.c ****   /* CMD Response: R1 */
1114:Drivers/STM32F7xx_HAL_Driver/Src/stm32f7xx_ll_sdmmc.c ****   sdmmc_cmdinit.Argument         = Argument; /* SDMMC_SDR25_SWITCH_PATTERN */
1115:Drivers/STM32F7xx_HAL_Driver/Src/stm32f7xx_ll_sdmmc.c ****   sdmmc_cmdinit.CmdIndex         = SDMMC_CMD_HS_SWITCH;
ARM GAS  /tmp/ccxJPvV1.s 			page 21


1116:Drivers/STM32F7xx_HAL_Driver/Src/stm32f7xx_ll_sdmmc.c ****   sdmmc_cmdinit.Response         = SDMMC_RESPONSE_SHORT;
1117:Drivers/STM32F7xx_HAL_Driver/Src/stm32f7xx_ll_sdmmc.c ****   sdmmc_cmdinit.WaitForInterrupt = SDMMC_WAIT_NO;
1118:Drivers/STM32F7xx_HAL_Driver/Src/stm32f7xx_ll_sdmmc.c ****   sdmmc_cmdinit.CPSM             = SDMMC_CPSM_ENABLE;
1119:Drivers/STM32F7xx_HAL_Driver/Src/stm32f7xx_ll_sdmmc.c ****   (void)SDMMC_SendCommand(SDMMCx, &sdmmc_cmdinit);
1120:Drivers/STM32F7xx_HAL_Driver/Src/stm32f7xx_ll_sdmmc.c ****   
1121:Drivers/STM32F7xx_HAL_Driver/Src/stm32f7xx_ll_sdmmc.c ****   /* Check for error conditions */
1122:Drivers/STM32F7xx_HAL_Driver/Src/stm32f7xx_ll_sdmmc.c ****   errorstate = SDMMC_GetCmdResp1(SDMMCx, SDMMC_CMD_HS_SWITCH, SDMMC_CMDTIMEOUT);
1123:Drivers/STM32F7xx_HAL_Driver/Src/stm32f7xx_ll_sdmmc.c **** 
1124:Drivers/STM32F7xx_HAL_Driver/Src/stm32f7xx_ll_sdmmc.c ****   return errorstate;
1125:Drivers/STM32F7xx_HAL_Driver/Src/stm32f7xx_ll_sdmmc.c **** }
1126:Drivers/STM32F7xx_HAL_Driver/Src/stm32f7xx_ll_sdmmc.c **** 
1127:Drivers/STM32F7xx_HAL_Driver/Src/stm32f7xx_ll_sdmmc.c **** /**
1128:Drivers/STM32F7xx_HAL_Driver/Src/stm32f7xx_ll_sdmmc.c ****   * @}
1129:Drivers/STM32F7xx_HAL_Driver/Src/stm32f7xx_ll_sdmmc.c ****   */
1130:Drivers/STM32F7xx_HAL_Driver/Src/stm32f7xx_ll_sdmmc.c **** 
1131:Drivers/STM32F7xx_HAL_Driver/Src/stm32f7xx_ll_sdmmc.c **** /* Private function ----------------------------------------------------------*/  
1132:Drivers/STM32F7xx_HAL_Driver/Src/stm32f7xx_ll_sdmmc.c **** /** @addtogroup SD_Private_Functions
1133:Drivers/STM32F7xx_HAL_Driver/Src/stm32f7xx_ll_sdmmc.c ****   * @{
1134:Drivers/STM32F7xx_HAL_Driver/Src/stm32f7xx_ll_sdmmc.c ****   */
1135:Drivers/STM32F7xx_HAL_Driver/Src/stm32f7xx_ll_sdmmc.c ****     
1136:Drivers/STM32F7xx_HAL_Driver/Src/stm32f7xx_ll_sdmmc.c **** /**
1137:Drivers/STM32F7xx_HAL_Driver/Src/stm32f7xx_ll_sdmmc.c ****   * @brief  Checks for error conditions for CMD0.
1138:Drivers/STM32F7xx_HAL_Driver/Src/stm32f7xx_ll_sdmmc.c ****   * @param  hsd: SD handle
1139:Drivers/STM32F7xx_HAL_Driver/Src/stm32f7xx_ll_sdmmc.c ****   * @retval SD Card error state
1140:Drivers/STM32F7xx_HAL_Driver/Src/stm32f7xx_ll_sdmmc.c ****   */
1141:Drivers/STM32F7xx_HAL_Driver/Src/stm32f7xx_ll_sdmmc.c **** static uint32_t SDMMC_GetCmdError(SDMMC_TypeDef *SDMMCx)
1142:Drivers/STM32F7xx_HAL_Driver/Src/stm32f7xx_ll_sdmmc.c **** {
  27              		.loc 1 1142 0
  28              		.cfi_startproc
  29              		@ args = 0, pretend = 0, frame = 0
  30              		@ frame_needed = 0, uses_anonymous_args = 0
  31              		@ link register save eliminated.
  32              	.LVL0:
1143:Drivers/STM32F7xx_HAL_Driver/Src/stm32f7xx_ll_sdmmc.c ****   /* 8 is the number of required instructions cycles for the below loop statement.
1144:Drivers/STM32F7xx_HAL_Driver/Src/stm32f7xx_ll_sdmmc.c ****   The SDMMC_CMDTIMEOUT is expressed in ms */
1145:Drivers/STM32F7xx_HAL_Driver/Src/stm32f7xx_ll_sdmmc.c ****   register uint32_t count = SDMMC_CMDTIMEOUT * (SystemCoreClock / 8U /1000U);
  33              		.loc 1 1145 0
  34 0000 0B4B     		ldr	r3, .L5
  35 0002 1B68     		ldr	r3, [r3]
  36 0004 0B4A     		ldr	r2, .L5+4
  37 0006 A2FB0323 		umull	r2, r3, r2, r3
  38 000a 5A0A     		lsrs	r2, r3, #9
  39 000c 41F28833 		movw	r3, #5000
  40 0010 03FB02F3 		mul	r3, r3, r2
  41              	.LVL1:
  42              	.L3:
1146:Drivers/STM32F7xx_HAL_Driver/Src/stm32f7xx_ll_sdmmc.c ****   
1147:Drivers/STM32F7xx_HAL_Driver/Src/stm32f7xx_ll_sdmmc.c ****   do
1148:Drivers/STM32F7xx_HAL_Driver/Src/stm32f7xx_ll_sdmmc.c ****   {
1149:Drivers/STM32F7xx_HAL_Driver/Src/stm32f7xx_ll_sdmmc.c ****     if (count-- == 0U)
  43              		.loc 1 1149 0
  44 0014 5A1E     		subs	r2, r3, #1
  45              	.LVL2:
  46 0016 43B1     		cbz	r3, .L4
1150:Drivers/STM32F7xx_HAL_Driver/Src/stm32f7xx_ll_sdmmc.c ****     {
1151:Drivers/STM32F7xx_HAL_Driver/Src/stm32f7xx_ll_sdmmc.c ****       return SDMMC_ERROR_TIMEOUT;
1152:Drivers/STM32F7xx_HAL_Driver/Src/stm32f7xx_ll_sdmmc.c ****     }
ARM GAS  /tmp/ccxJPvV1.s 			page 22


1153:Drivers/STM32F7xx_HAL_Driver/Src/stm32f7xx_ll_sdmmc.c ****     
1154:Drivers/STM32F7xx_HAL_Driver/Src/stm32f7xx_ll_sdmmc.c ****   }while(!__SDMMC_GET_FLAG(SDMMCx, SDMMC_FLAG_CMDSENT));
  47              		.loc 1 1154 0
  48 0018 416B     		ldr	r1, [r0, #52]
1149:Drivers/STM32F7xx_HAL_Driver/Src/stm32f7xx_ll_sdmmc.c ****     {
  49              		.loc 1 1149 0
  50 001a 1346     		mov	r3, r2
  51              		.loc 1 1154 0
  52 001c 11F0800F 		tst	r1, #128
  53 0020 F8D0     		beq	.L3
1155:Drivers/STM32F7xx_HAL_Driver/Src/stm32f7xx_ll_sdmmc.c ****   
1156:Drivers/STM32F7xx_HAL_Driver/Src/stm32f7xx_ll_sdmmc.c ****   /* Clear all the static flags */
1157:Drivers/STM32F7xx_HAL_Driver/Src/stm32f7xx_ll_sdmmc.c ****   __SDMMC_CLEAR_FLAG(SDMMCx, SDMMC_STATIC_CMD_FLAGS);
  54              		.loc 1 1157 0
  55 0022 C523     		movs	r3, #197
  56 0024 8363     		str	r3, [r0, #56]
1158:Drivers/STM32F7xx_HAL_Driver/Src/stm32f7xx_ll_sdmmc.c ****   
1159:Drivers/STM32F7xx_HAL_Driver/Src/stm32f7xx_ll_sdmmc.c ****   return SDMMC_ERROR_NONE;
  57              		.loc 1 1159 0
  58 0026 0020     		movs	r0, #0
  59              	.LVL3:
  60 0028 7047     		bx	lr
  61              	.LVL4:
  62              	.L4:
1151:Drivers/STM32F7xx_HAL_Driver/Src/stm32f7xx_ll_sdmmc.c ****     }
  63              		.loc 1 1151 0
  64 002a 4FF00040 		mov	r0, #-2147483648
  65              	.LVL5:
1160:Drivers/STM32F7xx_HAL_Driver/Src/stm32f7xx_ll_sdmmc.c **** }
  66              		.loc 1 1160 0
  67 002e 7047     		bx	lr
  68              	.L6:
  69              		.align	2
  70              	.L5:
  71 0030 00000000 		.word	SystemCoreClock
  72 0034 D34D6210 		.word	274877907
  73              		.cfi_endproc
  74              	.LFE179:
  76              		.section	.text.SDMMC_GetCmdResp2,"ax",%progbits
  77              		.align	1
  78              		.syntax unified
  79              		.thumb
  80              		.thumb_func
  81              		.fpu fpv5-sp-d16
  83              	SDMMC_GetCmdResp2:
  84              	.LFB181:
1161:Drivers/STM32F7xx_HAL_Driver/Src/stm32f7xx_ll_sdmmc.c **** 
1162:Drivers/STM32F7xx_HAL_Driver/Src/stm32f7xx_ll_sdmmc.c **** /**
1163:Drivers/STM32F7xx_HAL_Driver/Src/stm32f7xx_ll_sdmmc.c ****   * @brief  Checks for error conditions for R1 response.
1164:Drivers/STM32F7xx_HAL_Driver/Src/stm32f7xx_ll_sdmmc.c ****   * @param  hsd: SD handle
1165:Drivers/STM32F7xx_HAL_Driver/Src/stm32f7xx_ll_sdmmc.c ****   * @param  SD_CMD: The sent command index  
1166:Drivers/STM32F7xx_HAL_Driver/Src/stm32f7xx_ll_sdmmc.c ****   * @retval SD Card error state
1167:Drivers/STM32F7xx_HAL_Driver/Src/stm32f7xx_ll_sdmmc.c ****   */
1168:Drivers/STM32F7xx_HAL_Driver/Src/stm32f7xx_ll_sdmmc.c **** static uint32_t SDMMC_GetCmdResp1(SDMMC_TypeDef *SDMMCx, uint8_t SD_CMD, uint32_t Timeout)
1169:Drivers/STM32F7xx_HAL_Driver/Src/stm32f7xx_ll_sdmmc.c **** {
1170:Drivers/STM32F7xx_HAL_Driver/Src/stm32f7xx_ll_sdmmc.c ****   uint32_t response_r1;
1171:Drivers/STM32F7xx_HAL_Driver/Src/stm32f7xx_ll_sdmmc.c ****   uint32_t sta_reg;
ARM GAS  /tmp/ccxJPvV1.s 			page 23


1172:Drivers/STM32F7xx_HAL_Driver/Src/stm32f7xx_ll_sdmmc.c ****   
1173:Drivers/STM32F7xx_HAL_Driver/Src/stm32f7xx_ll_sdmmc.c ****   /* 8 is the number of required instructions cycles for the below loop statement.
1174:Drivers/STM32F7xx_HAL_Driver/Src/stm32f7xx_ll_sdmmc.c ****   The Timeout is expressed in ms */
1175:Drivers/STM32F7xx_HAL_Driver/Src/stm32f7xx_ll_sdmmc.c ****   register uint32_t count = Timeout * (SystemCoreClock / 8U /1000U);
1176:Drivers/STM32F7xx_HAL_Driver/Src/stm32f7xx_ll_sdmmc.c ****   
1177:Drivers/STM32F7xx_HAL_Driver/Src/stm32f7xx_ll_sdmmc.c ****   do
1178:Drivers/STM32F7xx_HAL_Driver/Src/stm32f7xx_ll_sdmmc.c ****   {
1179:Drivers/STM32F7xx_HAL_Driver/Src/stm32f7xx_ll_sdmmc.c ****     if (count-- == 0U)
1180:Drivers/STM32F7xx_HAL_Driver/Src/stm32f7xx_ll_sdmmc.c ****     {
1181:Drivers/STM32F7xx_HAL_Driver/Src/stm32f7xx_ll_sdmmc.c ****       return SDMMC_ERROR_TIMEOUT;
1182:Drivers/STM32F7xx_HAL_Driver/Src/stm32f7xx_ll_sdmmc.c ****     }
1183:Drivers/STM32F7xx_HAL_Driver/Src/stm32f7xx_ll_sdmmc.c ****     sta_reg = SDMMCx->STA;
1184:Drivers/STM32F7xx_HAL_Driver/Src/stm32f7xx_ll_sdmmc.c ****   }while(((sta_reg & (SDMMC_FLAG_CCRCFAIL | SDMMC_FLAG_CMDREND | SDMMC_FLAG_CTIMEOUT)) == 0U) ||
1185:Drivers/STM32F7xx_HAL_Driver/Src/stm32f7xx_ll_sdmmc.c ****          ((sta_reg & SDMMC_FLAG_CMDACT) != 0U ));
1186:Drivers/STM32F7xx_HAL_Driver/Src/stm32f7xx_ll_sdmmc.c ****     
1187:Drivers/STM32F7xx_HAL_Driver/Src/stm32f7xx_ll_sdmmc.c ****   if(__SDMMC_GET_FLAG(SDMMCx, SDMMC_FLAG_CTIMEOUT))
1188:Drivers/STM32F7xx_HAL_Driver/Src/stm32f7xx_ll_sdmmc.c ****   {
1189:Drivers/STM32F7xx_HAL_Driver/Src/stm32f7xx_ll_sdmmc.c ****     __SDMMC_CLEAR_FLAG(SDMMCx, SDMMC_FLAG_CTIMEOUT);
1190:Drivers/STM32F7xx_HAL_Driver/Src/stm32f7xx_ll_sdmmc.c ****     
1191:Drivers/STM32F7xx_HAL_Driver/Src/stm32f7xx_ll_sdmmc.c ****     return SDMMC_ERROR_CMD_RSP_TIMEOUT;
1192:Drivers/STM32F7xx_HAL_Driver/Src/stm32f7xx_ll_sdmmc.c ****   }
1193:Drivers/STM32F7xx_HAL_Driver/Src/stm32f7xx_ll_sdmmc.c ****   else if(__SDMMC_GET_FLAG(SDMMCx, SDMMC_FLAG_CCRCFAIL))
1194:Drivers/STM32F7xx_HAL_Driver/Src/stm32f7xx_ll_sdmmc.c ****   {
1195:Drivers/STM32F7xx_HAL_Driver/Src/stm32f7xx_ll_sdmmc.c ****     __SDMMC_CLEAR_FLAG(SDMMCx, SDMMC_FLAG_CCRCFAIL);
1196:Drivers/STM32F7xx_HAL_Driver/Src/stm32f7xx_ll_sdmmc.c ****     
1197:Drivers/STM32F7xx_HAL_Driver/Src/stm32f7xx_ll_sdmmc.c ****     return SDMMC_ERROR_CMD_CRC_FAIL;
1198:Drivers/STM32F7xx_HAL_Driver/Src/stm32f7xx_ll_sdmmc.c ****   }
1199:Drivers/STM32F7xx_HAL_Driver/Src/stm32f7xx_ll_sdmmc.c ****   else
1200:Drivers/STM32F7xx_HAL_Driver/Src/stm32f7xx_ll_sdmmc.c ****   {
1201:Drivers/STM32F7xx_HAL_Driver/Src/stm32f7xx_ll_sdmmc.c ****     /* Nothing to do */
1202:Drivers/STM32F7xx_HAL_Driver/Src/stm32f7xx_ll_sdmmc.c ****   }
1203:Drivers/STM32F7xx_HAL_Driver/Src/stm32f7xx_ll_sdmmc.c ****   
1204:Drivers/STM32F7xx_HAL_Driver/Src/stm32f7xx_ll_sdmmc.c ****   /* Clear all the static flags */
1205:Drivers/STM32F7xx_HAL_Driver/Src/stm32f7xx_ll_sdmmc.c ****   __SDMMC_CLEAR_FLAG(SDMMCx, SDMMC_STATIC_CMD_FLAGS);
1206:Drivers/STM32F7xx_HAL_Driver/Src/stm32f7xx_ll_sdmmc.c ****   
1207:Drivers/STM32F7xx_HAL_Driver/Src/stm32f7xx_ll_sdmmc.c ****   /* Check response received is of desired command */
1208:Drivers/STM32F7xx_HAL_Driver/Src/stm32f7xx_ll_sdmmc.c ****   if(SDMMC_GetCommandResponse(SDMMCx) != SD_CMD)
1209:Drivers/STM32F7xx_HAL_Driver/Src/stm32f7xx_ll_sdmmc.c ****   {
1210:Drivers/STM32F7xx_HAL_Driver/Src/stm32f7xx_ll_sdmmc.c ****     return SDMMC_ERROR_CMD_CRC_FAIL;
1211:Drivers/STM32F7xx_HAL_Driver/Src/stm32f7xx_ll_sdmmc.c ****   }
1212:Drivers/STM32F7xx_HAL_Driver/Src/stm32f7xx_ll_sdmmc.c ****   
1213:Drivers/STM32F7xx_HAL_Driver/Src/stm32f7xx_ll_sdmmc.c ****   /* We have received response, retrieve it for analysis  */
1214:Drivers/STM32F7xx_HAL_Driver/Src/stm32f7xx_ll_sdmmc.c ****   response_r1 = SDMMC_GetResponse(SDMMCx, SDMMC_RESP1);
1215:Drivers/STM32F7xx_HAL_Driver/Src/stm32f7xx_ll_sdmmc.c ****   
1216:Drivers/STM32F7xx_HAL_Driver/Src/stm32f7xx_ll_sdmmc.c ****   if((response_r1 & SDMMC_OCR_ERRORBITS) == SDMMC_ALLZERO)
1217:Drivers/STM32F7xx_HAL_Driver/Src/stm32f7xx_ll_sdmmc.c ****   {
1218:Drivers/STM32F7xx_HAL_Driver/Src/stm32f7xx_ll_sdmmc.c ****     return SDMMC_ERROR_NONE;
1219:Drivers/STM32F7xx_HAL_Driver/Src/stm32f7xx_ll_sdmmc.c ****   }
1220:Drivers/STM32F7xx_HAL_Driver/Src/stm32f7xx_ll_sdmmc.c ****   else if((response_r1 & SDMMC_OCR_ADDR_OUT_OF_RANGE) == SDMMC_OCR_ADDR_OUT_OF_RANGE)
1221:Drivers/STM32F7xx_HAL_Driver/Src/stm32f7xx_ll_sdmmc.c ****   {
1222:Drivers/STM32F7xx_HAL_Driver/Src/stm32f7xx_ll_sdmmc.c ****     return SDMMC_ERROR_ADDR_OUT_OF_RANGE;
1223:Drivers/STM32F7xx_HAL_Driver/Src/stm32f7xx_ll_sdmmc.c ****   }
1224:Drivers/STM32F7xx_HAL_Driver/Src/stm32f7xx_ll_sdmmc.c ****   else if((response_r1 & SDMMC_OCR_ADDR_MISALIGNED) == SDMMC_OCR_ADDR_MISALIGNED)
1225:Drivers/STM32F7xx_HAL_Driver/Src/stm32f7xx_ll_sdmmc.c ****   {
1226:Drivers/STM32F7xx_HAL_Driver/Src/stm32f7xx_ll_sdmmc.c ****     return SDMMC_ERROR_ADDR_MISALIGNED;
1227:Drivers/STM32F7xx_HAL_Driver/Src/stm32f7xx_ll_sdmmc.c ****   }
1228:Drivers/STM32F7xx_HAL_Driver/Src/stm32f7xx_ll_sdmmc.c ****   else if((response_r1 & SDMMC_OCR_BLOCK_LEN_ERR) == SDMMC_OCR_BLOCK_LEN_ERR)
ARM GAS  /tmp/ccxJPvV1.s 			page 24


1229:Drivers/STM32F7xx_HAL_Driver/Src/stm32f7xx_ll_sdmmc.c ****   {
1230:Drivers/STM32F7xx_HAL_Driver/Src/stm32f7xx_ll_sdmmc.c ****     return SDMMC_ERROR_BLOCK_LEN_ERR;
1231:Drivers/STM32F7xx_HAL_Driver/Src/stm32f7xx_ll_sdmmc.c ****   }
1232:Drivers/STM32F7xx_HAL_Driver/Src/stm32f7xx_ll_sdmmc.c ****   else if((response_r1 & SDMMC_OCR_ERASE_SEQ_ERR) == SDMMC_OCR_ERASE_SEQ_ERR)
1233:Drivers/STM32F7xx_HAL_Driver/Src/stm32f7xx_ll_sdmmc.c ****   {
1234:Drivers/STM32F7xx_HAL_Driver/Src/stm32f7xx_ll_sdmmc.c ****     return SDMMC_ERROR_ERASE_SEQ_ERR;
1235:Drivers/STM32F7xx_HAL_Driver/Src/stm32f7xx_ll_sdmmc.c ****   }
1236:Drivers/STM32F7xx_HAL_Driver/Src/stm32f7xx_ll_sdmmc.c ****   else if((response_r1 & SDMMC_OCR_BAD_ERASE_PARAM) == SDMMC_OCR_BAD_ERASE_PARAM)
1237:Drivers/STM32F7xx_HAL_Driver/Src/stm32f7xx_ll_sdmmc.c ****   {
1238:Drivers/STM32F7xx_HAL_Driver/Src/stm32f7xx_ll_sdmmc.c ****     return SDMMC_ERROR_BAD_ERASE_PARAM;
1239:Drivers/STM32F7xx_HAL_Driver/Src/stm32f7xx_ll_sdmmc.c ****   }
1240:Drivers/STM32F7xx_HAL_Driver/Src/stm32f7xx_ll_sdmmc.c ****   else if((response_r1 & SDMMC_OCR_WRITE_PROT_VIOLATION) == SDMMC_OCR_WRITE_PROT_VIOLATION)
1241:Drivers/STM32F7xx_HAL_Driver/Src/stm32f7xx_ll_sdmmc.c ****   {
1242:Drivers/STM32F7xx_HAL_Driver/Src/stm32f7xx_ll_sdmmc.c ****     return SDMMC_ERROR_WRITE_PROT_VIOLATION;
1243:Drivers/STM32F7xx_HAL_Driver/Src/stm32f7xx_ll_sdmmc.c ****   }
1244:Drivers/STM32F7xx_HAL_Driver/Src/stm32f7xx_ll_sdmmc.c ****   else if((response_r1 & SDMMC_OCR_LOCK_UNLOCK_FAILED) == SDMMC_OCR_LOCK_UNLOCK_FAILED)
1245:Drivers/STM32F7xx_HAL_Driver/Src/stm32f7xx_ll_sdmmc.c ****   {
1246:Drivers/STM32F7xx_HAL_Driver/Src/stm32f7xx_ll_sdmmc.c ****     return SDMMC_ERROR_LOCK_UNLOCK_FAILED;
1247:Drivers/STM32F7xx_HAL_Driver/Src/stm32f7xx_ll_sdmmc.c ****   }
1248:Drivers/STM32F7xx_HAL_Driver/Src/stm32f7xx_ll_sdmmc.c ****   else if((response_r1 & SDMMC_OCR_COM_CRC_FAILED) == SDMMC_OCR_COM_CRC_FAILED)
1249:Drivers/STM32F7xx_HAL_Driver/Src/stm32f7xx_ll_sdmmc.c ****   {
1250:Drivers/STM32F7xx_HAL_Driver/Src/stm32f7xx_ll_sdmmc.c ****     return SDMMC_ERROR_COM_CRC_FAILED;
1251:Drivers/STM32F7xx_HAL_Driver/Src/stm32f7xx_ll_sdmmc.c ****   }
1252:Drivers/STM32F7xx_HAL_Driver/Src/stm32f7xx_ll_sdmmc.c ****   else if((response_r1 & SDMMC_OCR_ILLEGAL_CMD) == SDMMC_OCR_ILLEGAL_CMD)
1253:Drivers/STM32F7xx_HAL_Driver/Src/stm32f7xx_ll_sdmmc.c ****   {
1254:Drivers/STM32F7xx_HAL_Driver/Src/stm32f7xx_ll_sdmmc.c ****     return SDMMC_ERROR_ILLEGAL_CMD;
1255:Drivers/STM32F7xx_HAL_Driver/Src/stm32f7xx_ll_sdmmc.c ****   }
1256:Drivers/STM32F7xx_HAL_Driver/Src/stm32f7xx_ll_sdmmc.c ****   else if((response_r1 & SDMMC_OCR_CARD_ECC_FAILED) == SDMMC_OCR_CARD_ECC_FAILED)
1257:Drivers/STM32F7xx_HAL_Driver/Src/stm32f7xx_ll_sdmmc.c ****   {
1258:Drivers/STM32F7xx_HAL_Driver/Src/stm32f7xx_ll_sdmmc.c ****     return SDMMC_ERROR_CARD_ECC_FAILED;
1259:Drivers/STM32F7xx_HAL_Driver/Src/stm32f7xx_ll_sdmmc.c ****   }
1260:Drivers/STM32F7xx_HAL_Driver/Src/stm32f7xx_ll_sdmmc.c ****   else if((response_r1 & SDMMC_OCR_CC_ERROR) == SDMMC_OCR_CC_ERROR)
1261:Drivers/STM32F7xx_HAL_Driver/Src/stm32f7xx_ll_sdmmc.c ****   {
1262:Drivers/STM32F7xx_HAL_Driver/Src/stm32f7xx_ll_sdmmc.c ****     return SDMMC_ERROR_CC_ERR;
1263:Drivers/STM32F7xx_HAL_Driver/Src/stm32f7xx_ll_sdmmc.c ****   }
1264:Drivers/STM32F7xx_HAL_Driver/Src/stm32f7xx_ll_sdmmc.c ****   else if((response_r1 & SDMMC_OCR_STREAM_READ_UNDERRUN) == SDMMC_OCR_STREAM_READ_UNDERRUN)
1265:Drivers/STM32F7xx_HAL_Driver/Src/stm32f7xx_ll_sdmmc.c ****   {
1266:Drivers/STM32F7xx_HAL_Driver/Src/stm32f7xx_ll_sdmmc.c ****     return SDMMC_ERROR_STREAM_READ_UNDERRUN;
1267:Drivers/STM32F7xx_HAL_Driver/Src/stm32f7xx_ll_sdmmc.c ****   }
1268:Drivers/STM32F7xx_HAL_Driver/Src/stm32f7xx_ll_sdmmc.c ****   else if((response_r1 & SDMMC_OCR_STREAM_WRITE_OVERRUN) == SDMMC_OCR_STREAM_WRITE_OVERRUN)
1269:Drivers/STM32F7xx_HAL_Driver/Src/stm32f7xx_ll_sdmmc.c ****   {
1270:Drivers/STM32F7xx_HAL_Driver/Src/stm32f7xx_ll_sdmmc.c ****     return SDMMC_ERROR_STREAM_WRITE_OVERRUN;
1271:Drivers/STM32F7xx_HAL_Driver/Src/stm32f7xx_ll_sdmmc.c ****   }
1272:Drivers/STM32F7xx_HAL_Driver/Src/stm32f7xx_ll_sdmmc.c ****   else if((response_r1 & SDMMC_OCR_CID_CSD_OVERWRITE) == SDMMC_OCR_CID_CSD_OVERWRITE)
1273:Drivers/STM32F7xx_HAL_Driver/Src/stm32f7xx_ll_sdmmc.c ****   {
1274:Drivers/STM32F7xx_HAL_Driver/Src/stm32f7xx_ll_sdmmc.c ****     return SDMMC_ERROR_CID_CSD_OVERWRITE;
1275:Drivers/STM32F7xx_HAL_Driver/Src/stm32f7xx_ll_sdmmc.c ****   }
1276:Drivers/STM32F7xx_HAL_Driver/Src/stm32f7xx_ll_sdmmc.c ****   else if((response_r1 & SDMMC_OCR_WP_ERASE_SKIP) == SDMMC_OCR_WP_ERASE_SKIP)
1277:Drivers/STM32F7xx_HAL_Driver/Src/stm32f7xx_ll_sdmmc.c ****   {
1278:Drivers/STM32F7xx_HAL_Driver/Src/stm32f7xx_ll_sdmmc.c ****     return SDMMC_ERROR_WP_ERASE_SKIP;
1279:Drivers/STM32F7xx_HAL_Driver/Src/stm32f7xx_ll_sdmmc.c ****   }
1280:Drivers/STM32F7xx_HAL_Driver/Src/stm32f7xx_ll_sdmmc.c ****   else if((response_r1 & SDMMC_OCR_CARD_ECC_DISABLED) == SDMMC_OCR_CARD_ECC_DISABLED)
1281:Drivers/STM32F7xx_HAL_Driver/Src/stm32f7xx_ll_sdmmc.c ****   {
1282:Drivers/STM32F7xx_HAL_Driver/Src/stm32f7xx_ll_sdmmc.c ****     return SDMMC_ERROR_CARD_ECC_DISABLED;
1283:Drivers/STM32F7xx_HAL_Driver/Src/stm32f7xx_ll_sdmmc.c ****   }
1284:Drivers/STM32F7xx_HAL_Driver/Src/stm32f7xx_ll_sdmmc.c ****   else if((response_r1 & SDMMC_OCR_ERASE_RESET) == SDMMC_OCR_ERASE_RESET)
1285:Drivers/STM32F7xx_HAL_Driver/Src/stm32f7xx_ll_sdmmc.c ****   {
ARM GAS  /tmp/ccxJPvV1.s 			page 25


1286:Drivers/STM32F7xx_HAL_Driver/Src/stm32f7xx_ll_sdmmc.c ****     return SDMMC_ERROR_ERASE_RESET;
1287:Drivers/STM32F7xx_HAL_Driver/Src/stm32f7xx_ll_sdmmc.c ****   }
1288:Drivers/STM32F7xx_HAL_Driver/Src/stm32f7xx_ll_sdmmc.c ****   else if((response_r1 & SDMMC_OCR_AKE_SEQ_ERROR) == SDMMC_OCR_AKE_SEQ_ERROR)
1289:Drivers/STM32F7xx_HAL_Driver/Src/stm32f7xx_ll_sdmmc.c ****   {
1290:Drivers/STM32F7xx_HAL_Driver/Src/stm32f7xx_ll_sdmmc.c ****     return SDMMC_ERROR_AKE_SEQ_ERR;
1291:Drivers/STM32F7xx_HAL_Driver/Src/stm32f7xx_ll_sdmmc.c ****   }
1292:Drivers/STM32F7xx_HAL_Driver/Src/stm32f7xx_ll_sdmmc.c ****   else
1293:Drivers/STM32F7xx_HAL_Driver/Src/stm32f7xx_ll_sdmmc.c ****   {
1294:Drivers/STM32F7xx_HAL_Driver/Src/stm32f7xx_ll_sdmmc.c ****     return SDMMC_ERROR_GENERAL_UNKNOWN_ERR;
1295:Drivers/STM32F7xx_HAL_Driver/Src/stm32f7xx_ll_sdmmc.c ****   }
1296:Drivers/STM32F7xx_HAL_Driver/Src/stm32f7xx_ll_sdmmc.c **** }
1297:Drivers/STM32F7xx_HAL_Driver/Src/stm32f7xx_ll_sdmmc.c **** 
1298:Drivers/STM32F7xx_HAL_Driver/Src/stm32f7xx_ll_sdmmc.c **** /**
1299:Drivers/STM32F7xx_HAL_Driver/Src/stm32f7xx_ll_sdmmc.c ****   * @brief  Checks for error conditions for R2 (CID or CSD) response.
1300:Drivers/STM32F7xx_HAL_Driver/Src/stm32f7xx_ll_sdmmc.c ****   * @param  hsd: SD handle
1301:Drivers/STM32F7xx_HAL_Driver/Src/stm32f7xx_ll_sdmmc.c ****   * @retval SD Card error state
1302:Drivers/STM32F7xx_HAL_Driver/Src/stm32f7xx_ll_sdmmc.c ****   */
1303:Drivers/STM32F7xx_HAL_Driver/Src/stm32f7xx_ll_sdmmc.c **** static uint32_t SDMMC_GetCmdResp2(SDMMC_TypeDef *SDMMCx)
1304:Drivers/STM32F7xx_HAL_Driver/Src/stm32f7xx_ll_sdmmc.c **** {
  85              		.loc 1 1304 0
  86              		.cfi_startproc
  87              		@ args = 0, pretend = 0, frame = 0
  88              		@ frame_needed = 0, uses_anonymous_args = 0
  89              		@ link register save eliminated.
  90              	.LVL6:
1305:Drivers/STM32F7xx_HAL_Driver/Src/stm32f7xx_ll_sdmmc.c ****   uint32_t sta_reg;
1306:Drivers/STM32F7xx_HAL_Driver/Src/stm32f7xx_ll_sdmmc.c ****   /* 8 is the number of required instructions cycles for the below loop statement.
1307:Drivers/STM32F7xx_HAL_Driver/Src/stm32f7xx_ll_sdmmc.c ****   The SDMMC_CMDTIMEOUT is expressed in ms */
1308:Drivers/STM32F7xx_HAL_Driver/Src/stm32f7xx_ll_sdmmc.c ****   register uint32_t count = SDMMC_CMDTIMEOUT * (SystemCoreClock / 8U /1000U);
  91              		.loc 1 1308 0
  92 0000 154B     		ldr	r3, .L15
  93 0002 1B68     		ldr	r3, [r3]
  94 0004 154A     		ldr	r2, .L15+4
  95 0006 A2FB0323 		umull	r2, r3, r2, r3
  96 000a 5A0A     		lsrs	r2, r3, #9
  97 000c 41F28833 		movw	r3, #5000
  98 0010 03FB02F3 		mul	r3, r3, r2
  99              	.LVL7:
 100              	.L9:
1309:Drivers/STM32F7xx_HAL_Driver/Src/stm32f7xx_ll_sdmmc.c ****   
1310:Drivers/STM32F7xx_HAL_Driver/Src/stm32f7xx_ll_sdmmc.c ****   do
1311:Drivers/STM32F7xx_HAL_Driver/Src/stm32f7xx_ll_sdmmc.c ****   {
1312:Drivers/STM32F7xx_HAL_Driver/Src/stm32f7xx_ll_sdmmc.c ****     if (count-- == 0U)
 101              		.loc 1 1312 0
 102 0014 5A1E     		subs	r2, r3, #1
 103              	.LVL8:
 104 0016 DBB1     		cbz	r3, .L12
1313:Drivers/STM32F7xx_HAL_Driver/Src/stm32f7xx_ll_sdmmc.c ****     {
1314:Drivers/STM32F7xx_HAL_Driver/Src/stm32f7xx_ll_sdmmc.c ****       return SDMMC_ERROR_TIMEOUT;
1315:Drivers/STM32F7xx_HAL_Driver/Src/stm32f7xx_ll_sdmmc.c ****     }
1316:Drivers/STM32F7xx_HAL_Driver/Src/stm32f7xx_ll_sdmmc.c ****     sta_reg = SDMMCx->STA;
 105              		.loc 1 1316 0
 106 0018 416B     		ldr	r1, [r0, #52]
 107              	.LVL9:
 108 001a 1346     		mov	r3, r2
1317:Drivers/STM32F7xx_HAL_Driver/Src/stm32f7xx_ll_sdmmc.c ****   }while(((sta_reg & (SDMMC_FLAG_CCRCFAIL | SDMMC_FLAG_CMDREND | SDMMC_FLAG_CTIMEOUT)) == 0U) ||
1318:Drivers/STM32F7xx_HAL_Driver/Src/stm32f7xx_ll_sdmmc.c ****          ((sta_reg & SDMMC_FLAG_CMDACT) != 0U ));
ARM GAS  /tmp/ccxJPvV1.s 			page 26


 109              		.loc 1 1318 0
 110 001c 11F0450F 		tst	r1, #69
 111 0020 F8D0     		beq	.L9
1317:Drivers/STM32F7xx_HAL_Driver/Src/stm32f7xx_ll_sdmmc.c ****   }while(((sta_reg & (SDMMC_FLAG_CCRCFAIL | SDMMC_FLAG_CMDREND | SDMMC_FLAG_CTIMEOUT)) == 0U) ||
 112              		.loc 1 1317 0 discriminator 1
 113 0022 11F4006F 		tst	r1, #2048
 114 0026 F5D1     		bne	.L9
1319:Drivers/STM32F7xx_HAL_Driver/Src/stm32f7xx_ll_sdmmc.c ****     
1320:Drivers/STM32F7xx_HAL_Driver/Src/stm32f7xx_ll_sdmmc.c ****   if (__SDMMC_GET_FLAG(SDMMCx, SDMMC_FLAG_CTIMEOUT))
 115              		.loc 1 1320 0
 116 0028 436B     		ldr	r3, [r0, #52]
 117 002a 13F0040F 		tst	r3, #4
 118 002e 07D1     		bne	.L13
1321:Drivers/STM32F7xx_HAL_Driver/Src/stm32f7xx_ll_sdmmc.c ****   {
1322:Drivers/STM32F7xx_HAL_Driver/Src/stm32f7xx_ll_sdmmc.c ****     __SDMMC_CLEAR_FLAG(SDMMCx, SDMMC_FLAG_CTIMEOUT);
1323:Drivers/STM32F7xx_HAL_Driver/Src/stm32f7xx_ll_sdmmc.c ****     
1324:Drivers/STM32F7xx_HAL_Driver/Src/stm32f7xx_ll_sdmmc.c ****     return SDMMC_ERROR_CMD_RSP_TIMEOUT;
1325:Drivers/STM32F7xx_HAL_Driver/Src/stm32f7xx_ll_sdmmc.c ****   }
1326:Drivers/STM32F7xx_HAL_Driver/Src/stm32f7xx_ll_sdmmc.c ****   else if (__SDMMC_GET_FLAG(SDMMCx, SDMMC_FLAG_CCRCFAIL))
 119              		.loc 1 1326 0
 120 0030 436B     		ldr	r3, [r0, #52]
 121 0032 13F0010F 		tst	r3, #1
 122 0036 07D1     		bne	.L14
1327:Drivers/STM32F7xx_HAL_Driver/Src/stm32f7xx_ll_sdmmc.c ****   {
1328:Drivers/STM32F7xx_HAL_Driver/Src/stm32f7xx_ll_sdmmc.c ****     __SDMMC_CLEAR_FLAG(SDMMCx, SDMMC_FLAG_CCRCFAIL);
1329:Drivers/STM32F7xx_HAL_Driver/Src/stm32f7xx_ll_sdmmc.c ****     
1330:Drivers/STM32F7xx_HAL_Driver/Src/stm32f7xx_ll_sdmmc.c ****     return SDMMC_ERROR_CMD_CRC_FAIL;
1331:Drivers/STM32F7xx_HAL_Driver/Src/stm32f7xx_ll_sdmmc.c ****   }
1332:Drivers/STM32F7xx_HAL_Driver/Src/stm32f7xx_ll_sdmmc.c ****   else
1333:Drivers/STM32F7xx_HAL_Driver/Src/stm32f7xx_ll_sdmmc.c ****   {
1334:Drivers/STM32F7xx_HAL_Driver/Src/stm32f7xx_ll_sdmmc.c ****     /* No error flag set */
1335:Drivers/STM32F7xx_HAL_Driver/Src/stm32f7xx_ll_sdmmc.c ****     /* Clear all the static flags */
1336:Drivers/STM32F7xx_HAL_Driver/Src/stm32f7xx_ll_sdmmc.c ****     __SDMMC_CLEAR_FLAG(SDMMCx, SDMMC_STATIC_CMD_FLAGS);
 123              		.loc 1 1336 0
 124 0038 C523     		movs	r3, #197
 125 003a 8363     		str	r3, [r0, #56]
1337:Drivers/STM32F7xx_HAL_Driver/Src/stm32f7xx_ll_sdmmc.c ****   }
1338:Drivers/STM32F7xx_HAL_Driver/Src/stm32f7xx_ll_sdmmc.c **** 
1339:Drivers/STM32F7xx_HAL_Driver/Src/stm32f7xx_ll_sdmmc.c ****   return SDMMC_ERROR_NONE;
 126              		.loc 1 1339 0
 127 003c 0020     		movs	r0, #0
 128              	.LVL10:
 129 003e 7047     		bx	lr
 130              	.LVL11:
 131              	.L13:
1322:Drivers/STM32F7xx_HAL_Driver/Src/stm32f7xx_ll_sdmmc.c ****     
 132              		.loc 1 1322 0
 133 0040 0423     		movs	r3, #4
 134 0042 8363     		str	r3, [r0, #56]
1324:Drivers/STM32F7xx_HAL_Driver/Src/stm32f7xx_ll_sdmmc.c ****   }
 135              		.loc 1 1324 0
 136 0044 1846     		mov	r0, r3
 137              	.LVL12:
 138 0046 7047     		bx	lr
 139              	.LVL13:
 140              	.L14:
1328:Drivers/STM32F7xx_HAL_Driver/Src/stm32f7xx_ll_sdmmc.c ****     
ARM GAS  /tmp/ccxJPvV1.s 			page 27


 141              		.loc 1 1328 0
 142 0048 0123     		movs	r3, #1
 143 004a 8363     		str	r3, [r0, #56]
1330:Drivers/STM32F7xx_HAL_Driver/Src/stm32f7xx_ll_sdmmc.c ****   }
 144              		.loc 1 1330 0
 145 004c 1846     		mov	r0, r3
 146              	.LVL14:
 147 004e 7047     		bx	lr
 148              	.LVL15:
 149              	.L12:
1314:Drivers/STM32F7xx_HAL_Driver/Src/stm32f7xx_ll_sdmmc.c ****     }
 150              		.loc 1 1314 0
 151 0050 4FF00040 		mov	r0, #-2147483648
 152              	.LVL16:
1340:Drivers/STM32F7xx_HAL_Driver/Src/stm32f7xx_ll_sdmmc.c **** }
 153              		.loc 1 1340 0
 154 0054 7047     		bx	lr
 155              	.L16:
 156 0056 00BF     		.align	2
 157              	.L15:
 158 0058 00000000 		.word	SystemCoreClock
 159 005c D34D6210 		.word	274877907
 160              		.cfi_endproc
 161              	.LFE181:
 163              		.section	.text.SDMMC_GetCmdResp3,"ax",%progbits
 164              		.align	1
 165              		.syntax unified
 166              		.thumb
 167              		.thumb_func
 168              		.fpu fpv5-sp-d16
 170              	SDMMC_GetCmdResp3:
 171              	.LFB182:
1341:Drivers/STM32F7xx_HAL_Driver/Src/stm32f7xx_ll_sdmmc.c **** 
1342:Drivers/STM32F7xx_HAL_Driver/Src/stm32f7xx_ll_sdmmc.c **** /**
1343:Drivers/STM32F7xx_HAL_Driver/Src/stm32f7xx_ll_sdmmc.c ****   * @brief  Checks for error conditions for R3 (OCR) response.
1344:Drivers/STM32F7xx_HAL_Driver/Src/stm32f7xx_ll_sdmmc.c ****   * @param  hsd: SD handle
1345:Drivers/STM32F7xx_HAL_Driver/Src/stm32f7xx_ll_sdmmc.c ****   * @retval SD Card error state
1346:Drivers/STM32F7xx_HAL_Driver/Src/stm32f7xx_ll_sdmmc.c ****   */
1347:Drivers/STM32F7xx_HAL_Driver/Src/stm32f7xx_ll_sdmmc.c **** static uint32_t SDMMC_GetCmdResp3(SDMMC_TypeDef *SDMMCx)
1348:Drivers/STM32F7xx_HAL_Driver/Src/stm32f7xx_ll_sdmmc.c **** {
 172              		.loc 1 1348 0
 173              		.cfi_startproc
 174              		@ args = 0, pretend = 0, frame = 0
 175              		@ frame_needed = 0, uses_anonymous_args = 0
 176              		@ link register save eliminated.
 177              	.LVL17:
1349:Drivers/STM32F7xx_HAL_Driver/Src/stm32f7xx_ll_sdmmc.c ****   uint32_t sta_reg;
1350:Drivers/STM32F7xx_HAL_Driver/Src/stm32f7xx_ll_sdmmc.c ****   /* 8 is the number of required instructions cycles for the below loop statement.
1351:Drivers/STM32F7xx_HAL_Driver/Src/stm32f7xx_ll_sdmmc.c ****   The SDMMC_CMDTIMEOUT is expressed in ms */
1352:Drivers/STM32F7xx_HAL_Driver/Src/stm32f7xx_ll_sdmmc.c ****   register uint32_t count = SDMMC_CMDTIMEOUT * (SystemCoreClock / 8U /1000U);
 178              		.loc 1 1352 0
 179 0000 114B     		ldr	r3, .L23
 180 0002 1B68     		ldr	r3, [r3]
 181 0004 114A     		ldr	r2, .L23+4
 182 0006 A2FB0323 		umull	r2, r3, r2, r3
 183 000a 5A0A     		lsrs	r2, r3, #9
 184 000c 41F28833 		movw	r3, #5000
ARM GAS  /tmp/ccxJPvV1.s 			page 28


 185 0010 03FB02F3 		mul	r3, r3, r2
 186              	.LVL18:
 187              	.L19:
1353:Drivers/STM32F7xx_HAL_Driver/Src/stm32f7xx_ll_sdmmc.c ****   
1354:Drivers/STM32F7xx_HAL_Driver/Src/stm32f7xx_ll_sdmmc.c ****   do
1355:Drivers/STM32F7xx_HAL_Driver/Src/stm32f7xx_ll_sdmmc.c ****   {
1356:Drivers/STM32F7xx_HAL_Driver/Src/stm32f7xx_ll_sdmmc.c ****     if (count-- == 0U)
 188              		.loc 1 1356 0
 189 0014 5A1E     		subs	r2, r3, #1
 190              	.LVL19:
 191 0016 9BB1     		cbz	r3, .L21
1357:Drivers/STM32F7xx_HAL_Driver/Src/stm32f7xx_ll_sdmmc.c ****     {
1358:Drivers/STM32F7xx_HAL_Driver/Src/stm32f7xx_ll_sdmmc.c ****       return SDMMC_ERROR_TIMEOUT;
1359:Drivers/STM32F7xx_HAL_Driver/Src/stm32f7xx_ll_sdmmc.c ****     }
1360:Drivers/STM32F7xx_HAL_Driver/Src/stm32f7xx_ll_sdmmc.c ****     sta_reg = SDMMCx->STA;
 192              		.loc 1 1360 0
 193 0018 416B     		ldr	r1, [r0, #52]
 194              	.LVL20:
 195 001a 1346     		mov	r3, r2
1361:Drivers/STM32F7xx_HAL_Driver/Src/stm32f7xx_ll_sdmmc.c ****   }while(((sta_reg & (SDMMC_FLAG_CCRCFAIL | SDMMC_FLAG_CMDREND | SDMMC_FLAG_CTIMEOUT)) == 0U) ||
1362:Drivers/STM32F7xx_HAL_Driver/Src/stm32f7xx_ll_sdmmc.c ****          ((sta_reg & SDMMC_FLAG_CMDACT) != 0U ));
 196              		.loc 1 1362 0
 197 001c 11F0450F 		tst	r1, #69
 198 0020 F8D0     		beq	.L19
1361:Drivers/STM32F7xx_HAL_Driver/Src/stm32f7xx_ll_sdmmc.c ****   }while(((sta_reg & (SDMMC_FLAG_CCRCFAIL | SDMMC_FLAG_CMDREND | SDMMC_FLAG_CTIMEOUT)) == 0U) ||
 199              		.loc 1 1361 0 discriminator 1
 200 0022 11F4006F 		tst	r1, #2048
 201 0026 F5D1     		bne	.L19
1363:Drivers/STM32F7xx_HAL_Driver/Src/stm32f7xx_ll_sdmmc.c ****     
1364:Drivers/STM32F7xx_HAL_Driver/Src/stm32f7xx_ll_sdmmc.c ****   if(__SDMMC_GET_FLAG(SDMMCx, SDMMC_FLAG_CTIMEOUT))
 202              		.loc 1 1364 0
 203 0028 436B     		ldr	r3, [r0, #52]
 204 002a 13F0040F 		tst	r3, #4
 205 002e 03D1     		bne	.L22
1365:Drivers/STM32F7xx_HAL_Driver/Src/stm32f7xx_ll_sdmmc.c ****   {
1366:Drivers/STM32F7xx_HAL_Driver/Src/stm32f7xx_ll_sdmmc.c ****     __SDMMC_CLEAR_FLAG(SDMMCx, SDMMC_FLAG_CTIMEOUT);
1367:Drivers/STM32F7xx_HAL_Driver/Src/stm32f7xx_ll_sdmmc.c ****     
1368:Drivers/STM32F7xx_HAL_Driver/Src/stm32f7xx_ll_sdmmc.c ****     return SDMMC_ERROR_CMD_RSP_TIMEOUT;
1369:Drivers/STM32F7xx_HAL_Driver/Src/stm32f7xx_ll_sdmmc.c ****   }
1370:Drivers/STM32F7xx_HAL_Driver/Src/stm32f7xx_ll_sdmmc.c ****   else
1371:Drivers/STM32F7xx_HAL_Driver/Src/stm32f7xx_ll_sdmmc.c ****   {  
1372:Drivers/STM32F7xx_HAL_Driver/Src/stm32f7xx_ll_sdmmc.c ****     /* Clear all the static flags */
1373:Drivers/STM32F7xx_HAL_Driver/Src/stm32f7xx_ll_sdmmc.c ****     __SDMMC_CLEAR_FLAG(SDMMCx, SDMMC_STATIC_CMD_FLAGS);
 206              		.loc 1 1373 0
 207 0030 C523     		movs	r3, #197
 208 0032 8363     		str	r3, [r0, #56]
1374:Drivers/STM32F7xx_HAL_Driver/Src/stm32f7xx_ll_sdmmc.c ****   }
1375:Drivers/STM32F7xx_HAL_Driver/Src/stm32f7xx_ll_sdmmc.c ****   
1376:Drivers/STM32F7xx_HAL_Driver/Src/stm32f7xx_ll_sdmmc.c ****   return SDMMC_ERROR_NONE;
 209              		.loc 1 1376 0
 210 0034 0020     		movs	r0, #0
 211              	.LVL21:
 212 0036 7047     		bx	lr
 213              	.LVL22:
 214              	.L22:
1366:Drivers/STM32F7xx_HAL_Driver/Src/stm32f7xx_ll_sdmmc.c ****     
 215              		.loc 1 1366 0
ARM GAS  /tmp/ccxJPvV1.s 			page 29


 216 0038 0423     		movs	r3, #4
 217 003a 8363     		str	r3, [r0, #56]
1368:Drivers/STM32F7xx_HAL_Driver/Src/stm32f7xx_ll_sdmmc.c ****   }
 218              		.loc 1 1368 0
 219 003c 1846     		mov	r0, r3
 220              	.LVL23:
 221 003e 7047     		bx	lr
 222              	.LVL24:
 223              	.L21:
1358:Drivers/STM32F7xx_HAL_Driver/Src/stm32f7xx_ll_sdmmc.c ****     }
 224              		.loc 1 1358 0
 225 0040 4FF00040 		mov	r0, #-2147483648
 226              	.LVL25:
1377:Drivers/STM32F7xx_HAL_Driver/Src/stm32f7xx_ll_sdmmc.c **** }
 227              		.loc 1 1377 0
 228 0044 7047     		bx	lr
 229              	.L24:
 230 0046 00BF     		.align	2
 231              	.L23:
 232 0048 00000000 		.word	SystemCoreClock
 233 004c D34D6210 		.word	274877907
 234              		.cfi_endproc
 235              	.LFE182:
 237              		.section	.text.SDMMC_GetCmdResp7,"ax",%progbits
 238              		.align	1
 239              		.syntax unified
 240              		.thumb
 241              		.thumb_func
 242              		.fpu fpv5-sp-d16
 244              	SDMMC_GetCmdResp7:
 245              	.LFB184:
1378:Drivers/STM32F7xx_HAL_Driver/Src/stm32f7xx_ll_sdmmc.c **** 
1379:Drivers/STM32F7xx_HAL_Driver/Src/stm32f7xx_ll_sdmmc.c **** /**
1380:Drivers/STM32F7xx_HAL_Driver/Src/stm32f7xx_ll_sdmmc.c ****   * @brief  Checks for error conditions for R6 (RCA) response.
1381:Drivers/STM32F7xx_HAL_Driver/Src/stm32f7xx_ll_sdmmc.c ****   * @param  hsd: SD handle
1382:Drivers/STM32F7xx_HAL_Driver/Src/stm32f7xx_ll_sdmmc.c ****   * @param  SD_CMD: The sent command index
1383:Drivers/STM32F7xx_HAL_Driver/Src/stm32f7xx_ll_sdmmc.c ****   * @param  pRCA: Pointer to the variable that will contain the SD card relative 
1384:Drivers/STM32F7xx_HAL_Driver/Src/stm32f7xx_ll_sdmmc.c ****   *         address RCA   
1385:Drivers/STM32F7xx_HAL_Driver/Src/stm32f7xx_ll_sdmmc.c ****   * @retval SD Card error state
1386:Drivers/STM32F7xx_HAL_Driver/Src/stm32f7xx_ll_sdmmc.c ****   */
1387:Drivers/STM32F7xx_HAL_Driver/Src/stm32f7xx_ll_sdmmc.c **** static uint32_t SDMMC_GetCmdResp6(SDMMC_TypeDef *SDMMCx, uint8_t SD_CMD, uint16_t *pRCA)
1388:Drivers/STM32F7xx_HAL_Driver/Src/stm32f7xx_ll_sdmmc.c **** {
1389:Drivers/STM32F7xx_HAL_Driver/Src/stm32f7xx_ll_sdmmc.c ****   uint32_t response_r1;
1390:Drivers/STM32F7xx_HAL_Driver/Src/stm32f7xx_ll_sdmmc.c ****   uint32_t sta_reg;
1391:Drivers/STM32F7xx_HAL_Driver/Src/stm32f7xx_ll_sdmmc.c **** 
1392:Drivers/STM32F7xx_HAL_Driver/Src/stm32f7xx_ll_sdmmc.c ****   /* 8 is the number of required instructions cycles for the below loop statement.
1393:Drivers/STM32F7xx_HAL_Driver/Src/stm32f7xx_ll_sdmmc.c ****   The SDMMC_CMDTIMEOUT is expressed in ms */
1394:Drivers/STM32F7xx_HAL_Driver/Src/stm32f7xx_ll_sdmmc.c ****   register uint32_t count = SDMMC_CMDTIMEOUT * (SystemCoreClock / 8U /1000U);
1395:Drivers/STM32F7xx_HAL_Driver/Src/stm32f7xx_ll_sdmmc.c ****   
1396:Drivers/STM32F7xx_HAL_Driver/Src/stm32f7xx_ll_sdmmc.c ****   do
1397:Drivers/STM32F7xx_HAL_Driver/Src/stm32f7xx_ll_sdmmc.c ****   {
1398:Drivers/STM32F7xx_HAL_Driver/Src/stm32f7xx_ll_sdmmc.c ****     if (count-- == 0U)
1399:Drivers/STM32F7xx_HAL_Driver/Src/stm32f7xx_ll_sdmmc.c ****     {
1400:Drivers/STM32F7xx_HAL_Driver/Src/stm32f7xx_ll_sdmmc.c ****       return SDMMC_ERROR_TIMEOUT;
1401:Drivers/STM32F7xx_HAL_Driver/Src/stm32f7xx_ll_sdmmc.c ****     }
1402:Drivers/STM32F7xx_HAL_Driver/Src/stm32f7xx_ll_sdmmc.c ****     sta_reg = SDMMCx->STA;
1403:Drivers/STM32F7xx_HAL_Driver/Src/stm32f7xx_ll_sdmmc.c ****   }while(((sta_reg & (SDMMC_FLAG_CCRCFAIL | SDMMC_FLAG_CMDREND | SDMMC_FLAG_CTIMEOUT)) == 0U) ||
ARM GAS  /tmp/ccxJPvV1.s 			page 30


1404:Drivers/STM32F7xx_HAL_Driver/Src/stm32f7xx_ll_sdmmc.c ****          ((sta_reg & SDMMC_FLAG_CMDACT) != 0U ));
1405:Drivers/STM32F7xx_HAL_Driver/Src/stm32f7xx_ll_sdmmc.c ****     
1406:Drivers/STM32F7xx_HAL_Driver/Src/stm32f7xx_ll_sdmmc.c ****   if(__SDMMC_GET_FLAG(SDMMCx, SDMMC_FLAG_CTIMEOUT))
1407:Drivers/STM32F7xx_HAL_Driver/Src/stm32f7xx_ll_sdmmc.c ****   {
1408:Drivers/STM32F7xx_HAL_Driver/Src/stm32f7xx_ll_sdmmc.c ****     __SDMMC_CLEAR_FLAG(SDMMCx, SDMMC_FLAG_CTIMEOUT);
1409:Drivers/STM32F7xx_HAL_Driver/Src/stm32f7xx_ll_sdmmc.c ****     
1410:Drivers/STM32F7xx_HAL_Driver/Src/stm32f7xx_ll_sdmmc.c ****     return SDMMC_ERROR_CMD_RSP_TIMEOUT;
1411:Drivers/STM32F7xx_HAL_Driver/Src/stm32f7xx_ll_sdmmc.c ****   }
1412:Drivers/STM32F7xx_HAL_Driver/Src/stm32f7xx_ll_sdmmc.c ****   else if(__SDMMC_GET_FLAG(SDMMCx, SDMMC_FLAG_CCRCFAIL))
1413:Drivers/STM32F7xx_HAL_Driver/Src/stm32f7xx_ll_sdmmc.c ****   {
1414:Drivers/STM32F7xx_HAL_Driver/Src/stm32f7xx_ll_sdmmc.c ****     __SDMMC_CLEAR_FLAG(SDMMCx, SDMMC_FLAG_CCRCFAIL);
1415:Drivers/STM32F7xx_HAL_Driver/Src/stm32f7xx_ll_sdmmc.c ****     
1416:Drivers/STM32F7xx_HAL_Driver/Src/stm32f7xx_ll_sdmmc.c ****     return SDMMC_ERROR_CMD_CRC_FAIL;
1417:Drivers/STM32F7xx_HAL_Driver/Src/stm32f7xx_ll_sdmmc.c ****   }
1418:Drivers/STM32F7xx_HAL_Driver/Src/stm32f7xx_ll_sdmmc.c ****   else
1419:Drivers/STM32F7xx_HAL_Driver/Src/stm32f7xx_ll_sdmmc.c ****   {
1420:Drivers/STM32F7xx_HAL_Driver/Src/stm32f7xx_ll_sdmmc.c ****     /* Nothing to do */
1421:Drivers/STM32F7xx_HAL_Driver/Src/stm32f7xx_ll_sdmmc.c ****   }
1422:Drivers/STM32F7xx_HAL_Driver/Src/stm32f7xx_ll_sdmmc.c ****   
1423:Drivers/STM32F7xx_HAL_Driver/Src/stm32f7xx_ll_sdmmc.c ****   /* Check response received is of desired command */
1424:Drivers/STM32F7xx_HAL_Driver/Src/stm32f7xx_ll_sdmmc.c ****   if(SDMMC_GetCommandResponse(SDMMCx) != SD_CMD)
1425:Drivers/STM32F7xx_HAL_Driver/Src/stm32f7xx_ll_sdmmc.c ****   {
1426:Drivers/STM32F7xx_HAL_Driver/Src/stm32f7xx_ll_sdmmc.c ****     return SDMMC_ERROR_CMD_CRC_FAIL;
1427:Drivers/STM32F7xx_HAL_Driver/Src/stm32f7xx_ll_sdmmc.c ****   }
1428:Drivers/STM32F7xx_HAL_Driver/Src/stm32f7xx_ll_sdmmc.c ****   
1429:Drivers/STM32F7xx_HAL_Driver/Src/stm32f7xx_ll_sdmmc.c ****   /* Clear all the static flags */
1430:Drivers/STM32F7xx_HAL_Driver/Src/stm32f7xx_ll_sdmmc.c ****   __SDMMC_CLEAR_FLAG(SDMMCx, SDMMC_STATIC_CMD_FLAGS);
1431:Drivers/STM32F7xx_HAL_Driver/Src/stm32f7xx_ll_sdmmc.c ****   
1432:Drivers/STM32F7xx_HAL_Driver/Src/stm32f7xx_ll_sdmmc.c ****   /* We have received response, retrieve it.  */
1433:Drivers/STM32F7xx_HAL_Driver/Src/stm32f7xx_ll_sdmmc.c ****   response_r1 = SDMMC_GetResponse(SDMMCx, SDMMC_RESP1);
1434:Drivers/STM32F7xx_HAL_Driver/Src/stm32f7xx_ll_sdmmc.c ****   
1435:Drivers/STM32F7xx_HAL_Driver/Src/stm32f7xx_ll_sdmmc.c ****   if((response_r1 & (SDMMC_R6_GENERAL_UNKNOWN_ERROR | SDMMC_R6_ILLEGAL_CMD | SDMMC_R6_COM_CRC_FAILE
1436:Drivers/STM32F7xx_HAL_Driver/Src/stm32f7xx_ll_sdmmc.c ****   {
1437:Drivers/STM32F7xx_HAL_Driver/Src/stm32f7xx_ll_sdmmc.c ****     *pRCA = (uint16_t) (response_r1 >> 16);
1438:Drivers/STM32F7xx_HAL_Driver/Src/stm32f7xx_ll_sdmmc.c ****     
1439:Drivers/STM32F7xx_HAL_Driver/Src/stm32f7xx_ll_sdmmc.c ****     return SDMMC_ERROR_NONE;
1440:Drivers/STM32F7xx_HAL_Driver/Src/stm32f7xx_ll_sdmmc.c ****   }
1441:Drivers/STM32F7xx_HAL_Driver/Src/stm32f7xx_ll_sdmmc.c ****   else if((response_r1 & SDMMC_R6_ILLEGAL_CMD) == SDMMC_R6_ILLEGAL_CMD)
1442:Drivers/STM32F7xx_HAL_Driver/Src/stm32f7xx_ll_sdmmc.c ****   {
1443:Drivers/STM32F7xx_HAL_Driver/Src/stm32f7xx_ll_sdmmc.c ****     return SDMMC_ERROR_ILLEGAL_CMD;
1444:Drivers/STM32F7xx_HAL_Driver/Src/stm32f7xx_ll_sdmmc.c ****   }
1445:Drivers/STM32F7xx_HAL_Driver/Src/stm32f7xx_ll_sdmmc.c ****   else if((response_r1 & SDMMC_R6_COM_CRC_FAILED) == SDMMC_R6_COM_CRC_FAILED)
1446:Drivers/STM32F7xx_HAL_Driver/Src/stm32f7xx_ll_sdmmc.c ****   {
1447:Drivers/STM32F7xx_HAL_Driver/Src/stm32f7xx_ll_sdmmc.c ****     return SDMMC_ERROR_COM_CRC_FAILED;
1448:Drivers/STM32F7xx_HAL_Driver/Src/stm32f7xx_ll_sdmmc.c ****   }
1449:Drivers/STM32F7xx_HAL_Driver/Src/stm32f7xx_ll_sdmmc.c ****   else
1450:Drivers/STM32F7xx_HAL_Driver/Src/stm32f7xx_ll_sdmmc.c ****   {
1451:Drivers/STM32F7xx_HAL_Driver/Src/stm32f7xx_ll_sdmmc.c ****     return SDMMC_ERROR_GENERAL_UNKNOWN_ERR;
1452:Drivers/STM32F7xx_HAL_Driver/Src/stm32f7xx_ll_sdmmc.c ****   }
1453:Drivers/STM32F7xx_HAL_Driver/Src/stm32f7xx_ll_sdmmc.c **** }
1454:Drivers/STM32F7xx_HAL_Driver/Src/stm32f7xx_ll_sdmmc.c **** 
1455:Drivers/STM32F7xx_HAL_Driver/Src/stm32f7xx_ll_sdmmc.c **** /**
1456:Drivers/STM32F7xx_HAL_Driver/Src/stm32f7xx_ll_sdmmc.c ****   * @brief  Checks for error conditions for R7 response.
1457:Drivers/STM32F7xx_HAL_Driver/Src/stm32f7xx_ll_sdmmc.c ****   * @param  hsd: SD handle
1458:Drivers/STM32F7xx_HAL_Driver/Src/stm32f7xx_ll_sdmmc.c ****   * @retval SD Card error state
1459:Drivers/STM32F7xx_HAL_Driver/Src/stm32f7xx_ll_sdmmc.c ****   */
1460:Drivers/STM32F7xx_HAL_Driver/Src/stm32f7xx_ll_sdmmc.c **** static uint32_t SDMMC_GetCmdResp7(SDMMC_TypeDef *SDMMCx)
ARM GAS  /tmp/ccxJPvV1.s 			page 31


1461:Drivers/STM32F7xx_HAL_Driver/Src/stm32f7xx_ll_sdmmc.c **** {
 246              		.loc 1 1461 0
 247              		.cfi_startproc
 248              		@ args = 0, pretend = 0, frame = 0
 249              		@ frame_needed = 0, uses_anonymous_args = 0
 250              		@ link register save eliminated.
 251              	.LVL26:
1462:Drivers/STM32F7xx_HAL_Driver/Src/stm32f7xx_ll_sdmmc.c ****   uint32_t sta_reg;
1463:Drivers/STM32F7xx_HAL_Driver/Src/stm32f7xx_ll_sdmmc.c ****   /* 8 is the number of required instructions cycles for the below loop statement.
1464:Drivers/STM32F7xx_HAL_Driver/Src/stm32f7xx_ll_sdmmc.c ****   The SDMMC_CMDTIMEOUT is expressed in ms */
1465:Drivers/STM32F7xx_HAL_Driver/Src/stm32f7xx_ll_sdmmc.c ****   register uint32_t count = SDMMC_CMDTIMEOUT * (SystemCoreClock / 8U /1000U);
 252              		.loc 1 1465 0
 253 0000 184B     		ldr	r3, .L34
 254 0002 1B68     		ldr	r3, [r3]
 255 0004 184A     		ldr	r2, .L34+4
 256 0006 A2FB0323 		umull	r2, r3, r2, r3
 257 000a 5A0A     		lsrs	r2, r3, #9
 258 000c 41F28833 		movw	r3, #5000
 259 0010 03FB02F3 		mul	r3, r3, r2
 260              	.LVL27:
 261              	.L27:
1466:Drivers/STM32F7xx_HAL_Driver/Src/stm32f7xx_ll_sdmmc.c ****   
1467:Drivers/STM32F7xx_HAL_Driver/Src/stm32f7xx_ll_sdmmc.c ****   do
1468:Drivers/STM32F7xx_HAL_Driver/Src/stm32f7xx_ll_sdmmc.c ****   {
1469:Drivers/STM32F7xx_HAL_Driver/Src/stm32f7xx_ll_sdmmc.c ****     if (count-- == 0U)
 262              		.loc 1 1469 0
 263 0014 5A1E     		subs	r2, r3, #1
 264              	.LVL28:
 265 0016 FBB1     		cbz	r3, .L30
1470:Drivers/STM32F7xx_HAL_Driver/Src/stm32f7xx_ll_sdmmc.c ****     {
1471:Drivers/STM32F7xx_HAL_Driver/Src/stm32f7xx_ll_sdmmc.c ****       return SDMMC_ERROR_TIMEOUT;
1472:Drivers/STM32F7xx_HAL_Driver/Src/stm32f7xx_ll_sdmmc.c ****     }
1473:Drivers/STM32F7xx_HAL_Driver/Src/stm32f7xx_ll_sdmmc.c ****     sta_reg = SDMMCx->STA;
 266              		.loc 1 1473 0
 267 0018 416B     		ldr	r1, [r0, #52]
 268              	.LVL29:
 269 001a 1346     		mov	r3, r2
1474:Drivers/STM32F7xx_HAL_Driver/Src/stm32f7xx_ll_sdmmc.c ****   }while(((sta_reg & (SDMMC_FLAG_CCRCFAIL | SDMMC_FLAG_CMDREND | SDMMC_FLAG_CTIMEOUT)) == 0U) ||
1475:Drivers/STM32F7xx_HAL_Driver/Src/stm32f7xx_ll_sdmmc.c ****          ((sta_reg & SDMMC_FLAG_CMDACT) != 0U ));
 270              		.loc 1 1475 0
 271 001c 11F0450F 		tst	r1, #69
 272 0020 F8D0     		beq	.L27
1474:Drivers/STM32F7xx_HAL_Driver/Src/stm32f7xx_ll_sdmmc.c ****   }while(((sta_reg & (SDMMC_FLAG_CCRCFAIL | SDMMC_FLAG_CMDREND | SDMMC_FLAG_CTIMEOUT)) == 0U) ||
 273              		.loc 1 1474 0 discriminator 1
 274 0022 11F4006F 		tst	r1, #2048
 275 0026 F5D1     		bne	.L27
1476:Drivers/STM32F7xx_HAL_Driver/Src/stm32f7xx_ll_sdmmc.c ****     
1477:Drivers/STM32F7xx_HAL_Driver/Src/stm32f7xx_ll_sdmmc.c ****   if(__SDMMC_GET_FLAG(SDMMCx, SDMMC_FLAG_CTIMEOUT))
 276              		.loc 1 1477 0
 277 0028 436B     		ldr	r3, [r0, #52]
 278 002a 13F0040F 		tst	r3, #4
 279 002e 0BD1     		bne	.L32
1478:Drivers/STM32F7xx_HAL_Driver/Src/stm32f7xx_ll_sdmmc.c ****   {
1479:Drivers/STM32F7xx_HAL_Driver/Src/stm32f7xx_ll_sdmmc.c ****     /* Card is SD V2.0 compliant */
1480:Drivers/STM32F7xx_HAL_Driver/Src/stm32f7xx_ll_sdmmc.c ****     __SDMMC_CLEAR_FLAG(SDMMCx, SDMMC_FLAG_CTIMEOUT);
1481:Drivers/STM32F7xx_HAL_Driver/Src/stm32f7xx_ll_sdmmc.c ****     
1482:Drivers/STM32F7xx_HAL_Driver/Src/stm32f7xx_ll_sdmmc.c ****     return SDMMC_ERROR_CMD_RSP_TIMEOUT;
ARM GAS  /tmp/ccxJPvV1.s 			page 32


1483:Drivers/STM32F7xx_HAL_Driver/Src/stm32f7xx_ll_sdmmc.c ****   }
1484:Drivers/STM32F7xx_HAL_Driver/Src/stm32f7xx_ll_sdmmc.c ****   else if(__SDMMC_GET_FLAG(SDMMCx, SDMMC_FLAG_CCRCFAIL))
 280              		.loc 1 1484 0
 281 0030 436B     		ldr	r3, [r0, #52]
 282 0032 13F0010F 		tst	r3, #1
 283 0036 0BD1     		bne	.L33
1485:Drivers/STM32F7xx_HAL_Driver/Src/stm32f7xx_ll_sdmmc.c ****   {
1486:Drivers/STM32F7xx_HAL_Driver/Src/stm32f7xx_ll_sdmmc.c ****     /* Card is SD V2.0 compliant */
1487:Drivers/STM32F7xx_HAL_Driver/Src/stm32f7xx_ll_sdmmc.c ****     __SDMMC_CLEAR_FLAG(SDMMCx, SDMMC_FLAG_CCRCFAIL);
1488:Drivers/STM32F7xx_HAL_Driver/Src/stm32f7xx_ll_sdmmc.c ****     
1489:Drivers/STM32F7xx_HAL_Driver/Src/stm32f7xx_ll_sdmmc.c ****     return SDMMC_ERROR_CMD_CRC_FAIL;
1490:Drivers/STM32F7xx_HAL_Driver/Src/stm32f7xx_ll_sdmmc.c ****   }
1491:Drivers/STM32F7xx_HAL_Driver/Src/stm32f7xx_ll_sdmmc.c ****   else
1492:Drivers/STM32F7xx_HAL_Driver/Src/stm32f7xx_ll_sdmmc.c ****   {
1493:Drivers/STM32F7xx_HAL_Driver/Src/stm32f7xx_ll_sdmmc.c ****     /* Nothing to do */
1494:Drivers/STM32F7xx_HAL_Driver/Src/stm32f7xx_ll_sdmmc.c ****   }
1495:Drivers/STM32F7xx_HAL_Driver/Src/stm32f7xx_ll_sdmmc.c ****   
1496:Drivers/STM32F7xx_HAL_Driver/Src/stm32f7xx_ll_sdmmc.c ****   if(__SDMMC_GET_FLAG(SDMMCx, SDMMC_FLAG_CMDREND))
 284              		.loc 1 1496 0
 285 0038 436B     		ldr	r3, [r0, #52]
 286 003a 13F0400F 		tst	r3, #64
 287 003e 0ED0     		beq	.L31
1497:Drivers/STM32F7xx_HAL_Driver/Src/stm32f7xx_ll_sdmmc.c ****   {
1498:Drivers/STM32F7xx_HAL_Driver/Src/stm32f7xx_ll_sdmmc.c ****     /* Card is SD V2.0 compliant */
1499:Drivers/STM32F7xx_HAL_Driver/Src/stm32f7xx_ll_sdmmc.c ****     __SDMMC_CLEAR_FLAG(SDMMCx, SDMMC_FLAG_CMDREND);
 288              		.loc 1 1499 0
 289 0040 4023     		movs	r3, #64
 290 0042 8363     		str	r3, [r0, #56]
1500:Drivers/STM32F7xx_HAL_Driver/Src/stm32f7xx_ll_sdmmc.c ****   }
1501:Drivers/STM32F7xx_HAL_Driver/Src/stm32f7xx_ll_sdmmc.c ****   
1502:Drivers/STM32F7xx_HAL_Driver/Src/stm32f7xx_ll_sdmmc.c ****   return SDMMC_ERROR_NONE;
 291              		.loc 1 1502 0
 292 0044 0020     		movs	r0, #0
 293              	.LVL30:
 294 0046 7047     		bx	lr
 295              	.LVL31:
 296              	.L32:
1480:Drivers/STM32F7xx_HAL_Driver/Src/stm32f7xx_ll_sdmmc.c ****     
 297              		.loc 1 1480 0
 298 0048 0423     		movs	r3, #4
 299 004a 8363     		str	r3, [r0, #56]
1482:Drivers/STM32F7xx_HAL_Driver/Src/stm32f7xx_ll_sdmmc.c ****   }
 300              		.loc 1 1482 0
 301 004c 1846     		mov	r0, r3
 302              	.LVL32:
 303 004e 7047     		bx	lr
 304              	.LVL33:
 305              	.L33:
1487:Drivers/STM32F7xx_HAL_Driver/Src/stm32f7xx_ll_sdmmc.c ****     
 306              		.loc 1 1487 0
 307 0050 0123     		movs	r3, #1
 308 0052 8363     		str	r3, [r0, #56]
1489:Drivers/STM32F7xx_HAL_Driver/Src/stm32f7xx_ll_sdmmc.c ****   }
 309              		.loc 1 1489 0
 310 0054 1846     		mov	r0, r3
 311              	.LVL34:
 312 0056 7047     		bx	lr
ARM GAS  /tmp/ccxJPvV1.s 			page 33


 313              	.LVL35:
 314              	.L30:
1471:Drivers/STM32F7xx_HAL_Driver/Src/stm32f7xx_ll_sdmmc.c ****     }
 315              		.loc 1 1471 0
 316 0058 4FF00040 		mov	r0, #-2147483648
 317              	.LVL36:
 318 005c 7047     		bx	lr
 319              	.LVL37:
 320              	.L31:
 321              		.loc 1 1502 0
 322 005e 0020     		movs	r0, #0
 323              	.LVL38:
1503:Drivers/STM32F7xx_HAL_Driver/Src/stm32f7xx_ll_sdmmc.c ****   
1504:Drivers/STM32F7xx_HAL_Driver/Src/stm32f7xx_ll_sdmmc.c **** }
 324              		.loc 1 1504 0
 325 0060 7047     		bx	lr
 326              	.L35:
 327 0062 00BF     		.align	2
 328              	.L34:
 329 0064 00000000 		.word	SystemCoreClock
 330 0068 D34D6210 		.word	274877907
 331              		.cfi_endproc
 332              	.LFE184:
 334              		.section	.text.SDMMC_Init,"ax",%progbits
 335              		.align	1
 336              		.global	SDMMC_Init
 337              		.syntax unified
 338              		.thumb
 339              		.thumb_func
 340              		.fpu fpv5-sp-d16
 342              	SDMMC_Init:
 343              	.LFB141:
 213:Drivers/STM32F7xx_HAL_Driver/Src/stm32f7xx_ll_sdmmc.c ****   uint32_t tmpreg = 0;
 344              		.loc 1 213 0
 345              		.cfi_startproc
 346              		@ args = 28, pretend = 16, frame = 0
 347              		@ frame_needed = 0, uses_anonymous_args = 0
 348              		@ link register save eliminated.
 349              	.LVL39:
 350 0000 84B0     		sub	sp, sp, #16
 351              	.LCFI0:
 352              		.cfi_def_cfa_offset 16
 353 0002 10B4     		push	{r4}
 354              	.LCFI1:
 355              		.cfi_def_cfa_offset 20
 356              		.cfi_offset 4, -20
 357 0004 02AC     		add	r4, sp, #8
 358 0006 84E80E00 		stm	r4, {r1, r2, r3}
 359              	.LVL40:
 226:Drivers/STM32F7xx_HAL_Driver/Src/stm32f7xx_ll_sdmmc.c ****              Init.ClockBypass         |\
 360              		.loc 1 226 0
 361 000a 0B46     		mov	r3, r1
 362 000c 039A     		ldr	r2, [sp, #12]
 363 000e 1343     		orrs	r3, r3, r2
 228:Drivers/STM32F7xx_HAL_Driver/Src/stm32f7xx_ll_sdmmc.c ****              Init.BusWide             |\
 364              		.loc 1 228 0
 365 0010 049A     		ldr	r2, [sp, #16]
ARM GAS  /tmp/ccxJPvV1.s 			page 34


 227:Drivers/STM32F7xx_HAL_Driver/Src/stm32f7xx_ll_sdmmc.c ****              Init.ClockPowerSave      |\
 366              		.loc 1 227 0
 367 0012 1343     		orrs	r3, r3, r2
 229:Drivers/STM32F7xx_HAL_Driver/Src/stm32f7xx_ll_sdmmc.c ****              Init.HardwareFlowControl |\
 368              		.loc 1 229 0
 369 0014 059A     		ldr	r2, [sp, #20]
 228:Drivers/STM32F7xx_HAL_Driver/Src/stm32f7xx_ll_sdmmc.c ****              Init.BusWide             |\
 370              		.loc 1 228 0
 371 0016 1343     		orrs	r3, r3, r2
 230:Drivers/STM32F7xx_HAL_Driver/Src/stm32f7xx_ll_sdmmc.c ****              Init.ClockDiv
 372              		.loc 1 230 0
 373 0018 069A     		ldr	r2, [sp, #24]
 229:Drivers/STM32F7xx_HAL_Driver/Src/stm32f7xx_ll_sdmmc.c ****              Init.HardwareFlowControl |\
 374              		.loc 1 229 0
 375 001a 1343     		orrs	r3, r3, r2
 231:Drivers/STM32F7xx_HAL_Driver/Src/stm32f7xx_ll_sdmmc.c ****              ); 
 376              		.loc 1 231 0
 377 001c 079A     		ldr	r2, [sp, #28]
 230:Drivers/STM32F7xx_HAL_Driver/Src/stm32f7xx_ll_sdmmc.c ****              Init.ClockDiv
 378              		.loc 1 230 0
 379 001e 1343     		orrs	r3, r3, r2
 380              	.LVL41:
 235:Drivers/STM32F7xx_HAL_Driver/Src/stm32f7xx_ll_sdmmc.c **** 
 381              		.loc 1 235 0
 382 0020 4168     		ldr	r1, [r0, #4]
 383 0022 044A     		ldr	r2, .L38
 384 0024 0A40     		ands	r2, r2, r1
 385 0026 1343     		orrs	r3, r3, r2
 386              	.LVL42:
 387 0028 4360     		str	r3, [r0, #4]
 238:Drivers/STM32F7xx_HAL_Driver/Src/stm32f7xx_ll_sdmmc.c **** 
 388              		.loc 1 238 0
 389 002a 0020     		movs	r0, #0
 390              	.LVL43:
 391 002c 5DF8044B 		ldr	r4, [sp], #4
 392              	.LCFI2:
 393              		.cfi_restore 4
 394              		.cfi_def_cfa_offset 16
 395              	.LVL44:
 396 0030 04B0     		add	sp, sp, #16
 397              	.LCFI3:
 398              		.cfi_def_cfa_offset 0
 399              	.LVL45:
 400 0032 7047     		bx	lr
 401              	.L39:
 402              		.align	2
 403              	.L38:
 404 0034 0081FFFF 		.word	-32512
 405              		.cfi_endproc
 406              	.LFE141:
 408              		.section	.text.SDMMC_ReadFIFO,"ax",%progbits
 409              		.align	1
 410              		.global	SDMMC_ReadFIFO
 411              		.syntax unified
 412              		.thumb
 413              		.thumb_func
 414              		.fpu fpv5-sp-d16
ARM GAS  /tmp/ccxJPvV1.s 			page 35


 416              	SDMMC_ReadFIFO:
 417              	.LFB142:
 266:Drivers/STM32F7xx_HAL_Driver/Src/stm32f7xx_ll_sdmmc.c ****   /* Read data from Rx FIFO */ 
 418              		.loc 1 266 0
 419              		.cfi_startproc
 420              		@ args = 0, pretend = 0, frame = 0
 421              		@ frame_needed = 0, uses_anonymous_args = 0
 422              		@ link register save eliminated.
 423              	.LVL46:
 268:Drivers/STM32F7xx_HAL_Driver/Src/stm32f7xx_ll_sdmmc.c **** }
 424              		.loc 1 268 0
 425 0000 D0F88000 		ldr	r0, [r0, #128]
 426              	.LVL47:
 269:Drivers/STM32F7xx_HAL_Driver/Src/stm32f7xx_ll_sdmmc.c **** 
 427              		.loc 1 269 0
 428 0004 7047     		bx	lr
 429              		.cfi_endproc
 430              	.LFE142:
 432              		.section	.text.SDMMC_WriteFIFO,"ax",%progbits
 433              		.align	1
 434              		.global	SDMMC_WriteFIFO
 435              		.syntax unified
 436              		.thumb
 437              		.thumb_func
 438              		.fpu fpv5-sp-d16
 440              	SDMMC_WriteFIFO:
 441              	.LFB143:
 278:Drivers/STM32F7xx_HAL_Driver/Src/stm32f7xx_ll_sdmmc.c ****   /* Write data to FIFO */ 
 442              		.loc 1 278 0
 443              		.cfi_startproc
 444              		@ args = 0, pretend = 0, frame = 0
 445              		@ frame_needed = 0, uses_anonymous_args = 0
 446              		@ link register save eliminated.
 447              	.LVL48:
 280:Drivers/STM32F7xx_HAL_Driver/Src/stm32f7xx_ll_sdmmc.c **** 
 448              		.loc 1 280 0
 449 0000 0B68     		ldr	r3, [r1]
 450 0002 C0F88030 		str	r3, [r0, #128]
 283:Drivers/STM32F7xx_HAL_Driver/Src/stm32f7xx_ll_sdmmc.c **** 
 451              		.loc 1 283 0
 452 0006 0020     		movs	r0, #0
 453              	.LVL49:
 454 0008 7047     		bx	lr
 455              		.cfi_endproc
 456              	.LFE143:
 458              		.section	.text.SDMMC_PowerState_ON,"ax",%progbits
 459              		.align	1
 460              		.global	SDMMC_PowerState_ON
 461              		.syntax unified
 462              		.thumb
 463              		.thumb_func
 464              		.fpu fpv5-sp-d16
 466              	SDMMC_PowerState_ON:
 467              	.LFB144:
 310:Drivers/STM32F7xx_HAL_Driver/Src/stm32f7xx_ll_sdmmc.c ****   /* Set power state to ON */ 
 468              		.loc 1 310 0
 469              		.cfi_startproc
ARM GAS  /tmp/ccxJPvV1.s 			page 36


 470              		@ args = 0, pretend = 0, frame = 0
 471              		@ frame_needed = 0, uses_anonymous_args = 0
 472              	.LVL50:
 473 0000 08B5     		push	{r3, lr}
 474              	.LCFI4:
 475              		.cfi_def_cfa_offset 8
 476              		.cfi_offset 3, -8
 477              		.cfi_offset 14, -4
 312:Drivers/STM32F7xx_HAL_Driver/Src/stm32f7xx_ll_sdmmc.c **** 
 478              		.loc 1 312 0
 479 0002 0323     		movs	r3, #3
 480 0004 0360     		str	r3, [r0]
 316:Drivers/STM32F7xx_HAL_Driver/Src/stm32f7xx_ll_sdmmc.c ****   
 481              		.loc 1 316 0
 482 0006 0220     		movs	r0, #2
 483              	.LVL51:
 484 0008 FFF7FEFF 		bl	HAL_Delay
 485              	.LVL52:
 319:Drivers/STM32F7xx_HAL_Driver/Src/stm32f7xx_ll_sdmmc.c **** 
 486              		.loc 1 319 0
 487 000c 0020     		movs	r0, #0
 488 000e 08BD     		pop	{r3, pc}
 489              		.cfi_endproc
 490              	.LFE144:
 492              		.section	.text.SDMMC_PowerState_OFF,"ax",%progbits
 493              		.align	1
 494              		.global	SDMMC_PowerState_OFF
 495              		.syntax unified
 496              		.thumb
 497              		.thumb_func
 498              		.fpu fpv5-sp-d16
 500              	SDMMC_PowerState_OFF:
 501              	.LFB145:
 327:Drivers/STM32F7xx_HAL_Driver/Src/stm32f7xx_ll_sdmmc.c ****   /* Set power state to OFF */
 502              		.loc 1 327 0
 503              		.cfi_startproc
 504              		@ args = 0, pretend = 0, frame = 0
 505              		@ frame_needed = 0, uses_anonymous_args = 0
 506              		@ link register save eliminated.
 507              	.LVL53:
 329:Drivers/STM32F7xx_HAL_Driver/Src/stm32f7xx_ll_sdmmc.c ****   
 508              		.loc 1 329 0
 509 0000 0023     		movs	r3, #0
 510 0002 0360     		str	r3, [r0]
 332:Drivers/STM32F7xx_HAL_Driver/Src/stm32f7xx_ll_sdmmc.c **** 
 511              		.loc 1 332 0
 512 0004 1846     		mov	r0, r3
 513              	.LVL54:
 514 0006 7047     		bx	lr
 515              		.cfi_endproc
 516              	.LFE145:
 518              		.section	.text.SDMMC_GetPowerState,"ax",%progbits
 519              		.align	1
 520              		.global	SDMMC_GetPowerState
 521              		.syntax unified
 522              		.thumb
 523              		.thumb_func
ARM GAS  /tmp/ccxJPvV1.s 			page 37


 524              		.fpu fpv5-sp-d16
 526              	SDMMC_GetPowerState:
 527              	.LFB146:
 344:Drivers/STM32F7xx_HAL_Driver/Src/stm32f7xx_ll_sdmmc.c ****   return (SDMMCx->POWER & SDMMC_POWER_PWRCTRL);
 528              		.loc 1 344 0
 529              		.cfi_startproc
 530              		@ args = 0, pretend = 0, frame = 0
 531              		@ frame_needed = 0, uses_anonymous_args = 0
 532              		@ link register save eliminated.
 533              	.LVL55:
 345:Drivers/STM32F7xx_HAL_Driver/Src/stm32f7xx_ll_sdmmc.c **** }
 534              		.loc 1 345 0
 535 0000 0068     		ldr	r0, [r0]
 536              	.LVL56:
 346:Drivers/STM32F7xx_HAL_Driver/Src/stm32f7xx_ll_sdmmc.c **** 
 537              		.loc 1 346 0
 538 0002 00F00300 		and	r0, r0, #3
 539 0006 7047     		bx	lr
 540              		.cfi_endproc
 541              	.LFE146:
 543              		.section	.text.SDMMC_SendCommand,"ax",%progbits
 544              		.align	1
 545              		.global	SDMMC_SendCommand
 546              		.syntax unified
 547              		.thumb
 548              		.thumb_func
 549              		.fpu fpv5-sp-d16
 551              	SDMMC_SendCommand:
 552              	.LFB147:
 357:Drivers/STM32F7xx_HAL_Driver/Src/stm32f7xx_ll_sdmmc.c ****   uint32_t tmpreg = 0;
 553              		.loc 1 357 0
 554              		.cfi_startproc
 555              		@ args = 0, pretend = 0, frame = 0
 556              		@ frame_needed = 0, uses_anonymous_args = 0
 557              		@ link register save eliminated.
 558              	.LVL57:
 367:Drivers/STM32F7xx_HAL_Driver/Src/stm32f7xx_ll_sdmmc.c **** 
 559              		.loc 1 367 0
 560 0000 0B68     		ldr	r3, [r1]
 561 0002 8360     		str	r3, [r0, #8]
 370:Drivers/STM32F7xx_HAL_Driver/Src/stm32f7xx_ll_sdmmc.c ****                        Command->Response         |\
 562              		.loc 1 370 0
 563 0004 4B68     		ldr	r3, [r1, #4]
 371:Drivers/STM32F7xx_HAL_Driver/Src/stm32f7xx_ll_sdmmc.c ****                        Command->WaitForInterrupt |\
 564              		.loc 1 371 0
 565 0006 8A68     		ldr	r2, [r1, #8]
 370:Drivers/STM32F7xx_HAL_Driver/Src/stm32f7xx_ll_sdmmc.c ****                        Command->Response         |\
 566              		.loc 1 370 0
 567 0008 1343     		orrs	r3, r3, r2
 372:Drivers/STM32F7xx_HAL_Driver/Src/stm32f7xx_ll_sdmmc.c ****                        Command->CPSM);
 568              		.loc 1 372 0
 569 000a CA68     		ldr	r2, [r1, #12]
 371:Drivers/STM32F7xx_HAL_Driver/Src/stm32f7xx_ll_sdmmc.c ****                        Command->WaitForInterrupt |\
 570              		.loc 1 371 0
 571 000c 1343     		orrs	r3, r3, r2
 373:Drivers/STM32F7xx_HAL_Driver/Src/stm32f7xx_ll_sdmmc.c ****   
 572              		.loc 1 373 0
ARM GAS  /tmp/ccxJPvV1.s 			page 38


 573 000e 0A69     		ldr	r2, [r1, #16]
 372:Drivers/STM32F7xx_HAL_Driver/Src/stm32f7xx_ll_sdmmc.c ****                        Command->CPSM);
 574              		.loc 1 372 0
 575 0010 1343     		orrs	r3, r3, r2
 576              	.LVL58:
 376:Drivers/STM32F7xx_HAL_Driver/Src/stm32f7xx_ll_sdmmc.c ****   
 577              		.loc 1 376 0
 578 0012 C168     		ldr	r1, [r0, #12]
 579              	.LVL59:
 580 0014 024A     		ldr	r2, .L47
 581 0016 0A40     		ands	r2, r2, r1
 582 0018 1343     		orrs	r3, r3, r2
 583              	.LVL60:
 584 001a C360     		str	r3, [r0, #12]
 585              	.LVL61:
 379:Drivers/STM32F7xx_HAL_Driver/Src/stm32f7xx_ll_sdmmc.c **** 
 586              		.loc 1 379 0
 587 001c 0020     		movs	r0, #0
 588              	.LVL62:
 589 001e 7047     		bx	lr
 590              	.L48:
 591              		.align	2
 592              	.L47:
 593 0020 00F0FFFF 		.word	-4096
 594              		.cfi_endproc
 595              	.LFE147:
 597              		.section	.text.SDMMC_GetCommandResponse,"ax",%progbits
 598              		.align	1
 599              		.global	SDMMC_GetCommandResponse
 600              		.syntax unified
 601              		.thumb
 602              		.thumb_func
 603              		.fpu fpv5-sp-d16
 605              	SDMMC_GetCommandResponse:
 606              	.LFB148:
 387:Drivers/STM32F7xx_HAL_Driver/Src/stm32f7xx_ll_sdmmc.c ****   return (uint8_t)(SDMMCx->RESPCMD);
 607              		.loc 1 387 0
 608              		.cfi_startproc
 609              		@ args = 0, pretend = 0, frame = 0
 610              		@ frame_needed = 0, uses_anonymous_args = 0
 611              		@ link register save eliminated.
 612              	.LVL63:
 388:Drivers/STM32F7xx_HAL_Driver/Src/stm32f7xx_ll_sdmmc.c **** }
 613              		.loc 1 388 0
 614 0000 0069     		ldr	r0, [r0, #16]
 615              	.LVL64:
 389:Drivers/STM32F7xx_HAL_Driver/Src/stm32f7xx_ll_sdmmc.c **** 
 616              		.loc 1 389 0
 617 0002 C0B2     		uxtb	r0, r0
 618 0004 7047     		bx	lr
 619              		.cfi_endproc
 620              	.LFE148:
 622              		.section	.text.SDMMC_GetResponse,"ax",%progbits
 623              		.align	1
 624              		.global	SDMMC_GetResponse
 625              		.syntax unified
 626              		.thumb
ARM GAS  /tmp/ccxJPvV1.s 			page 39


 627              		.thumb_func
 628              		.fpu fpv5-sp-d16
 630              	SDMMC_GetResponse:
 631              	.LFB149:
 404:Drivers/STM32F7xx_HAL_Driver/Src/stm32f7xx_ll_sdmmc.c ****   uint32_t tmp;
 632              		.loc 1 404 0
 633              		.cfi_startproc
 634              		@ args = 0, pretend = 0, frame = 0
 635              		@ frame_needed = 0, uses_anonymous_args = 0
 636              		@ link register save eliminated.
 637              	.LVL65:
 411:Drivers/STM32F7xx_HAL_Driver/Src/stm32f7xx_ll_sdmmc.c ****   
 638              		.loc 1 411 0
 639 0000 1430     		adds	r0, r0, #20
 640              	.LVL66:
 413:Drivers/STM32F7xx_HAL_Driver/Src/stm32f7xx_ll_sdmmc.c **** }  
 641              		.loc 1 413 0
 642 0002 4058     		ldr	r0, [r0, r1]
 643              	.LVL67:
 414:Drivers/STM32F7xx_HAL_Driver/Src/stm32f7xx_ll_sdmmc.c **** 
 644              		.loc 1 414 0
 645 0004 7047     		bx	lr
 646              		.cfi_endproc
 647              	.LFE149:
 649              		.section	.text.SDMMC_GetCmdResp1,"ax",%progbits
 650              		.align	1
 651              		.syntax unified
 652              		.thumb
 653              		.thumb_func
 654              		.fpu fpv5-sp-d16
 656              	SDMMC_GetCmdResp1:
 657              	.LFB180:
1169:Drivers/STM32F7xx_HAL_Driver/Src/stm32f7xx_ll_sdmmc.c ****   uint32_t response_r1;
 658              		.loc 1 1169 0
 659              		.cfi_startproc
 660              		@ args = 0, pretend = 0, frame = 0
 661              		@ frame_needed = 0, uses_anonymous_args = 0
 662              	.LVL68:
 663 0000 38B5     		push	{r3, r4, r5, lr}
 664              	.LCFI5:
 665              		.cfi_def_cfa_offset 16
 666              		.cfi_offset 3, -16
 667              		.cfi_offset 4, -12
 668              		.cfi_offset 5, -8
 669              		.cfi_offset 14, -4
1175:Drivers/STM32F7xx_HAL_Driver/Src/stm32f7xx_ll_sdmmc.c ****   
 670              		.loc 1 1175 0
 671 0002 524B     		ldr	r3, .L80
 672 0004 1B68     		ldr	r3, [r3]
 673 0006 524C     		ldr	r4, .L80+4
 674 0008 A4FB0343 		umull	r4, r3, r4, r3
 675 000c 5B0A     		lsrs	r3, r3, #9
 676 000e 02FB03F2 		mul	r2, r2, r3
 677              	.LVL69:
 678              	.L53:
1179:Drivers/STM32F7xx_HAL_Driver/Src/stm32f7xx_ll_sdmmc.c ****     {
 679              		.loc 1 1179 0
ARM GAS  /tmp/ccxJPvV1.s 			page 40


 680 0012 531E     		subs	r3, r2, #1
 681              	.LVL70:
 682 0014 002A     		cmp	r2, #0
 683 0016 60D0     		beq	.L56
1183:Drivers/STM32F7xx_HAL_Driver/Src/stm32f7xx_ll_sdmmc.c ****   }while(((sta_reg & (SDMMC_FLAG_CCRCFAIL | SDMMC_FLAG_CMDREND | SDMMC_FLAG_CTIMEOUT)) == 0U) ||
 684              		.loc 1 1183 0
 685 0018 446B     		ldr	r4, [r0, #52]
 686              	.LVL71:
 687 001a 1A46     		mov	r2, r3
1185:Drivers/STM32F7xx_HAL_Driver/Src/stm32f7xx_ll_sdmmc.c ****     
 688              		.loc 1 1185 0
 689 001c 14F0450F 		tst	r4, #69
 690 0020 F7D0     		beq	.L53
1184:Drivers/STM32F7xx_HAL_Driver/Src/stm32f7xx_ll_sdmmc.c ****          ((sta_reg & SDMMC_FLAG_CMDACT) != 0U ));
 691              		.loc 1 1184 0 discriminator 1
 692 0022 14F4006F 		tst	r4, #2048
 693 0026 F4D1     		bne	.L53
1187:Drivers/STM32F7xx_HAL_Driver/Src/stm32f7xx_ll_sdmmc.c ****   {
 694              		.loc 1 1187 0
 695 0028 436B     		ldr	r3, [r0, #52]
 696              	.LVL72:
 697 002a 13F0040F 		tst	r3, #4
 698 002e 07D1     		bne	.L78
1193:Drivers/STM32F7xx_HAL_Driver/Src/stm32f7xx_ll_sdmmc.c ****   {
 699              		.loc 1 1193 0
 700 0030 436B     		ldr	r3, [r0, #52]
 701 0032 13F0010F 		tst	r3, #1
 702 0036 07D0     		beq	.L55
1195:Drivers/STM32F7xx_HAL_Driver/Src/stm32f7xx_ll_sdmmc.c ****     
 703              		.loc 1 1195 0
 704 0038 0123     		movs	r3, #1
 705 003a 8363     		str	r3, [r0, #56]
1197:Drivers/STM32F7xx_HAL_Driver/Src/stm32f7xx_ll_sdmmc.c ****   }
 706              		.loc 1 1197 0
 707 003c 1846     		mov	r0, r3
 708              	.LVL73:
 709 003e 4EE0     		b	.L51
 710              	.LVL74:
 711              	.L78:
1189:Drivers/STM32F7xx_HAL_Driver/Src/stm32f7xx_ll_sdmmc.c ****     
 712              		.loc 1 1189 0
 713 0040 0423     		movs	r3, #4
 714 0042 8363     		str	r3, [r0, #56]
1191:Drivers/STM32F7xx_HAL_Driver/Src/stm32f7xx_ll_sdmmc.c ****   }
 715              		.loc 1 1191 0
 716 0044 1846     		mov	r0, r3
 717              	.LVL75:
 718 0046 4AE0     		b	.L51
 719              	.LVL76:
 720              	.L55:
 721 0048 0D46     		mov	r5, r1
 722 004a 0446     		mov	r4, r0
 723              	.LVL77:
1205:Drivers/STM32F7xx_HAL_Driver/Src/stm32f7xx_ll_sdmmc.c ****   
 724              		.loc 1 1205 0
 725 004c C523     		movs	r3, #197
 726 004e 8363     		str	r3, [r0, #56]
ARM GAS  /tmp/ccxJPvV1.s 			page 41


1208:Drivers/STM32F7xx_HAL_Driver/Src/stm32f7xx_ll_sdmmc.c ****   {
 727              		.loc 1 1208 0
 728 0050 FFF7FEFF 		bl	SDMMC_GetCommandResponse
 729              	.LVL78:
 730 0054 A842     		cmp	r0, r5
 731 0056 01D0     		beq	.L79
1210:Drivers/STM32F7xx_HAL_Driver/Src/stm32f7xx_ll_sdmmc.c ****   }
 732              		.loc 1 1210 0
 733 0058 0120     		movs	r0, #1
 734 005a 40E0     		b	.L51
 735              	.L79:
1214:Drivers/STM32F7xx_HAL_Driver/Src/stm32f7xx_ll_sdmmc.c ****   
 736              		.loc 1 1214 0
 737 005c 0021     		movs	r1, #0
 738 005e 2046     		mov	r0, r4
 739 0060 FFF7FEFF 		bl	SDMMC_GetResponse
 740              	.LVL79:
1216:Drivers/STM32F7xx_HAL_Driver/Src/stm32f7xx_ll_sdmmc.c ****   {
 741              		.loc 1 1216 0
 742 0064 3B4B     		ldr	r3, .L80+8
 743 0066 0340     		ands	r3, r3, r0
 744 0068 D3B3     		cbz	r3, .L58
1220:Drivers/STM32F7xx_HAL_Driver/Src/stm32f7xx_ll_sdmmc.c ****   {
 745              		.loc 1 1220 0
 746 006a 0028     		cmp	r0, #0
 747 006c 3ADB     		blt	.L59
1224:Drivers/STM32F7xx_HAL_Driver/Src/stm32f7xx_ll_sdmmc.c ****   {
 748              		.loc 1 1224 0
 749 006e 10F0804F 		tst	r0, #1073741824
 750 0072 3AD1     		bne	.L60
1228:Drivers/STM32F7xx_HAL_Driver/Src/stm32f7xx_ll_sdmmc.c ****   {
 751              		.loc 1 1228 0
 752 0074 10F0005F 		tst	r0, #536870912
 753 0078 39D1     		bne	.L61
1232:Drivers/STM32F7xx_HAL_Driver/Src/stm32f7xx_ll_sdmmc.c ****   {
 754              		.loc 1 1232 0
 755 007a 10F0805F 		tst	r0, #268435456
 756 007e 38D1     		bne	.L62
1236:Drivers/STM32F7xx_HAL_Driver/Src/stm32f7xx_ll_sdmmc.c ****   {
 757              		.loc 1 1236 0
 758 0080 10F0006F 		tst	r0, #134217728
 759 0084 38D1     		bne	.L63
1240:Drivers/STM32F7xx_HAL_Driver/Src/stm32f7xx_ll_sdmmc.c ****   {
 760              		.loc 1 1240 0
 761 0086 10F0806F 		tst	r0, #67108864
 762 008a 38D1     		bne	.L64
1244:Drivers/STM32F7xx_HAL_Driver/Src/stm32f7xx_ll_sdmmc.c ****   {
 763              		.loc 1 1244 0
 764 008c 10F0807F 		tst	r0, #16777216
 765 0090 38D1     		bne	.L65
1248:Drivers/STM32F7xx_HAL_Driver/Src/stm32f7xx_ll_sdmmc.c ****   {
 766              		.loc 1 1248 0
 767 0092 10F4000F 		tst	r0, #8388608
 768 0096 38D1     		bne	.L66
1252:Drivers/STM32F7xx_HAL_Driver/Src/stm32f7xx_ll_sdmmc.c ****   {
 769              		.loc 1 1252 0
 770 0098 10F4800F 		tst	r0, #4194304
ARM GAS  /tmp/ccxJPvV1.s 			page 42


 771 009c 38D1     		bne	.L67
1256:Drivers/STM32F7xx_HAL_Driver/Src/stm32f7xx_ll_sdmmc.c ****   {
 772              		.loc 1 1256 0
 773 009e 10F4001F 		tst	r0, #2097152
 774 00a2 38D1     		bne	.L68
1260:Drivers/STM32F7xx_HAL_Driver/Src/stm32f7xx_ll_sdmmc.c ****   {
 775              		.loc 1 1260 0
 776 00a4 10F4801F 		tst	r0, #1048576
 777 00a8 38D1     		bne	.L69
1264:Drivers/STM32F7xx_HAL_Driver/Src/stm32f7xx_ll_sdmmc.c ****   {
 778              		.loc 1 1264 0
 779 00aa 10F4802F 		tst	r0, #262144
 780 00ae 38D1     		bne	.L70
1268:Drivers/STM32F7xx_HAL_Driver/Src/stm32f7xx_ll_sdmmc.c ****   {
 781              		.loc 1 1268 0
 782 00b0 10F4003F 		tst	r0, #131072
 783 00b4 38D1     		bne	.L71
1272:Drivers/STM32F7xx_HAL_Driver/Src/stm32f7xx_ll_sdmmc.c ****   {
 784              		.loc 1 1272 0
 785 00b6 10F4803F 		tst	r0, #65536
 786 00ba 38D1     		bne	.L72
1276:Drivers/STM32F7xx_HAL_Driver/Src/stm32f7xx_ll_sdmmc.c ****   {
 787              		.loc 1 1276 0
 788 00bc 10F4004F 		tst	r0, #32768
 789 00c0 38D1     		bne	.L73
1280:Drivers/STM32F7xx_HAL_Driver/Src/stm32f7xx_ll_sdmmc.c ****   {
 790              		.loc 1 1280 0
 791 00c2 10F4804F 		tst	r0, #16384
 792 00c6 38D1     		bne	.L74
1284:Drivers/STM32F7xx_HAL_Driver/Src/stm32f7xx_ll_sdmmc.c ****   {
 793              		.loc 1 1284 0
 794 00c8 10F4005F 		tst	r0, #8192
 795 00cc 38D1     		bne	.L75
1288:Drivers/STM32F7xx_HAL_Driver/Src/stm32f7xx_ll_sdmmc.c ****   {
 796              		.loc 1 1288 0
 797 00ce 10F0080F 		tst	r0, #8
 798 00d2 38D0     		beq	.L76
1290:Drivers/STM32F7xx_HAL_Driver/Src/stm32f7xx_ll_sdmmc.c ****   }
 799              		.loc 1 1290 0
 800 00d4 4FF40000 		mov	r0, #8388608
 801              	.LVL80:
 802 00d8 01E0     		b	.L51
 803              	.LVL81:
 804              	.L56:
1181:Drivers/STM32F7xx_HAL_Driver/Src/stm32f7xx_ll_sdmmc.c ****     }
 805              		.loc 1 1181 0
 806 00da 4FF00040 		mov	r0, #-2147483648
 807              	.LVL82:
 808              	.L51:
1296:Drivers/STM32F7xx_HAL_Driver/Src/stm32f7xx_ll_sdmmc.c **** 
 809              		.loc 1 1296 0
 810 00de 38BD     		pop	{r3, r4, r5, pc}
 811              	.LVL83:
 812              	.L58:
1218:Drivers/STM32F7xx_HAL_Driver/Src/stm32f7xx_ll_sdmmc.c ****   }
 813              		.loc 1 1218 0
 814 00e0 0020     		movs	r0, #0
ARM GAS  /tmp/ccxJPvV1.s 			page 43


 815              	.LVL84:
 816 00e2 FCE7     		b	.L51
 817              	.LVL85:
 818              	.L59:
1222:Drivers/STM32F7xx_HAL_Driver/Src/stm32f7xx_ll_sdmmc.c ****   }
 819              		.loc 1 1222 0
 820 00e4 4FF00070 		mov	r0, #33554432
 821              	.LVL86:
 822 00e8 F9E7     		b	.L51
 823              	.LVL87:
 824              	.L60:
1226:Drivers/STM32F7xx_HAL_Driver/Src/stm32f7xx_ll_sdmmc.c ****   }
 825              		.loc 1 1226 0
 826 00ea 4020     		movs	r0, #64
 827              	.LVL88:
 828 00ec F7E7     		b	.L51
 829              	.LVL89:
 830              	.L61:
1230:Drivers/STM32F7xx_HAL_Driver/Src/stm32f7xx_ll_sdmmc.c ****   }
 831              		.loc 1 1230 0
 832 00ee 8020     		movs	r0, #128
 833              	.LVL90:
 834 00f0 F5E7     		b	.L51
 835              	.LVL91:
 836              	.L62:
1234:Drivers/STM32F7xx_HAL_Driver/Src/stm32f7xx_ll_sdmmc.c ****   }
 837              		.loc 1 1234 0
 838 00f2 4FF48070 		mov	r0, #256
 839              	.LVL92:
 840 00f6 F2E7     		b	.L51
 841              	.LVL93:
 842              	.L63:
1238:Drivers/STM32F7xx_HAL_Driver/Src/stm32f7xx_ll_sdmmc.c ****   }
 843              		.loc 1 1238 0
 844 00f8 4FF40070 		mov	r0, #512
 845              	.LVL94:
 846 00fc EFE7     		b	.L51
 847              	.LVL95:
 848              	.L64:
1242:Drivers/STM32F7xx_HAL_Driver/Src/stm32f7xx_ll_sdmmc.c ****   }
 849              		.loc 1 1242 0
 850 00fe 4FF48060 		mov	r0, #1024
 851              	.LVL96:
 852 0102 ECE7     		b	.L51
 853              	.LVL97:
 854              	.L65:
1246:Drivers/STM32F7xx_HAL_Driver/Src/stm32f7xx_ll_sdmmc.c ****   }
 855              		.loc 1 1246 0
 856 0104 4FF40060 		mov	r0, #2048
 857              	.LVL98:
 858 0108 E9E7     		b	.L51
 859              	.LVL99:
 860              	.L66:
1250:Drivers/STM32F7xx_HAL_Driver/Src/stm32f7xx_ll_sdmmc.c ****   }
 861              		.loc 1 1250 0
 862 010a 4FF48050 		mov	r0, #4096
 863              	.LVL100:
ARM GAS  /tmp/ccxJPvV1.s 			page 44


 864 010e E6E7     		b	.L51
 865              	.LVL101:
 866              	.L67:
1254:Drivers/STM32F7xx_HAL_Driver/Src/stm32f7xx_ll_sdmmc.c ****   }
 867              		.loc 1 1254 0
 868 0110 4FF40050 		mov	r0, #8192
 869              	.LVL102:
 870 0114 E3E7     		b	.L51
 871              	.LVL103:
 872              	.L68:
1258:Drivers/STM32F7xx_HAL_Driver/Src/stm32f7xx_ll_sdmmc.c ****   }
 873              		.loc 1 1258 0
 874 0116 4FF48040 		mov	r0, #16384
 875              	.LVL104:
 876 011a E0E7     		b	.L51
 877              	.LVL105:
 878              	.L69:
1262:Drivers/STM32F7xx_HAL_Driver/Src/stm32f7xx_ll_sdmmc.c ****   }
 879              		.loc 1 1262 0
 880 011c 4FF40040 		mov	r0, #32768
 881              	.LVL106:
 882 0120 DDE7     		b	.L51
 883              	.LVL107:
 884              	.L70:
1266:Drivers/STM32F7xx_HAL_Driver/Src/stm32f7xx_ll_sdmmc.c ****   }
 885              		.loc 1 1266 0
 886 0122 4FF40030 		mov	r0, #131072
 887              	.LVL108:
 888 0126 DAE7     		b	.L51
 889              	.LVL109:
 890              	.L71:
1270:Drivers/STM32F7xx_HAL_Driver/Src/stm32f7xx_ll_sdmmc.c ****   }
 891              		.loc 1 1270 0
 892 0128 4FF48020 		mov	r0, #262144
 893              	.LVL110:
 894 012c D7E7     		b	.L51
 895              	.LVL111:
 896              	.L72:
1274:Drivers/STM32F7xx_HAL_Driver/Src/stm32f7xx_ll_sdmmc.c ****   }
 897              		.loc 1 1274 0
 898 012e 4FF40020 		mov	r0, #524288
 899              	.LVL112:
 900 0132 D4E7     		b	.L51
 901              	.LVL113:
 902              	.L73:
1278:Drivers/STM32F7xx_HAL_Driver/Src/stm32f7xx_ll_sdmmc.c ****   }
 903              		.loc 1 1278 0
 904 0134 4FF48010 		mov	r0, #1048576
 905              	.LVL114:
 906 0138 D1E7     		b	.L51
 907              	.LVL115:
 908              	.L74:
1282:Drivers/STM32F7xx_HAL_Driver/Src/stm32f7xx_ll_sdmmc.c ****   }
 909              		.loc 1 1282 0
 910 013a 4FF40010 		mov	r0, #2097152
 911              	.LVL116:
 912 013e CEE7     		b	.L51
ARM GAS  /tmp/ccxJPvV1.s 			page 45


 913              	.LVL117:
 914              	.L75:
1286:Drivers/STM32F7xx_HAL_Driver/Src/stm32f7xx_ll_sdmmc.c ****   }
 915              		.loc 1 1286 0
 916 0140 4FF48000 		mov	r0, #4194304
 917              	.LVL118:
 918 0144 CBE7     		b	.L51
 919              	.LVL119:
 920              	.L76:
1294:Drivers/STM32F7xx_HAL_Driver/Src/stm32f7xx_ll_sdmmc.c ****   }
 921              		.loc 1 1294 0
 922 0146 4FF48030 		mov	r0, #65536
 923              	.LVL120:
 924 014a C8E7     		b	.L51
 925              	.L81:
 926              		.align	2
 927              	.L80:
 928 014c 00000000 		.word	SystemCoreClock
 929 0150 D34D6210 		.word	274877907
 930 0154 08E0FFFD 		.word	-33562616
 931              		.cfi_endproc
 932              	.LFE180:
 934              		.section	.text.SDMMC_GetCmdResp6,"ax",%progbits
 935              		.align	1
 936              		.syntax unified
 937              		.thumb
 938              		.thumb_func
 939              		.fpu fpv5-sp-d16
 941              	SDMMC_GetCmdResp6:
 942              	.LFB183:
1388:Drivers/STM32F7xx_HAL_Driver/Src/stm32f7xx_ll_sdmmc.c ****   uint32_t response_r1;
 943              		.loc 1 1388 0
 944              		.cfi_startproc
 945              		@ args = 0, pretend = 0, frame = 0
 946              		@ frame_needed = 0, uses_anonymous_args = 0
 947              	.LVL121:
 948 0000 70B5     		push	{r4, r5, r6, lr}
 949              	.LCFI6:
 950              		.cfi_def_cfa_offset 16
 951              		.cfi_offset 4, -16
 952              		.cfi_offset 5, -12
 953              		.cfi_offset 6, -8
 954              		.cfi_offset 14, -4
1394:Drivers/STM32F7xx_HAL_Driver/Src/stm32f7xx_ll_sdmmc.c ****   
 955              		.loc 1 1394 0
 956 0002 264B     		ldr	r3, .L96
 957 0004 1B68     		ldr	r3, [r3]
 958 0006 264C     		ldr	r4, .L96+4
 959 0008 A4FB0343 		umull	r4, r3, r4, r3
 960 000c 5C0A     		lsrs	r4, r3, #9
 961 000e 41F28833 		movw	r3, #5000
 962 0012 03FB04F3 		mul	r3, r3, r4
 963              	.LVL122:
 964              	.L84:
1398:Drivers/STM32F7xx_HAL_Driver/Src/stm32f7xx_ll_sdmmc.c ****     {
 965              		.loc 1 1398 0
 966 0016 5C1E     		subs	r4, r3, #1
ARM GAS  /tmp/ccxJPvV1.s 			page 46


 967              	.LVL123:
 968 0018 B3B3     		cbz	r3, .L88
1402:Drivers/STM32F7xx_HAL_Driver/Src/stm32f7xx_ll_sdmmc.c ****   }while(((sta_reg & (SDMMC_FLAG_CCRCFAIL | SDMMC_FLAG_CMDREND | SDMMC_FLAG_CTIMEOUT)) == 0U) ||
 969              		.loc 1 1402 0
 970 001a 456B     		ldr	r5, [r0, #52]
 971              	.LVL124:
 972 001c 2346     		mov	r3, r4
1404:Drivers/STM32F7xx_HAL_Driver/Src/stm32f7xx_ll_sdmmc.c ****     
 973              		.loc 1 1404 0
 974 001e 15F0450F 		tst	r5, #69
 975 0022 F8D0     		beq	.L84
1403:Drivers/STM32F7xx_HAL_Driver/Src/stm32f7xx_ll_sdmmc.c ****          ((sta_reg & SDMMC_FLAG_CMDACT) != 0U ));
 976              		.loc 1 1403 0 discriminator 1
 977 0024 15F4006F 		tst	r5, #2048
 978 0028 F5D1     		bne	.L84
1406:Drivers/STM32F7xx_HAL_Driver/Src/stm32f7xx_ll_sdmmc.c ****   {
 979              		.loc 1 1406 0
 980 002a 436B     		ldr	r3, [r0, #52]
 981 002c 13F0040F 		tst	r3, #4
 982 0030 07D1     		bne	.L93
1412:Drivers/STM32F7xx_HAL_Driver/Src/stm32f7xx_ll_sdmmc.c ****   {
 983              		.loc 1 1412 0
 984 0032 436B     		ldr	r3, [r0, #52]
 985 0034 13F0010F 		tst	r3, #1
 986 0038 07D0     		beq	.L86
1414:Drivers/STM32F7xx_HAL_Driver/Src/stm32f7xx_ll_sdmmc.c ****     
 987              		.loc 1 1414 0
 988 003a 0123     		movs	r3, #1
 989 003c 8363     		str	r3, [r0, #56]
1416:Drivers/STM32F7xx_HAL_Driver/Src/stm32f7xx_ll_sdmmc.c ****   }
 990              		.loc 1 1416 0
 991 003e 1846     		mov	r0, r3
 992              	.LVL125:
 993 0040 24E0     		b	.L82
 994              	.LVL126:
 995              	.L93:
1408:Drivers/STM32F7xx_HAL_Driver/Src/stm32f7xx_ll_sdmmc.c ****     
 996              		.loc 1 1408 0
 997 0042 0423     		movs	r3, #4
 998 0044 8363     		str	r3, [r0, #56]
1410:Drivers/STM32F7xx_HAL_Driver/Src/stm32f7xx_ll_sdmmc.c ****   }
 999              		.loc 1 1410 0
 1000 0046 1846     		mov	r0, r3
 1001              	.LVL127:
 1002 0048 20E0     		b	.L82
 1003              	.LVL128:
 1004              	.L86:
 1005 004a 1646     		mov	r6, r2
 1006 004c 0D46     		mov	r5, r1
 1007              	.LVL129:
 1008 004e 0446     		mov	r4, r0
 1009              	.LVL130:
1424:Drivers/STM32F7xx_HAL_Driver/Src/stm32f7xx_ll_sdmmc.c ****   {
 1010              		.loc 1 1424 0
 1011 0050 FFF7FEFF 		bl	SDMMC_GetCommandResponse
 1012              	.LVL131:
 1013 0054 A842     		cmp	r0, r5
ARM GAS  /tmp/ccxJPvV1.s 			page 47


 1014 0056 01D0     		beq	.L94
1426:Drivers/STM32F7xx_HAL_Driver/Src/stm32f7xx_ll_sdmmc.c ****   }
 1015              		.loc 1 1426 0
 1016 0058 0120     		movs	r0, #1
 1017 005a 17E0     		b	.L82
 1018              	.L94:
1430:Drivers/STM32F7xx_HAL_Driver/Src/stm32f7xx_ll_sdmmc.c ****   
 1019              		.loc 1 1430 0
 1020 005c C523     		movs	r3, #197
 1021 005e A363     		str	r3, [r4, #56]
1433:Drivers/STM32F7xx_HAL_Driver/Src/stm32f7xx_ll_sdmmc.c ****   
 1022              		.loc 1 1433 0
 1023 0060 0021     		movs	r1, #0
 1024 0062 2046     		mov	r0, r4
 1025 0064 FFF7FEFF 		bl	SDMMC_GetResponse
 1026              	.LVL132:
1435:Drivers/STM32F7xx_HAL_Driver/Src/stm32f7xx_ll_sdmmc.c ****   {
 1027              		.loc 1 1435 0
 1028 0068 10F4604F 		tst	r0, #57344
 1029 006c 08D0     		beq	.L95
1441:Drivers/STM32F7xx_HAL_Driver/Src/stm32f7xx_ll_sdmmc.c ****   {
 1030              		.loc 1 1441 0
 1031 006e 10F4804F 		tst	r0, #16384
 1032 0072 0CD1     		bne	.L90
1445:Drivers/STM32F7xx_HAL_Driver/Src/stm32f7xx_ll_sdmmc.c ****   {
 1033              		.loc 1 1445 0
 1034 0074 10F4004F 		tst	r0, #32768
 1035 0078 0CD0     		beq	.L91
1447:Drivers/STM32F7xx_HAL_Driver/Src/stm32f7xx_ll_sdmmc.c ****   }
 1036              		.loc 1 1447 0
 1037 007a 4FF48050 		mov	r0, #4096
 1038              	.LVL133:
 1039 007e 05E0     		b	.L82
 1040              	.LVL134:
 1041              	.L95:
1437:Drivers/STM32F7xx_HAL_Driver/Src/stm32f7xx_ll_sdmmc.c ****     
 1042              		.loc 1 1437 0
 1043 0080 000C     		lsrs	r0, r0, #16
 1044              	.LVL135:
 1045 0082 3080     		strh	r0, [r6]	@ movhi
1439:Drivers/STM32F7xx_HAL_Driver/Src/stm32f7xx_ll_sdmmc.c ****   }
 1046              		.loc 1 1439 0
 1047 0084 0020     		movs	r0, #0
 1048 0086 01E0     		b	.L82
 1049              	.LVL136:
 1050              	.L88:
1400:Drivers/STM32F7xx_HAL_Driver/Src/stm32f7xx_ll_sdmmc.c ****     }
 1051              		.loc 1 1400 0
 1052 0088 4FF00040 		mov	r0, #-2147483648
 1053              	.LVL137:
 1054              	.L82:
1453:Drivers/STM32F7xx_HAL_Driver/Src/stm32f7xx_ll_sdmmc.c **** 
 1055              		.loc 1 1453 0
 1056 008c 70BD     		pop	{r4, r5, r6, pc}
 1057              	.LVL138:
 1058              	.L90:
1443:Drivers/STM32F7xx_HAL_Driver/Src/stm32f7xx_ll_sdmmc.c ****   }
ARM GAS  /tmp/ccxJPvV1.s 			page 48


 1059              		.loc 1 1443 0
 1060 008e 4FF40050 		mov	r0, #8192
 1061              	.LVL139:
 1062 0092 FBE7     		b	.L82
 1063              	.LVL140:
 1064              	.L91:
1451:Drivers/STM32F7xx_HAL_Driver/Src/stm32f7xx_ll_sdmmc.c ****   }
 1065              		.loc 1 1451 0
 1066 0094 4FF48030 		mov	r0, #65536
 1067              	.LVL141:
 1068 0098 F8E7     		b	.L82
 1069              	.L97:
 1070 009a 00BF     		.align	2
 1071              	.L96:
 1072 009c 00000000 		.word	SystemCoreClock
 1073 00a0 D34D6210 		.word	274877907
 1074              		.cfi_endproc
 1075              	.LFE183:
 1077              		.section	.text.SDMMC_ConfigData,"ax",%progbits
 1078              		.align	1
 1079              		.global	SDMMC_ConfigData
 1080              		.syntax unified
 1081              		.thumb
 1082              		.thumb_func
 1083              		.fpu fpv5-sp-d16
 1085              	SDMMC_ConfigData:
 1086              	.LFB150:
 425:Drivers/STM32F7xx_HAL_Driver/Src/stm32f7xx_ll_sdmmc.c ****   uint32_t tmpreg = 0;
 1087              		.loc 1 425 0
 1088              		.cfi_startproc
 1089              		@ args = 0, pretend = 0, frame = 0
 1090              		@ frame_needed = 0, uses_anonymous_args = 0
 1091              		@ link register save eliminated.
 1092              	.LVL142:
 436:Drivers/STM32F7xx_HAL_Driver/Src/stm32f7xx_ll_sdmmc.c **** 
 1093              		.loc 1 436 0
 1094 0000 0B68     		ldr	r3, [r1]
 1095 0002 4362     		str	r3, [r0, #36]
 439:Drivers/STM32F7xx_HAL_Driver/Src/stm32f7xx_ll_sdmmc.c **** 
 1096              		.loc 1 439 0
 1097 0004 4B68     		ldr	r3, [r1, #4]
 1098 0006 8362     		str	r3, [r0, #40]
 442:Drivers/STM32F7xx_HAL_Driver/Src/stm32f7xx_ll_sdmmc.c ****                        Data->TransferDir   |\
 1099              		.loc 1 442 0
 1100 0008 8B68     		ldr	r3, [r1, #8]
 443:Drivers/STM32F7xx_HAL_Driver/Src/stm32f7xx_ll_sdmmc.c ****                        Data->TransferMode  |\
 1101              		.loc 1 443 0
 1102 000a CA68     		ldr	r2, [r1, #12]
 442:Drivers/STM32F7xx_HAL_Driver/Src/stm32f7xx_ll_sdmmc.c ****                        Data->TransferDir   |\
 1103              		.loc 1 442 0
 1104 000c 1343     		orrs	r3, r3, r2
 444:Drivers/STM32F7xx_HAL_Driver/Src/stm32f7xx_ll_sdmmc.c ****                        Data->DPSM);
 1105              		.loc 1 444 0
 1106 000e 0A69     		ldr	r2, [r1, #16]
 443:Drivers/STM32F7xx_HAL_Driver/Src/stm32f7xx_ll_sdmmc.c ****                        Data->TransferMode  |\
 1107              		.loc 1 443 0
 1108 0010 1343     		orrs	r3, r3, r2
ARM GAS  /tmp/ccxJPvV1.s 			page 49


 445:Drivers/STM32F7xx_HAL_Driver/Src/stm32f7xx_ll_sdmmc.c ****   
 1109              		.loc 1 445 0
 1110 0012 4A69     		ldr	r2, [r1, #20]
 444:Drivers/STM32F7xx_HAL_Driver/Src/stm32f7xx_ll_sdmmc.c ****                        Data->DPSM);
 1111              		.loc 1 444 0
 1112 0014 1343     		orrs	r3, r3, r2
 1113              	.LVL143:
 448:Drivers/STM32F7xx_HAL_Driver/Src/stm32f7xx_ll_sdmmc.c **** 
 1114              		.loc 1 448 0
 1115 0016 C26A     		ldr	r2, [r0, #44]
 1116 0018 22F0F702 		bic	r2, r2, #247
 1117 001c 1343     		orrs	r3, r3, r2
 1118              	.LVL144:
 1119 001e C362     		str	r3, [r0, #44]
 1120              	.LVL145:
 452:Drivers/STM32F7xx_HAL_Driver/Src/stm32f7xx_ll_sdmmc.c **** 
 1121              		.loc 1 452 0
 1122 0020 0020     		movs	r0, #0
 1123              	.LVL146:
 1124 0022 7047     		bx	lr
 1125              		.cfi_endproc
 1126              	.LFE150:
 1128              		.section	.text.SDMMC_GetDataCounter,"ax",%progbits
 1129              		.align	1
 1130              		.global	SDMMC_GetDataCounter
 1131              		.syntax unified
 1132              		.thumb
 1133              		.thumb_func
 1134              		.fpu fpv5-sp-d16
 1136              	SDMMC_GetDataCounter:
 1137              	.LFB151:
 460:Drivers/STM32F7xx_HAL_Driver/Src/stm32f7xx_ll_sdmmc.c ****   return (SDMMCx->DCOUNT);
 1138              		.loc 1 460 0
 1139              		.cfi_startproc
 1140              		@ args = 0, pretend = 0, frame = 0
 1141              		@ frame_needed = 0, uses_anonymous_args = 0
 1142              		@ link register save eliminated.
 1143              	.LVL147:
 461:Drivers/STM32F7xx_HAL_Driver/Src/stm32f7xx_ll_sdmmc.c **** }
 1144              		.loc 1 461 0
 1145 0000 006B     		ldr	r0, [r0, #48]
 1146              	.LVL148:
 462:Drivers/STM32F7xx_HAL_Driver/Src/stm32f7xx_ll_sdmmc.c **** 
 1147              		.loc 1 462 0
 1148 0002 7047     		bx	lr
 1149              		.cfi_endproc
 1150              	.LFE151:
 1152              		.section	.text.SDMMC_GetFIFOCount,"ax",%progbits
 1153              		.align	1
 1154              		.global	SDMMC_GetFIFOCount
 1155              		.syntax unified
 1156              		.thumb
 1157              		.thumb_func
 1158              		.fpu fpv5-sp-d16
 1160              	SDMMC_GetFIFOCount:
 1161              	.LFB152:
 470:Drivers/STM32F7xx_HAL_Driver/Src/stm32f7xx_ll_sdmmc.c ****   return (SDMMCx->FIFO);
ARM GAS  /tmp/ccxJPvV1.s 			page 50


 1162              		.loc 1 470 0
 1163              		.cfi_startproc
 1164              		@ args = 0, pretend = 0, frame = 0
 1165              		@ frame_needed = 0, uses_anonymous_args = 0
 1166              		@ link register save eliminated.
 1167              	.LVL149:
 471:Drivers/STM32F7xx_HAL_Driver/Src/stm32f7xx_ll_sdmmc.c **** }
 1168              		.loc 1 471 0
 1169 0000 D0F88000 		ldr	r0, [r0, #128]
 1170              	.LVL150:
 472:Drivers/STM32F7xx_HAL_Driver/Src/stm32f7xx_ll_sdmmc.c **** 
 1171              		.loc 1 472 0
 1172 0004 7047     		bx	lr
 1173              		.cfi_endproc
 1174              	.LFE152:
 1176              		.section	.text.SDMMC_SetSDMMCReadWaitMode,"ax",%progbits
 1177              		.align	1
 1178              		.global	SDMMC_SetSDMMCReadWaitMode
 1179              		.syntax unified
 1180              		.thumb
 1181              		.thumb_func
 1182              		.fpu fpv5-sp-d16
 1184              	SDMMC_SetSDMMCReadWaitMode:
 1185              	.LFB153:
 484:Drivers/STM32F7xx_HAL_Driver/Src/stm32f7xx_ll_sdmmc.c ****   /* Check the parameters */
 1186              		.loc 1 484 0
 1187              		.cfi_startproc
 1188              		@ args = 0, pretend = 0, frame = 0
 1189              		@ frame_needed = 0, uses_anonymous_args = 0
 1190              		@ link register save eliminated.
 1191              	.LVL151:
 489:Drivers/STM32F7xx_HAL_Driver/Src/stm32f7xx_ll_sdmmc.c ****   
 1192              		.loc 1 489 0
 1193 0000 C36A     		ldr	r3, [r0, #44]
 1194 0002 23F48063 		bic	r3, r3, #1024
 1195 0006 1943     		orrs	r1, r1, r3
 1196              	.LVL152:
 1197 0008 C162     		str	r1, [r0, #44]
 492:Drivers/STM32F7xx_HAL_Driver/Src/stm32f7xx_ll_sdmmc.c **** 
 1198              		.loc 1 492 0
 1199 000a 0020     		movs	r0, #0
 1200              	.LVL153:
 1201 000c 7047     		bx	lr
 1202              		.cfi_endproc
 1203              	.LFE153:
 1205              		.section	.text.SDMMC_CmdBlockLength,"ax",%progbits
 1206              		.align	1
 1207              		.global	SDMMC_CmdBlockLength
 1208              		.syntax unified
 1209              		.thumb
 1210              		.thumb_func
 1211              		.fpu fpv5-sp-d16
 1213              	SDMMC_CmdBlockLength:
 1214              	.LFB154:
 519:Drivers/STM32F7xx_HAL_Driver/Src/stm32f7xx_ll_sdmmc.c ****   SDMMC_CmdInitTypeDef  sdmmc_cmdinit;
 1215              		.loc 1 519 0
 1216              		.cfi_startproc
ARM GAS  /tmp/ccxJPvV1.s 			page 51


 1217              		@ args = 0, pretend = 0, frame = 24
 1218              		@ frame_needed = 0, uses_anonymous_args = 0
 1219              	.LVL154:
 1220 0000 30B5     		push	{r4, r5, lr}
 1221              	.LCFI7:
 1222              		.cfi_def_cfa_offset 12
 1223              		.cfi_offset 4, -12
 1224              		.cfi_offset 5, -8
 1225              		.cfi_offset 14, -4
 1226 0002 87B0     		sub	sp, sp, #28
 1227              	.LCFI8:
 1228              		.cfi_def_cfa_offset 40
 1229 0004 0546     		mov	r5, r0
 524:Drivers/STM32F7xx_HAL_Driver/Src/stm32f7xx_ll_sdmmc.c ****   sdmmc_cmdinit.CmdIndex         = SDMMC_CMD_SET_BLOCKLEN;
 1230              		.loc 1 524 0
 1231 0006 0191     		str	r1, [sp, #4]
 525:Drivers/STM32F7xx_HAL_Driver/Src/stm32f7xx_ll_sdmmc.c ****   sdmmc_cmdinit.Response         = SDMMC_RESPONSE_SHORT;
 1232              		.loc 1 525 0
 1233 0008 1024     		movs	r4, #16
 1234 000a 0294     		str	r4, [sp, #8]
 526:Drivers/STM32F7xx_HAL_Driver/Src/stm32f7xx_ll_sdmmc.c ****   sdmmc_cmdinit.WaitForInterrupt = SDMMC_WAIT_NO;
 1235              		.loc 1 526 0
 1236 000c 4023     		movs	r3, #64
 1237 000e 0393     		str	r3, [sp, #12]
 527:Drivers/STM32F7xx_HAL_Driver/Src/stm32f7xx_ll_sdmmc.c ****   sdmmc_cmdinit.CPSM             = SDMMC_CPSM_ENABLE;
 1238              		.loc 1 527 0
 1239 0010 0023     		movs	r3, #0
 1240 0012 0493     		str	r3, [sp, #16]
 528:Drivers/STM32F7xx_HAL_Driver/Src/stm32f7xx_ll_sdmmc.c ****   (void)SDMMC_SendCommand(SDMMCx, &sdmmc_cmdinit);
 1241              		.loc 1 528 0
 1242 0014 4FF48063 		mov	r3, #1024
 1243 0018 0593     		str	r3, [sp, #20]
 529:Drivers/STM32F7xx_HAL_Driver/Src/stm32f7xx_ll_sdmmc.c ****   
 1244              		.loc 1 529 0
 1245 001a 01A9     		add	r1, sp, #4
 1246              	.LVL155:
 1247 001c FFF7FEFF 		bl	SDMMC_SendCommand
 1248              	.LVL156:
 532:Drivers/STM32F7xx_HAL_Driver/Src/stm32f7xx_ll_sdmmc.c **** 
 1249              		.loc 1 532 0
 1250 0020 41F28832 		movw	r2, #5000
 1251 0024 2146     		mov	r1, r4
 1252 0026 2846     		mov	r0, r5
 1253 0028 FFF7FEFF 		bl	SDMMC_GetCmdResp1
 1254              	.LVL157:
 535:Drivers/STM32F7xx_HAL_Driver/Src/stm32f7xx_ll_sdmmc.c **** 
 1255              		.loc 1 535 0
 1256 002c 07B0     		add	sp, sp, #28
 1257              	.LCFI9:
 1258              		.cfi_def_cfa_offset 12
 1259              		@ sp needed
 1260 002e 30BD     		pop	{r4, r5, pc}
 1261              		.cfi_endproc
 1262              	.LFE154:
 1264              		.section	.text.SDMMC_CmdReadSingleBlock,"ax",%progbits
 1265              		.align	1
 1266              		.global	SDMMC_CmdReadSingleBlock
ARM GAS  /tmp/ccxJPvV1.s 			page 52


 1267              		.syntax unified
 1268              		.thumb
 1269              		.thumb_func
 1270              		.fpu fpv5-sp-d16
 1272              	SDMMC_CmdReadSingleBlock:
 1273              	.LFB155:
 543:Drivers/STM32F7xx_HAL_Driver/Src/stm32f7xx_ll_sdmmc.c ****   SDMMC_CmdInitTypeDef  sdmmc_cmdinit;
 1274              		.loc 1 543 0
 1275              		.cfi_startproc
 1276              		@ args = 0, pretend = 0, frame = 24
 1277              		@ frame_needed = 0, uses_anonymous_args = 0
 1278              	.LVL158:
 1279 0000 30B5     		push	{r4, r5, lr}
 1280              	.LCFI10:
 1281              		.cfi_def_cfa_offset 12
 1282              		.cfi_offset 4, -12
 1283              		.cfi_offset 5, -8
 1284              		.cfi_offset 14, -4
 1285 0002 87B0     		sub	sp, sp, #28
 1286              	.LCFI11:
 1287              		.cfi_def_cfa_offset 40
 1288 0004 0546     		mov	r5, r0
 548:Drivers/STM32F7xx_HAL_Driver/Src/stm32f7xx_ll_sdmmc.c ****   sdmmc_cmdinit.CmdIndex         = SDMMC_CMD_READ_SINGLE_BLOCK;
 1289              		.loc 1 548 0
 1290 0006 0191     		str	r1, [sp, #4]
 549:Drivers/STM32F7xx_HAL_Driver/Src/stm32f7xx_ll_sdmmc.c ****   sdmmc_cmdinit.Response         = SDMMC_RESPONSE_SHORT;
 1291              		.loc 1 549 0
 1292 0008 1124     		movs	r4, #17
 1293 000a 0294     		str	r4, [sp, #8]
 550:Drivers/STM32F7xx_HAL_Driver/Src/stm32f7xx_ll_sdmmc.c ****   sdmmc_cmdinit.WaitForInterrupt = SDMMC_WAIT_NO;
 1294              		.loc 1 550 0
 1295 000c 4023     		movs	r3, #64
 1296 000e 0393     		str	r3, [sp, #12]
 551:Drivers/STM32F7xx_HAL_Driver/Src/stm32f7xx_ll_sdmmc.c ****   sdmmc_cmdinit.CPSM             = SDMMC_CPSM_ENABLE;
 1297              		.loc 1 551 0
 1298 0010 0023     		movs	r3, #0
 1299 0012 0493     		str	r3, [sp, #16]
 552:Drivers/STM32F7xx_HAL_Driver/Src/stm32f7xx_ll_sdmmc.c ****   (void)SDMMC_SendCommand(SDMMCx, &sdmmc_cmdinit);
 1300              		.loc 1 552 0
 1301 0014 4FF48063 		mov	r3, #1024
 1302 0018 0593     		str	r3, [sp, #20]
 553:Drivers/STM32F7xx_HAL_Driver/Src/stm32f7xx_ll_sdmmc.c ****   
 1303              		.loc 1 553 0
 1304 001a 01A9     		add	r1, sp, #4
 1305              	.LVL159:
 1306 001c FFF7FEFF 		bl	SDMMC_SendCommand
 1307              	.LVL160:
 556:Drivers/STM32F7xx_HAL_Driver/Src/stm32f7xx_ll_sdmmc.c **** 
 1308              		.loc 1 556 0
 1309 0020 41F28832 		movw	r2, #5000
 1310 0024 2146     		mov	r1, r4
 1311 0026 2846     		mov	r0, r5
 1312 0028 FFF7FEFF 		bl	SDMMC_GetCmdResp1
 1313              	.LVL161:
 559:Drivers/STM32F7xx_HAL_Driver/Src/stm32f7xx_ll_sdmmc.c **** 
 1314              		.loc 1 559 0
 1315 002c 07B0     		add	sp, sp, #28
ARM GAS  /tmp/ccxJPvV1.s 			page 53


 1316              	.LCFI12:
 1317              		.cfi_def_cfa_offset 12
 1318              		@ sp needed
 1319 002e 30BD     		pop	{r4, r5, pc}
 1320              		.cfi_endproc
 1321              	.LFE155:
 1323              		.section	.text.SDMMC_CmdReadMultiBlock,"ax",%progbits
 1324              		.align	1
 1325              		.global	SDMMC_CmdReadMultiBlock
 1326              		.syntax unified
 1327              		.thumb
 1328              		.thumb_func
 1329              		.fpu fpv5-sp-d16
 1331              	SDMMC_CmdReadMultiBlock:
 1332              	.LFB156:
 567:Drivers/STM32F7xx_HAL_Driver/Src/stm32f7xx_ll_sdmmc.c ****   SDMMC_CmdInitTypeDef  sdmmc_cmdinit;
 1333              		.loc 1 567 0
 1334              		.cfi_startproc
 1335              		@ args = 0, pretend = 0, frame = 24
 1336              		@ frame_needed = 0, uses_anonymous_args = 0
 1337              	.LVL162:
 1338 0000 30B5     		push	{r4, r5, lr}
 1339              	.LCFI13:
 1340              		.cfi_def_cfa_offset 12
 1341              		.cfi_offset 4, -12
 1342              		.cfi_offset 5, -8
 1343              		.cfi_offset 14, -4
 1344 0002 87B0     		sub	sp, sp, #28
 1345              	.LCFI14:
 1346              		.cfi_def_cfa_offset 40
 1347 0004 0546     		mov	r5, r0
 572:Drivers/STM32F7xx_HAL_Driver/Src/stm32f7xx_ll_sdmmc.c ****   sdmmc_cmdinit.CmdIndex         = SDMMC_CMD_READ_MULT_BLOCK;
 1348              		.loc 1 572 0
 1349 0006 0191     		str	r1, [sp, #4]
 573:Drivers/STM32F7xx_HAL_Driver/Src/stm32f7xx_ll_sdmmc.c ****   sdmmc_cmdinit.Response         = SDMMC_RESPONSE_SHORT;
 1350              		.loc 1 573 0
 1351 0008 1224     		movs	r4, #18
 1352 000a 0294     		str	r4, [sp, #8]
 574:Drivers/STM32F7xx_HAL_Driver/Src/stm32f7xx_ll_sdmmc.c ****   sdmmc_cmdinit.WaitForInterrupt = SDMMC_WAIT_NO;
 1353              		.loc 1 574 0
 1354 000c 4023     		movs	r3, #64
 1355 000e 0393     		str	r3, [sp, #12]
 575:Drivers/STM32F7xx_HAL_Driver/Src/stm32f7xx_ll_sdmmc.c ****   sdmmc_cmdinit.CPSM             = SDMMC_CPSM_ENABLE;
 1356              		.loc 1 575 0
 1357 0010 0023     		movs	r3, #0
 1358 0012 0493     		str	r3, [sp, #16]
 576:Drivers/STM32F7xx_HAL_Driver/Src/stm32f7xx_ll_sdmmc.c ****   (void)SDMMC_SendCommand(SDMMCx, &sdmmc_cmdinit);
 1359              		.loc 1 576 0
 1360 0014 4FF48063 		mov	r3, #1024
 1361 0018 0593     		str	r3, [sp, #20]
 577:Drivers/STM32F7xx_HAL_Driver/Src/stm32f7xx_ll_sdmmc.c ****   
 1362              		.loc 1 577 0
 1363 001a 01A9     		add	r1, sp, #4
 1364              	.LVL163:
 1365 001c FFF7FEFF 		bl	SDMMC_SendCommand
 1366              	.LVL164:
 580:Drivers/STM32F7xx_HAL_Driver/Src/stm32f7xx_ll_sdmmc.c **** 
ARM GAS  /tmp/ccxJPvV1.s 			page 54


 1367              		.loc 1 580 0
 1368 0020 41F28832 		movw	r2, #5000
 1369 0024 2146     		mov	r1, r4
 1370 0026 2846     		mov	r0, r5
 1371 0028 FFF7FEFF 		bl	SDMMC_GetCmdResp1
 1372              	.LVL165:
 583:Drivers/STM32F7xx_HAL_Driver/Src/stm32f7xx_ll_sdmmc.c **** 
 1373              		.loc 1 583 0
 1374 002c 07B0     		add	sp, sp, #28
 1375              	.LCFI15:
 1376              		.cfi_def_cfa_offset 12
 1377              		@ sp needed
 1378 002e 30BD     		pop	{r4, r5, pc}
 1379              		.cfi_endproc
 1380              	.LFE156:
 1382              		.section	.text.SDMMC_CmdWriteSingleBlock,"ax",%progbits
 1383              		.align	1
 1384              		.global	SDMMC_CmdWriteSingleBlock
 1385              		.syntax unified
 1386              		.thumb
 1387              		.thumb_func
 1388              		.fpu fpv5-sp-d16
 1390              	SDMMC_CmdWriteSingleBlock:
 1391              	.LFB157:
 591:Drivers/STM32F7xx_HAL_Driver/Src/stm32f7xx_ll_sdmmc.c ****   SDMMC_CmdInitTypeDef  sdmmc_cmdinit;
 1392              		.loc 1 591 0
 1393              		.cfi_startproc
 1394              		@ args = 0, pretend = 0, frame = 24
 1395              		@ frame_needed = 0, uses_anonymous_args = 0
 1396              	.LVL166:
 1397 0000 30B5     		push	{r4, r5, lr}
 1398              	.LCFI16:
 1399              		.cfi_def_cfa_offset 12
 1400              		.cfi_offset 4, -12
 1401              		.cfi_offset 5, -8
 1402              		.cfi_offset 14, -4
 1403 0002 87B0     		sub	sp, sp, #28
 1404              	.LCFI17:
 1405              		.cfi_def_cfa_offset 40
 1406 0004 0546     		mov	r5, r0
 596:Drivers/STM32F7xx_HAL_Driver/Src/stm32f7xx_ll_sdmmc.c ****   sdmmc_cmdinit.CmdIndex         = SDMMC_CMD_WRITE_SINGLE_BLOCK;
 1407              		.loc 1 596 0
 1408 0006 0191     		str	r1, [sp, #4]
 597:Drivers/STM32F7xx_HAL_Driver/Src/stm32f7xx_ll_sdmmc.c ****   sdmmc_cmdinit.Response         = SDMMC_RESPONSE_SHORT;
 1409              		.loc 1 597 0
 1410 0008 1824     		movs	r4, #24
 1411 000a 0294     		str	r4, [sp, #8]
 598:Drivers/STM32F7xx_HAL_Driver/Src/stm32f7xx_ll_sdmmc.c ****   sdmmc_cmdinit.WaitForInterrupt = SDMMC_WAIT_NO;
 1412              		.loc 1 598 0
 1413 000c 4023     		movs	r3, #64
 1414 000e 0393     		str	r3, [sp, #12]
 599:Drivers/STM32F7xx_HAL_Driver/Src/stm32f7xx_ll_sdmmc.c ****   sdmmc_cmdinit.CPSM             = SDMMC_CPSM_ENABLE;
 1415              		.loc 1 599 0
 1416 0010 0023     		movs	r3, #0
 1417 0012 0493     		str	r3, [sp, #16]
 600:Drivers/STM32F7xx_HAL_Driver/Src/stm32f7xx_ll_sdmmc.c ****   (void)SDMMC_SendCommand(SDMMCx, &sdmmc_cmdinit);
 1418              		.loc 1 600 0
ARM GAS  /tmp/ccxJPvV1.s 			page 55


 1419 0014 4FF48063 		mov	r3, #1024
 1420 0018 0593     		str	r3, [sp, #20]
 601:Drivers/STM32F7xx_HAL_Driver/Src/stm32f7xx_ll_sdmmc.c ****   
 1421              		.loc 1 601 0
 1422 001a 01A9     		add	r1, sp, #4
 1423              	.LVL167:
 1424 001c FFF7FEFF 		bl	SDMMC_SendCommand
 1425              	.LVL168:
 604:Drivers/STM32F7xx_HAL_Driver/Src/stm32f7xx_ll_sdmmc.c **** 
 1426              		.loc 1 604 0
 1427 0020 41F28832 		movw	r2, #5000
 1428 0024 2146     		mov	r1, r4
 1429 0026 2846     		mov	r0, r5
 1430 0028 FFF7FEFF 		bl	SDMMC_GetCmdResp1
 1431              	.LVL169:
 607:Drivers/STM32F7xx_HAL_Driver/Src/stm32f7xx_ll_sdmmc.c **** 
 1432              		.loc 1 607 0
 1433 002c 07B0     		add	sp, sp, #28
 1434              	.LCFI18:
 1435              		.cfi_def_cfa_offset 12
 1436              		@ sp needed
 1437 002e 30BD     		pop	{r4, r5, pc}
 1438              		.cfi_endproc
 1439              	.LFE157:
 1441              		.section	.text.SDMMC_CmdWriteMultiBlock,"ax",%progbits
 1442              		.align	1
 1443              		.global	SDMMC_CmdWriteMultiBlock
 1444              		.syntax unified
 1445              		.thumb
 1446              		.thumb_func
 1447              		.fpu fpv5-sp-d16
 1449              	SDMMC_CmdWriteMultiBlock:
 1450              	.LFB158:
 615:Drivers/STM32F7xx_HAL_Driver/Src/stm32f7xx_ll_sdmmc.c ****   SDMMC_CmdInitTypeDef  sdmmc_cmdinit;
 1451              		.loc 1 615 0
 1452              		.cfi_startproc
 1453              		@ args = 0, pretend = 0, frame = 24
 1454              		@ frame_needed = 0, uses_anonymous_args = 0
 1455              	.LVL170:
 1456 0000 30B5     		push	{r4, r5, lr}
 1457              	.LCFI19:
 1458              		.cfi_def_cfa_offset 12
 1459              		.cfi_offset 4, -12
 1460              		.cfi_offset 5, -8
 1461              		.cfi_offset 14, -4
 1462 0002 87B0     		sub	sp, sp, #28
 1463              	.LCFI20:
 1464              		.cfi_def_cfa_offset 40
 1465 0004 0546     		mov	r5, r0
 620:Drivers/STM32F7xx_HAL_Driver/Src/stm32f7xx_ll_sdmmc.c ****   sdmmc_cmdinit.CmdIndex         = SDMMC_CMD_WRITE_MULT_BLOCK;
 1466              		.loc 1 620 0
 1467 0006 0191     		str	r1, [sp, #4]
 621:Drivers/STM32F7xx_HAL_Driver/Src/stm32f7xx_ll_sdmmc.c ****   sdmmc_cmdinit.Response         = SDMMC_RESPONSE_SHORT;
 1468              		.loc 1 621 0
 1469 0008 1924     		movs	r4, #25
 1470 000a 0294     		str	r4, [sp, #8]
 622:Drivers/STM32F7xx_HAL_Driver/Src/stm32f7xx_ll_sdmmc.c ****   sdmmc_cmdinit.WaitForInterrupt = SDMMC_WAIT_NO;
ARM GAS  /tmp/ccxJPvV1.s 			page 56


 1471              		.loc 1 622 0
 1472 000c 4023     		movs	r3, #64
 1473 000e 0393     		str	r3, [sp, #12]
 623:Drivers/STM32F7xx_HAL_Driver/Src/stm32f7xx_ll_sdmmc.c ****   sdmmc_cmdinit.CPSM             = SDMMC_CPSM_ENABLE;
 1474              		.loc 1 623 0
 1475 0010 0023     		movs	r3, #0
 1476 0012 0493     		str	r3, [sp, #16]
 624:Drivers/STM32F7xx_HAL_Driver/Src/stm32f7xx_ll_sdmmc.c ****   (void)SDMMC_SendCommand(SDMMCx, &sdmmc_cmdinit);
 1477              		.loc 1 624 0
 1478 0014 4FF48063 		mov	r3, #1024
 1479 0018 0593     		str	r3, [sp, #20]
 625:Drivers/STM32F7xx_HAL_Driver/Src/stm32f7xx_ll_sdmmc.c ****   
 1480              		.loc 1 625 0
 1481 001a 01A9     		add	r1, sp, #4
 1482              	.LVL171:
 1483 001c FFF7FEFF 		bl	SDMMC_SendCommand
 1484              	.LVL172:
 628:Drivers/STM32F7xx_HAL_Driver/Src/stm32f7xx_ll_sdmmc.c **** 
 1485              		.loc 1 628 0
 1486 0020 41F28832 		movw	r2, #5000
 1487 0024 2146     		mov	r1, r4
 1488 0026 2846     		mov	r0, r5
 1489 0028 FFF7FEFF 		bl	SDMMC_GetCmdResp1
 1490              	.LVL173:
 631:Drivers/STM32F7xx_HAL_Driver/Src/stm32f7xx_ll_sdmmc.c **** 
 1491              		.loc 1 631 0
 1492 002c 07B0     		add	sp, sp, #28
 1493              	.LCFI21:
 1494              		.cfi_def_cfa_offset 12
 1495              		@ sp needed
 1496 002e 30BD     		pop	{r4, r5, pc}
 1497              		.cfi_endproc
 1498              	.LFE158:
 1500              		.section	.text.SDMMC_CmdSDEraseStartAdd,"ax",%progbits
 1501              		.align	1
 1502              		.global	SDMMC_CmdSDEraseStartAdd
 1503              		.syntax unified
 1504              		.thumb
 1505              		.thumb_func
 1506              		.fpu fpv5-sp-d16
 1508              	SDMMC_CmdSDEraseStartAdd:
 1509              	.LFB159:
 639:Drivers/STM32F7xx_HAL_Driver/Src/stm32f7xx_ll_sdmmc.c ****   SDMMC_CmdInitTypeDef  sdmmc_cmdinit;
 1510              		.loc 1 639 0
 1511              		.cfi_startproc
 1512              		@ args = 0, pretend = 0, frame = 24
 1513              		@ frame_needed = 0, uses_anonymous_args = 0
 1514              	.LVL174:
 1515 0000 30B5     		push	{r4, r5, lr}
 1516              	.LCFI22:
 1517              		.cfi_def_cfa_offset 12
 1518              		.cfi_offset 4, -12
 1519              		.cfi_offset 5, -8
 1520              		.cfi_offset 14, -4
 1521 0002 87B0     		sub	sp, sp, #28
 1522              	.LCFI23:
 1523              		.cfi_def_cfa_offset 40
ARM GAS  /tmp/ccxJPvV1.s 			page 57


 1524 0004 0546     		mov	r5, r0
 644:Drivers/STM32F7xx_HAL_Driver/Src/stm32f7xx_ll_sdmmc.c ****   sdmmc_cmdinit.CmdIndex         = SDMMC_CMD_SD_ERASE_GRP_START;
 1525              		.loc 1 644 0
 1526 0006 0191     		str	r1, [sp, #4]
 645:Drivers/STM32F7xx_HAL_Driver/Src/stm32f7xx_ll_sdmmc.c ****   sdmmc_cmdinit.Response         = SDMMC_RESPONSE_SHORT;
 1527              		.loc 1 645 0
 1528 0008 2024     		movs	r4, #32
 1529 000a 0294     		str	r4, [sp, #8]
 646:Drivers/STM32F7xx_HAL_Driver/Src/stm32f7xx_ll_sdmmc.c ****   sdmmc_cmdinit.WaitForInterrupt = SDMMC_WAIT_NO;
 1530              		.loc 1 646 0
 1531 000c 4023     		movs	r3, #64
 1532 000e 0393     		str	r3, [sp, #12]
 647:Drivers/STM32F7xx_HAL_Driver/Src/stm32f7xx_ll_sdmmc.c ****   sdmmc_cmdinit.CPSM             = SDMMC_CPSM_ENABLE;
 1533              		.loc 1 647 0
 1534 0010 0023     		movs	r3, #0
 1535 0012 0493     		str	r3, [sp, #16]
 648:Drivers/STM32F7xx_HAL_Driver/Src/stm32f7xx_ll_sdmmc.c ****   (void)SDMMC_SendCommand(SDMMCx, &sdmmc_cmdinit);
 1536              		.loc 1 648 0
 1537 0014 4FF48063 		mov	r3, #1024
 1538 0018 0593     		str	r3, [sp, #20]
 649:Drivers/STM32F7xx_HAL_Driver/Src/stm32f7xx_ll_sdmmc.c ****   
 1539              		.loc 1 649 0
 1540 001a 01A9     		add	r1, sp, #4
 1541              	.LVL175:
 1542 001c FFF7FEFF 		bl	SDMMC_SendCommand
 1543              	.LVL176:
 652:Drivers/STM32F7xx_HAL_Driver/Src/stm32f7xx_ll_sdmmc.c **** 
 1544              		.loc 1 652 0
 1545 0020 41F28832 		movw	r2, #5000
 1546 0024 2146     		mov	r1, r4
 1547 0026 2846     		mov	r0, r5
 1548 0028 FFF7FEFF 		bl	SDMMC_GetCmdResp1
 1549              	.LVL177:
 655:Drivers/STM32F7xx_HAL_Driver/Src/stm32f7xx_ll_sdmmc.c **** 
 1550              		.loc 1 655 0
 1551 002c 07B0     		add	sp, sp, #28
 1552              	.LCFI24:
 1553              		.cfi_def_cfa_offset 12
 1554              		@ sp needed
 1555 002e 30BD     		pop	{r4, r5, pc}
 1556              		.cfi_endproc
 1557              	.LFE159:
 1559              		.section	.text.SDMMC_CmdSDEraseEndAdd,"ax",%progbits
 1560              		.align	1
 1561              		.global	SDMMC_CmdSDEraseEndAdd
 1562              		.syntax unified
 1563              		.thumb
 1564              		.thumb_func
 1565              		.fpu fpv5-sp-d16
 1567              	SDMMC_CmdSDEraseEndAdd:
 1568              	.LFB160:
 663:Drivers/STM32F7xx_HAL_Driver/Src/stm32f7xx_ll_sdmmc.c ****   SDMMC_CmdInitTypeDef  sdmmc_cmdinit;
 1569              		.loc 1 663 0
 1570              		.cfi_startproc
 1571              		@ args = 0, pretend = 0, frame = 24
 1572              		@ frame_needed = 0, uses_anonymous_args = 0
 1573              	.LVL178:
ARM GAS  /tmp/ccxJPvV1.s 			page 58


 1574 0000 30B5     		push	{r4, r5, lr}
 1575              	.LCFI25:
 1576              		.cfi_def_cfa_offset 12
 1577              		.cfi_offset 4, -12
 1578              		.cfi_offset 5, -8
 1579              		.cfi_offset 14, -4
 1580 0002 87B0     		sub	sp, sp, #28
 1581              	.LCFI26:
 1582              		.cfi_def_cfa_offset 40
 1583 0004 0546     		mov	r5, r0
 668:Drivers/STM32F7xx_HAL_Driver/Src/stm32f7xx_ll_sdmmc.c ****   sdmmc_cmdinit.CmdIndex         = SDMMC_CMD_SD_ERASE_GRP_END;
 1584              		.loc 1 668 0
 1585 0006 0191     		str	r1, [sp, #4]
 669:Drivers/STM32F7xx_HAL_Driver/Src/stm32f7xx_ll_sdmmc.c ****   sdmmc_cmdinit.Response         = SDMMC_RESPONSE_SHORT;
 1586              		.loc 1 669 0
 1587 0008 2124     		movs	r4, #33
 1588 000a 0294     		str	r4, [sp, #8]
 670:Drivers/STM32F7xx_HAL_Driver/Src/stm32f7xx_ll_sdmmc.c ****   sdmmc_cmdinit.WaitForInterrupt = SDMMC_WAIT_NO;
 1589              		.loc 1 670 0
 1590 000c 4023     		movs	r3, #64
 1591 000e 0393     		str	r3, [sp, #12]
 671:Drivers/STM32F7xx_HAL_Driver/Src/stm32f7xx_ll_sdmmc.c ****   sdmmc_cmdinit.CPSM             = SDMMC_CPSM_ENABLE;
 1592              		.loc 1 671 0
 1593 0010 0023     		movs	r3, #0
 1594 0012 0493     		str	r3, [sp, #16]
 672:Drivers/STM32F7xx_HAL_Driver/Src/stm32f7xx_ll_sdmmc.c ****   (void)SDMMC_SendCommand(SDMMCx, &sdmmc_cmdinit);
 1595              		.loc 1 672 0
 1596 0014 4FF48063 		mov	r3, #1024
 1597 0018 0593     		str	r3, [sp, #20]
 673:Drivers/STM32F7xx_HAL_Driver/Src/stm32f7xx_ll_sdmmc.c ****   
 1598              		.loc 1 673 0
 1599 001a 01A9     		add	r1, sp, #4
 1600              	.LVL179:
 1601 001c FFF7FEFF 		bl	SDMMC_SendCommand
 1602              	.LVL180:
 676:Drivers/STM32F7xx_HAL_Driver/Src/stm32f7xx_ll_sdmmc.c **** 
 1603              		.loc 1 676 0
 1604 0020 41F28832 		movw	r2, #5000
 1605 0024 2146     		mov	r1, r4
 1606 0026 2846     		mov	r0, r5
 1607 0028 FFF7FEFF 		bl	SDMMC_GetCmdResp1
 1608              	.LVL181:
 679:Drivers/STM32F7xx_HAL_Driver/Src/stm32f7xx_ll_sdmmc.c **** 
 1609              		.loc 1 679 0
 1610 002c 07B0     		add	sp, sp, #28
 1611              	.LCFI27:
 1612              		.cfi_def_cfa_offset 12
 1613              		@ sp needed
 1614 002e 30BD     		pop	{r4, r5, pc}
 1615              		.cfi_endproc
 1616              	.LFE160:
 1618              		.section	.text.SDMMC_CmdEraseStartAdd,"ax",%progbits
 1619              		.align	1
 1620              		.global	SDMMC_CmdEraseStartAdd
 1621              		.syntax unified
 1622              		.thumb
 1623              		.thumb_func
ARM GAS  /tmp/ccxJPvV1.s 			page 59


 1624              		.fpu fpv5-sp-d16
 1626              	SDMMC_CmdEraseStartAdd:
 1627              	.LFB161:
 687:Drivers/STM32F7xx_HAL_Driver/Src/stm32f7xx_ll_sdmmc.c ****   SDMMC_CmdInitTypeDef  sdmmc_cmdinit;
 1628              		.loc 1 687 0
 1629              		.cfi_startproc
 1630              		@ args = 0, pretend = 0, frame = 24
 1631              		@ frame_needed = 0, uses_anonymous_args = 0
 1632              	.LVL182:
 1633 0000 30B5     		push	{r4, r5, lr}
 1634              	.LCFI28:
 1635              		.cfi_def_cfa_offset 12
 1636              		.cfi_offset 4, -12
 1637              		.cfi_offset 5, -8
 1638              		.cfi_offset 14, -4
 1639 0002 87B0     		sub	sp, sp, #28
 1640              	.LCFI29:
 1641              		.cfi_def_cfa_offset 40
 1642 0004 0546     		mov	r5, r0
 692:Drivers/STM32F7xx_HAL_Driver/Src/stm32f7xx_ll_sdmmc.c ****   sdmmc_cmdinit.CmdIndex         = SDMMC_CMD_ERASE_GRP_START;
 1643              		.loc 1 692 0
 1644 0006 0191     		str	r1, [sp, #4]
 693:Drivers/STM32F7xx_HAL_Driver/Src/stm32f7xx_ll_sdmmc.c ****   sdmmc_cmdinit.Response         = SDMMC_RESPONSE_SHORT;
 1645              		.loc 1 693 0
 1646 0008 2324     		movs	r4, #35
 1647 000a 0294     		str	r4, [sp, #8]
 694:Drivers/STM32F7xx_HAL_Driver/Src/stm32f7xx_ll_sdmmc.c ****   sdmmc_cmdinit.WaitForInterrupt = SDMMC_WAIT_NO;
 1648              		.loc 1 694 0
 1649 000c 4023     		movs	r3, #64
 1650 000e 0393     		str	r3, [sp, #12]
 695:Drivers/STM32F7xx_HAL_Driver/Src/stm32f7xx_ll_sdmmc.c ****   sdmmc_cmdinit.CPSM             = SDMMC_CPSM_ENABLE;
 1651              		.loc 1 695 0
 1652 0010 0023     		movs	r3, #0
 1653 0012 0493     		str	r3, [sp, #16]
 696:Drivers/STM32F7xx_HAL_Driver/Src/stm32f7xx_ll_sdmmc.c ****   (void)SDMMC_SendCommand(SDMMCx, &sdmmc_cmdinit);
 1654              		.loc 1 696 0
 1655 0014 4FF48063 		mov	r3, #1024
 1656 0018 0593     		str	r3, [sp, #20]
 697:Drivers/STM32F7xx_HAL_Driver/Src/stm32f7xx_ll_sdmmc.c ****   
 1657              		.loc 1 697 0
 1658 001a 01A9     		add	r1, sp, #4
 1659              	.LVL183:
 1660 001c FFF7FEFF 		bl	SDMMC_SendCommand
 1661              	.LVL184:
 700:Drivers/STM32F7xx_HAL_Driver/Src/stm32f7xx_ll_sdmmc.c **** 
 1662              		.loc 1 700 0
 1663 0020 41F28832 		movw	r2, #5000
 1664 0024 2146     		mov	r1, r4
 1665 0026 2846     		mov	r0, r5
 1666 0028 FFF7FEFF 		bl	SDMMC_GetCmdResp1
 1667              	.LVL185:
 703:Drivers/STM32F7xx_HAL_Driver/Src/stm32f7xx_ll_sdmmc.c **** 
 1668              		.loc 1 703 0
 1669 002c 07B0     		add	sp, sp, #28
 1670              	.LCFI30:
 1671              		.cfi_def_cfa_offset 12
 1672              		@ sp needed
ARM GAS  /tmp/ccxJPvV1.s 			page 60


 1673 002e 30BD     		pop	{r4, r5, pc}
 1674              		.cfi_endproc
 1675              	.LFE161:
 1677              		.section	.text.SDMMC_CmdEraseEndAdd,"ax",%progbits
 1678              		.align	1
 1679              		.global	SDMMC_CmdEraseEndAdd
 1680              		.syntax unified
 1681              		.thumb
 1682              		.thumb_func
 1683              		.fpu fpv5-sp-d16
 1685              	SDMMC_CmdEraseEndAdd:
 1686              	.LFB162:
 711:Drivers/STM32F7xx_HAL_Driver/Src/stm32f7xx_ll_sdmmc.c ****   SDMMC_CmdInitTypeDef  sdmmc_cmdinit;
 1687              		.loc 1 711 0
 1688              		.cfi_startproc
 1689              		@ args = 0, pretend = 0, frame = 24
 1690              		@ frame_needed = 0, uses_anonymous_args = 0
 1691              	.LVL186:
 1692 0000 30B5     		push	{r4, r5, lr}
 1693              	.LCFI31:
 1694              		.cfi_def_cfa_offset 12
 1695              		.cfi_offset 4, -12
 1696              		.cfi_offset 5, -8
 1697              		.cfi_offset 14, -4
 1698 0002 87B0     		sub	sp, sp, #28
 1699              	.LCFI32:
 1700              		.cfi_def_cfa_offset 40
 1701 0004 0546     		mov	r5, r0
 716:Drivers/STM32F7xx_HAL_Driver/Src/stm32f7xx_ll_sdmmc.c ****   sdmmc_cmdinit.CmdIndex         = SDMMC_CMD_ERASE_GRP_END;
 1702              		.loc 1 716 0
 1703 0006 0191     		str	r1, [sp, #4]
 717:Drivers/STM32F7xx_HAL_Driver/Src/stm32f7xx_ll_sdmmc.c ****   sdmmc_cmdinit.Response         = SDMMC_RESPONSE_SHORT;
 1704              		.loc 1 717 0
 1705 0008 2424     		movs	r4, #36
 1706 000a 0294     		str	r4, [sp, #8]
 718:Drivers/STM32F7xx_HAL_Driver/Src/stm32f7xx_ll_sdmmc.c ****   sdmmc_cmdinit.WaitForInterrupt = SDMMC_WAIT_NO;
 1707              		.loc 1 718 0
 1708 000c 4023     		movs	r3, #64
 1709 000e 0393     		str	r3, [sp, #12]
 719:Drivers/STM32F7xx_HAL_Driver/Src/stm32f7xx_ll_sdmmc.c ****   sdmmc_cmdinit.CPSM             = SDMMC_CPSM_ENABLE;
 1710              		.loc 1 719 0
 1711 0010 0023     		movs	r3, #0
 1712 0012 0493     		str	r3, [sp, #16]
 720:Drivers/STM32F7xx_HAL_Driver/Src/stm32f7xx_ll_sdmmc.c ****   (void)SDMMC_SendCommand(SDMMCx, &sdmmc_cmdinit);
 1713              		.loc 1 720 0
 1714 0014 4FF48063 		mov	r3, #1024
 1715 0018 0593     		str	r3, [sp, #20]
 721:Drivers/STM32F7xx_HAL_Driver/Src/stm32f7xx_ll_sdmmc.c ****   
 1716              		.loc 1 721 0
 1717 001a 01A9     		add	r1, sp, #4
 1718              	.LVL187:
 1719 001c FFF7FEFF 		bl	SDMMC_SendCommand
 1720              	.LVL188:
 724:Drivers/STM32F7xx_HAL_Driver/Src/stm32f7xx_ll_sdmmc.c **** 
 1721              		.loc 1 724 0
 1722 0020 41F28832 		movw	r2, #5000
 1723 0024 2146     		mov	r1, r4
ARM GAS  /tmp/ccxJPvV1.s 			page 61


 1724 0026 2846     		mov	r0, r5
 1725 0028 FFF7FEFF 		bl	SDMMC_GetCmdResp1
 1726              	.LVL189:
 727:Drivers/STM32F7xx_HAL_Driver/Src/stm32f7xx_ll_sdmmc.c **** 
 1727              		.loc 1 727 0
 1728 002c 07B0     		add	sp, sp, #28
 1729              	.LCFI33:
 1730              		.cfi_def_cfa_offset 12
 1731              		@ sp needed
 1732 002e 30BD     		pop	{r4, r5, pc}
 1733              		.cfi_endproc
 1734              	.LFE162:
 1736              		.section	.text.SDMMC_CmdErase,"ax",%progbits
 1737              		.align	1
 1738              		.global	SDMMC_CmdErase
 1739              		.syntax unified
 1740              		.thumb
 1741              		.thumb_func
 1742              		.fpu fpv5-sp-d16
 1744              	SDMMC_CmdErase:
 1745              	.LFB163:
 735:Drivers/STM32F7xx_HAL_Driver/Src/stm32f7xx_ll_sdmmc.c ****   SDMMC_CmdInitTypeDef  sdmmc_cmdinit;
 1746              		.loc 1 735 0
 1747              		.cfi_startproc
 1748              		@ args = 0, pretend = 0, frame = 24
 1749              		@ frame_needed = 0, uses_anonymous_args = 0
 1750              	.LVL190:
 1751 0000 30B5     		push	{r4, r5, lr}
 1752              	.LCFI34:
 1753              		.cfi_def_cfa_offset 12
 1754              		.cfi_offset 4, -12
 1755              		.cfi_offset 5, -8
 1756              		.cfi_offset 14, -4
 1757 0002 87B0     		sub	sp, sp, #28
 1758              	.LCFI35:
 1759              		.cfi_def_cfa_offset 40
 1760 0004 0546     		mov	r5, r0
 740:Drivers/STM32F7xx_HAL_Driver/Src/stm32f7xx_ll_sdmmc.c ****   sdmmc_cmdinit.CmdIndex         = SDMMC_CMD_ERASE;
 1761              		.loc 1 740 0
 1762 0006 0023     		movs	r3, #0
 1763 0008 0193     		str	r3, [sp, #4]
 741:Drivers/STM32F7xx_HAL_Driver/Src/stm32f7xx_ll_sdmmc.c ****   sdmmc_cmdinit.Response         = SDMMC_RESPONSE_SHORT;
 1764              		.loc 1 741 0
 1765 000a 2624     		movs	r4, #38
 1766 000c 0294     		str	r4, [sp, #8]
 742:Drivers/STM32F7xx_HAL_Driver/Src/stm32f7xx_ll_sdmmc.c ****   sdmmc_cmdinit.WaitForInterrupt = SDMMC_WAIT_NO;
 1767              		.loc 1 742 0
 1768 000e 4022     		movs	r2, #64
 1769 0010 0392     		str	r2, [sp, #12]
 743:Drivers/STM32F7xx_HAL_Driver/Src/stm32f7xx_ll_sdmmc.c ****   sdmmc_cmdinit.CPSM             = SDMMC_CPSM_ENABLE;
 1770              		.loc 1 743 0
 1771 0012 0493     		str	r3, [sp, #16]
 744:Drivers/STM32F7xx_HAL_Driver/Src/stm32f7xx_ll_sdmmc.c ****   (void)SDMMC_SendCommand(SDMMCx, &sdmmc_cmdinit);
 1772              		.loc 1 744 0
 1773 0014 4FF48063 		mov	r3, #1024
 1774 0018 0593     		str	r3, [sp, #20]
 745:Drivers/STM32F7xx_HAL_Driver/Src/stm32f7xx_ll_sdmmc.c ****   
ARM GAS  /tmp/ccxJPvV1.s 			page 62


 1775              		.loc 1 745 0
 1776 001a 01A9     		add	r1, sp, #4
 1777 001c FFF7FEFF 		bl	SDMMC_SendCommand
 1778              	.LVL191:
 748:Drivers/STM32F7xx_HAL_Driver/Src/stm32f7xx_ll_sdmmc.c **** 
 1779              		.loc 1 748 0
 1780 0020 4FF21862 		movw	r2, #63000
 1781 0024 2146     		mov	r1, r4
 1782 0026 2846     		mov	r0, r5
 1783 0028 FFF7FEFF 		bl	SDMMC_GetCmdResp1
 1784              	.LVL192:
 751:Drivers/STM32F7xx_HAL_Driver/Src/stm32f7xx_ll_sdmmc.c **** 
 1785              		.loc 1 751 0
 1786 002c 07B0     		add	sp, sp, #28
 1787              	.LCFI36:
 1788              		.cfi_def_cfa_offset 12
 1789              		@ sp needed
 1790 002e 30BD     		pop	{r4, r5, pc}
 1791              		.cfi_endproc
 1792              	.LFE163:
 1794              		.section	.text.SDMMC_CmdStopTransfer,"ax",%progbits
 1795              		.align	1
 1796              		.global	SDMMC_CmdStopTransfer
 1797              		.syntax unified
 1798              		.thumb
 1799              		.thumb_func
 1800              		.fpu fpv5-sp-d16
 1802              	SDMMC_CmdStopTransfer:
 1803              	.LFB164:
 759:Drivers/STM32F7xx_HAL_Driver/Src/stm32f7xx_ll_sdmmc.c ****   SDMMC_CmdInitTypeDef  sdmmc_cmdinit;
 1804              		.loc 1 759 0
 1805              		.cfi_startproc
 1806              		@ args = 0, pretend = 0, frame = 24
 1807              		@ frame_needed = 0, uses_anonymous_args = 0
 1808              	.LVL193:
 1809 0000 30B5     		push	{r4, r5, lr}
 1810              	.LCFI37:
 1811              		.cfi_def_cfa_offset 12
 1812              		.cfi_offset 4, -12
 1813              		.cfi_offset 5, -8
 1814              		.cfi_offset 14, -4
 1815 0002 87B0     		sub	sp, sp, #28
 1816              	.LCFI38:
 1817              		.cfi_def_cfa_offset 40
 1818 0004 0546     		mov	r5, r0
 764:Drivers/STM32F7xx_HAL_Driver/Src/stm32f7xx_ll_sdmmc.c ****   sdmmc_cmdinit.CmdIndex         = SDMMC_CMD_STOP_TRANSMISSION;
 1819              		.loc 1 764 0
 1820 0006 0023     		movs	r3, #0
 1821 0008 0193     		str	r3, [sp, #4]
 765:Drivers/STM32F7xx_HAL_Driver/Src/stm32f7xx_ll_sdmmc.c ****   sdmmc_cmdinit.Response         = SDMMC_RESPONSE_SHORT;
 1822              		.loc 1 765 0
 1823 000a 0C24     		movs	r4, #12
 1824 000c 0294     		str	r4, [sp, #8]
 766:Drivers/STM32F7xx_HAL_Driver/Src/stm32f7xx_ll_sdmmc.c ****   sdmmc_cmdinit.WaitForInterrupt = SDMMC_WAIT_NO;
 1825              		.loc 1 766 0
 1826 000e 4022     		movs	r2, #64
 1827 0010 0392     		str	r2, [sp, #12]
ARM GAS  /tmp/ccxJPvV1.s 			page 63


 767:Drivers/STM32F7xx_HAL_Driver/Src/stm32f7xx_ll_sdmmc.c ****   sdmmc_cmdinit.CPSM             = SDMMC_CPSM_ENABLE;
 1828              		.loc 1 767 0
 1829 0012 0493     		str	r3, [sp, #16]
 768:Drivers/STM32F7xx_HAL_Driver/Src/stm32f7xx_ll_sdmmc.c ****   (void)SDMMC_SendCommand(SDMMCx, &sdmmc_cmdinit);
 1830              		.loc 1 768 0
 1831 0014 4FF48063 		mov	r3, #1024
 1832 0018 0593     		str	r3, [sp, #20]
 769:Drivers/STM32F7xx_HAL_Driver/Src/stm32f7xx_ll_sdmmc.c ****   
 1833              		.loc 1 769 0
 1834 001a 01A9     		add	r1, sp, #4
 1835 001c FFF7FEFF 		bl	SDMMC_SendCommand
 1836              	.LVL194:
 772:Drivers/STM32F7xx_HAL_Driver/Src/stm32f7xx_ll_sdmmc.c **** 
 1837              		.loc 1 772 0
 1838 0020 034A     		ldr	r2, .L124
 1839 0022 2146     		mov	r1, r4
 1840 0024 2846     		mov	r0, r5
 1841 0026 FFF7FEFF 		bl	SDMMC_GetCmdResp1
 1842              	.LVL195:
 775:Drivers/STM32F7xx_HAL_Driver/Src/stm32f7xx_ll_sdmmc.c **** 
 1843              		.loc 1 775 0
 1844 002a 07B0     		add	sp, sp, #28
 1845              	.LCFI39:
 1846              		.cfi_def_cfa_offset 12
 1847              		@ sp needed
 1848 002c 30BD     		pop	{r4, r5, pc}
 1849              	.LVL196:
 1850              	.L125:
 1851 002e 00BF     		.align	2
 1852              	.L124:
 1853 0030 00E1F505 		.word	100000000
 1854              		.cfi_endproc
 1855              	.LFE164:
 1857              		.section	.text.SDMMC_CmdSelDesel,"ax",%progbits
 1858              		.align	1
 1859              		.global	SDMMC_CmdSelDesel
 1860              		.syntax unified
 1861              		.thumb
 1862              		.thumb_func
 1863              		.fpu fpv5-sp-d16
 1865              	SDMMC_CmdSelDesel:
 1866              	.LFB165:
 784:Drivers/STM32F7xx_HAL_Driver/Src/stm32f7xx_ll_sdmmc.c ****   SDMMC_CmdInitTypeDef  sdmmc_cmdinit;
 1867              		.loc 1 784 0
 1868              		.cfi_startproc
 1869              		@ args = 0, pretend = 0, frame = 24
 1870              		@ frame_needed = 0, uses_anonymous_args = 0
 1871              	.LVL197:
 1872 0000 30B5     		push	{r4, r5, lr}
 1873              	.LCFI40:
 1874              		.cfi_def_cfa_offset 12
 1875              		.cfi_offset 4, -12
 1876              		.cfi_offset 5, -8
 1877              		.cfi_offset 14, -4
 1878 0002 87B0     		sub	sp, sp, #28
 1879              	.LCFI41:
 1880              		.cfi_def_cfa_offset 40
ARM GAS  /tmp/ccxJPvV1.s 			page 64


 1881 0004 0546     		mov	r5, r0
 789:Drivers/STM32F7xx_HAL_Driver/Src/stm32f7xx_ll_sdmmc.c ****   sdmmc_cmdinit.CmdIndex         = SDMMC_CMD_SEL_DESEL_CARD;
 1882              		.loc 1 789 0
 1883 0006 0192     		str	r2, [sp, #4]
 790:Drivers/STM32F7xx_HAL_Driver/Src/stm32f7xx_ll_sdmmc.c ****   sdmmc_cmdinit.Response         = SDMMC_RESPONSE_SHORT;
 1884              		.loc 1 790 0
 1885 0008 0724     		movs	r4, #7
 1886 000a 0294     		str	r4, [sp, #8]
 791:Drivers/STM32F7xx_HAL_Driver/Src/stm32f7xx_ll_sdmmc.c ****   sdmmc_cmdinit.WaitForInterrupt = SDMMC_WAIT_NO;
 1887              		.loc 1 791 0
 1888 000c 4023     		movs	r3, #64
 1889 000e 0393     		str	r3, [sp, #12]
 792:Drivers/STM32F7xx_HAL_Driver/Src/stm32f7xx_ll_sdmmc.c ****   sdmmc_cmdinit.CPSM             = SDMMC_CPSM_ENABLE;
 1890              		.loc 1 792 0
 1891 0010 0023     		movs	r3, #0
 1892 0012 0493     		str	r3, [sp, #16]
 793:Drivers/STM32F7xx_HAL_Driver/Src/stm32f7xx_ll_sdmmc.c ****   (void)SDMMC_SendCommand(SDMMCx, &sdmmc_cmdinit);
 1893              		.loc 1 793 0
 1894 0014 4FF48063 		mov	r3, #1024
 1895 0018 0593     		str	r3, [sp, #20]
 794:Drivers/STM32F7xx_HAL_Driver/Src/stm32f7xx_ll_sdmmc.c ****   
 1896              		.loc 1 794 0
 1897 001a 01A9     		add	r1, sp, #4
 1898 001c FFF7FEFF 		bl	SDMMC_SendCommand
 1899              	.LVL198:
 797:Drivers/STM32F7xx_HAL_Driver/Src/stm32f7xx_ll_sdmmc.c **** 
 1900              		.loc 1 797 0
 1901 0020 41F28832 		movw	r2, #5000
 1902 0024 2146     		mov	r1, r4
 1903 0026 2846     		mov	r0, r5
 1904 0028 FFF7FEFF 		bl	SDMMC_GetCmdResp1
 1905              	.LVL199:
 800:Drivers/STM32F7xx_HAL_Driver/Src/stm32f7xx_ll_sdmmc.c **** 
 1906              		.loc 1 800 0
 1907 002c 07B0     		add	sp, sp, #28
 1908              	.LCFI42:
 1909              		.cfi_def_cfa_offset 12
 1910              		@ sp needed
 1911 002e 30BD     		pop	{r4, r5, pc}
 1912              		.cfi_endproc
 1913              	.LFE165:
 1915              		.section	.text.SDMMC_CmdGoIdleState,"ax",%progbits
 1916              		.align	1
 1917              		.global	SDMMC_CmdGoIdleState
 1918              		.syntax unified
 1919              		.thumb
 1920              		.thumb_func
 1921              		.fpu fpv5-sp-d16
 1923              	SDMMC_CmdGoIdleState:
 1924              	.LFB166:
 808:Drivers/STM32F7xx_HAL_Driver/Src/stm32f7xx_ll_sdmmc.c ****   SDMMC_CmdInitTypeDef  sdmmc_cmdinit;
 1925              		.loc 1 808 0
 1926              		.cfi_startproc
 1927              		@ args = 0, pretend = 0, frame = 24
 1928              		@ frame_needed = 0, uses_anonymous_args = 0
 1929              	.LVL200:
 1930 0000 10B5     		push	{r4, lr}
ARM GAS  /tmp/ccxJPvV1.s 			page 65


 1931              	.LCFI43:
 1932              		.cfi_def_cfa_offset 8
 1933              		.cfi_offset 4, -8
 1934              		.cfi_offset 14, -4
 1935 0002 86B0     		sub	sp, sp, #24
 1936              	.LCFI44:
 1937              		.cfi_def_cfa_offset 32
 1938 0004 0446     		mov	r4, r0
 812:Drivers/STM32F7xx_HAL_Driver/Src/stm32f7xx_ll_sdmmc.c ****   sdmmc_cmdinit.CmdIndex         = SDMMC_CMD_GO_IDLE_STATE;
 1939              		.loc 1 812 0
 1940 0006 0023     		movs	r3, #0
 1941 0008 0193     		str	r3, [sp, #4]
 813:Drivers/STM32F7xx_HAL_Driver/Src/stm32f7xx_ll_sdmmc.c ****   sdmmc_cmdinit.Response         = SDMMC_RESPONSE_NO;
 1942              		.loc 1 813 0
 1943 000a 0293     		str	r3, [sp, #8]
 814:Drivers/STM32F7xx_HAL_Driver/Src/stm32f7xx_ll_sdmmc.c ****   sdmmc_cmdinit.WaitForInterrupt = SDMMC_WAIT_NO;
 1944              		.loc 1 814 0
 1945 000c 0393     		str	r3, [sp, #12]
 815:Drivers/STM32F7xx_HAL_Driver/Src/stm32f7xx_ll_sdmmc.c ****   sdmmc_cmdinit.CPSM             = SDMMC_CPSM_ENABLE;
 1946              		.loc 1 815 0
 1947 000e 0493     		str	r3, [sp, #16]
 816:Drivers/STM32F7xx_HAL_Driver/Src/stm32f7xx_ll_sdmmc.c ****   (void)SDMMC_SendCommand(SDMMCx, &sdmmc_cmdinit);
 1948              		.loc 1 816 0
 1949 0010 4FF48063 		mov	r3, #1024
 1950 0014 0593     		str	r3, [sp, #20]
 817:Drivers/STM32F7xx_HAL_Driver/Src/stm32f7xx_ll_sdmmc.c ****   
 1951              		.loc 1 817 0
 1952 0016 01A9     		add	r1, sp, #4
 1953 0018 FFF7FEFF 		bl	SDMMC_SendCommand
 1954              	.LVL201:
 820:Drivers/STM32F7xx_HAL_Driver/Src/stm32f7xx_ll_sdmmc.c **** 
 1955              		.loc 1 820 0
 1956 001c 2046     		mov	r0, r4
 1957 001e FFF7FEFF 		bl	SDMMC_GetCmdError
 1958              	.LVL202:
 823:Drivers/STM32F7xx_HAL_Driver/Src/stm32f7xx_ll_sdmmc.c **** 
 1959              		.loc 1 823 0
 1960 0022 06B0     		add	sp, sp, #24
 1961              	.LCFI45:
 1962              		.cfi_def_cfa_offset 8
 1963              		@ sp needed
 1964 0024 10BD     		pop	{r4, pc}
 1965              		.cfi_endproc
 1966              	.LFE166:
 1968              		.section	.text.SDMMC_CmdOperCond,"ax",%progbits
 1969              		.align	1
 1970              		.global	SDMMC_CmdOperCond
 1971              		.syntax unified
 1972              		.thumb
 1973              		.thumb_func
 1974              		.fpu fpv5-sp-d16
 1976              	SDMMC_CmdOperCond:
 1977              	.LFB167:
 831:Drivers/STM32F7xx_HAL_Driver/Src/stm32f7xx_ll_sdmmc.c ****   SDMMC_CmdInitTypeDef  sdmmc_cmdinit;
 1978              		.loc 1 831 0
 1979              		.cfi_startproc
 1980              		@ args = 0, pretend = 0, frame = 24
ARM GAS  /tmp/ccxJPvV1.s 			page 66


 1981              		@ frame_needed = 0, uses_anonymous_args = 0
 1982              	.LVL203:
 1983 0000 10B5     		push	{r4, lr}
 1984              	.LCFI46:
 1985              		.cfi_def_cfa_offset 8
 1986              		.cfi_offset 4, -8
 1987              		.cfi_offset 14, -4
 1988 0002 86B0     		sub	sp, sp, #24
 1989              	.LCFI47:
 1990              		.cfi_def_cfa_offset 32
 1991 0004 0446     		mov	r4, r0
 840:Drivers/STM32F7xx_HAL_Driver/Src/stm32f7xx_ll_sdmmc.c ****   sdmmc_cmdinit.CmdIndex         = SDMMC_CMD_HS_SEND_EXT_CSD;
 1992              		.loc 1 840 0
 1993 0006 4FF4D573 		mov	r3, #426
 1994 000a 0193     		str	r3, [sp, #4]
 841:Drivers/STM32F7xx_HAL_Driver/Src/stm32f7xx_ll_sdmmc.c ****   sdmmc_cmdinit.Response         = SDMMC_RESPONSE_SHORT;
 1995              		.loc 1 841 0
 1996 000c 0823     		movs	r3, #8
 1997 000e 0293     		str	r3, [sp, #8]
 842:Drivers/STM32F7xx_HAL_Driver/Src/stm32f7xx_ll_sdmmc.c ****   sdmmc_cmdinit.WaitForInterrupt = SDMMC_WAIT_NO;
 1998              		.loc 1 842 0
 1999 0010 4023     		movs	r3, #64
 2000 0012 0393     		str	r3, [sp, #12]
 843:Drivers/STM32F7xx_HAL_Driver/Src/stm32f7xx_ll_sdmmc.c ****   sdmmc_cmdinit.CPSM             = SDMMC_CPSM_ENABLE;
 2001              		.loc 1 843 0
 2002 0014 0023     		movs	r3, #0
 2003 0016 0493     		str	r3, [sp, #16]
 844:Drivers/STM32F7xx_HAL_Driver/Src/stm32f7xx_ll_sdmmc.c ****   (void)SDMMC_SendCommand(SDMMCx, &sdmmc_cmdinit);
 2004              		.loc 1 844 0
 2005 0018 4FF48063 		mov	r3, #1024
 2006 001c 0593     		str	r3, [sp, #20]
 845:Drivers/STM32F7xx_HAL_Driver/Src/stm32f7xx_ll_sdmmc.c ****   
 2007              		.loc 1 845 0
 2008 001e 01A9     		add	r1, sp, #4
 2009 0020 FFF7FEFF 		bl	SDMMC_SendCommand
 2010              	.LVL204:
 848:Drivers/STM32F7xx_HAL_Driver/Src/stm32f7xx_ll_sdmmc.c **** 
 2011              		.loc 1 848 0
 2012 0024 2046     		mov	r0, r4
 2013 0026 FFF7FEFF 		bl	SDMMC_GetCmdResp7
 2014              	.LVL205:
 851:Drivers/STM32F7xx_HAL_Driver/Src/stm32f7xx_ll_sdmmc.c **** 
 2015              		.loc 1 851 0
 2016 002a 06B0     		add	sp, sp, #24
 2017              	.LCFI48:
 2018              		.cfi_def_cfa_offset 8
 2019              		@ sp needed
 2020 002c 10BD     		pop	{r4, pc}
 2021              		.cfi_endproc
 2022              	.LFE167:
 2024              		.section	.text.SDMMC_CmdAppCommand,"ax",%progbits
 2025              		.align	1
 2026              		.global	SDMMC_CmdAppCommand
 2027              		.syntax unified
 2028              		.thumb
 2029              		.thumb_func
 2030              		.fpu fpv5-sp-d16
ARM GAS  /tmp/ccxJPvV1.s 			page 67


 2032              	SDMMC_CmdAppCommand:
 2033              	.LFB168:
 862:Drivers/STM32F7xx_HAL_Driver/Src/stm32f7xx_ll_sdmmc.c ****   SDMMC_CmdInitTypeDef  sdmmc_cmdinit;
 2034              		.loc 1 862 0
 2035              		.cfi_startproc
 2036              		@ args = 0, pretend = 0, frame = 24
 2037              		@ frame_needed = 0, uses_anonymous_args = 0
 2038              	.LVL206:
 2039 0000 30B5     		push	{r4, r5, lr}
 2040              	.LCFI49:
 2041              		.cfi_def_cfa_offset 12
 2042              		.cfi_offset 4, -12
 2043              		.cfi_offset 5, -8
 2044              		.cfi_offset 14, -4
 2045 0002 87B0     		sub	sp, sp, #28
 2046              	.LCFI50:
 2047              		.cfi_def_cfa_offset 40
 2048 0004 0546     		mov	r5, r0
 866:Drivers/STM32F7xx_HAL_Driver/Src/stm32f7xx_ll_sdmmc.c ****   sdmmc_cmdinit.CmdIndex         = SDMMC_CMD_APP_CMD;
 2049              		.loc 1 866 0
 2050 0006 0191     		str	r1, [sp, #4]
 867:Drivers/STM32F7xx_HAL_Driver/Src/stm32f7xx_ll_sdmmc.c ****   sdmmc_cmdinit.Response         = SDMMC_RESPONSE_SHORT;
 2051              		.loc 1 867 0
 2052 0008 3724     		movs	r4, #55
 2053 000a 0294     		str	r4, [sp, #8]
 868:Drivers/STM32F7xx_HAL_Driver/Src/stm32f7xx_ll_sdmmc.c ****   sdmmc_cmdinit.WaitForInterrupt = SDMMC_WAIT_NO;
 2054              		.loc 1 868 0
 2055 000c 4023     		movs	r3, #64
 2056 000e 0393     		str	r3, [sp, #12]
 869:Drivers/STM32F7xx_HAL_Driver/Src/stm32f7xx_ll_sdmmc.c ****   sdmmc_cmdinit.CPSM             = SDMMC_CPSM_ENABLE;
 2057              		.loc 1 869 0
 2058 0010 0023     		movs	r3, #0
 2059 0012 0493     		str	r3, [sp, #16]
 870:Drivers/STM32F7xx_HAL_Driver/Src/stm32f7xx_ll_sdmmc.c ****   (void)SDMMC_SendCommand(SDMMCx, &sdmmc_cmdinit);
 2060              		.loc 1 870 0
 2061 0014 4FF48063 		mov	r3, #1024
 2062 0018 0593     		str	r3, [sp, #20]
 871:Drivers/STM32F7xx_HAL_Driver/Src/stm32f7xx_ll_sdmmc.c ****   
 2063              		.loc 1 871 0
 2064 001a 01A9     		add	r1, sp, #4
 2065              	.LVL207:
 2066 001c FFF7FEFF 		bl	SDMMC_SendCommand
 2067              	.LVL208:
 877:Drivers/STM32F7xx_HAL_Driver/Src/stm32f7xx_ll_sdmmc.c **** 
 2068              		.loc 1 877 0
 2069 0020 41F28832 		movw	r2, #5000
 2070 0024 2146     		mov	r1, r4
 2071 0026 2846     		mov	r0, r5
 2072 0028 FFF7FEFF 		bl	SDMMC_GetCmdResp1
 2073              	.LVL209:
 880:Drivers/STM32F7xx_HAL_Driver/Src/stm32f7xx_ll_sdmmc.c **** 
 2074              		.loc 1 880 0
 2075 002c 07B0     		add	sp, sp, #28
 2076              	.LCFI51:
 2077              		.cfi_def_cfa_offset 12
 2078              		@ sp needed
 2079 002e 30BD     		pop	{r4, r5, pc}
ARM GAS  /tmp/ccxJPvV1.s 			page 68


 2080              		.cfi_endproc
 2081              	.LFE168:
 2083              		.section	.text.SDMMC_CmdAppOperCommand,"ax",%progbits
 2084              		.align	1
 2085              		.global	SDMMC_CmdAppOperCommand
 2086              		.syntax unified
 2087              		.thumb
 2088              		.thumb_func
 2089              		.fpu fpv5-sp-d16
 2091              	SDMMC_CmdAppOperCommand:
 2092              	.LFB169:
 890:Drivers/STM32F7xx_HAL_Driver/Src/stm32f7xx_ll_sdmmc.c ****   SDMMC_CmdInitTypeDef  sdmmc_cmdinit;
 2093              		.loc 1 890 0
 2094              		.cfi_startproc
 2095              		@ args = 0, pretend = 0, frame = 24
 2096              		@ frame_needed = 0, uses_anonymous_args = 0
 2097              	.LVL210:
 2098 0000 10B5     		push	{r4, lr}
 2099              	.LCFI52:
 2100              		.cfi_def_cfa_offset 8
 2101              		.cfi_offset 4, -8
 2102              		.cfi_offset 14, -4
 2103 0002 86B0     		sub	sp, sp, #24
 2104              	.LCFI53:
 2105              		.cfi_def_cfa_offset 32
 2106 0004 0446     		mov	r4, r0
 894:Drivers/STM32F7xx_HAL_Driver/Src/stm32f7xx_ll_sdmmc.c ****   sdmmc_cmdinit.CmdIndex         = SDMMC_CMD_SD_APP_OP_COND;
 2107              		.loc 1 894 0
 2108 0006 0A4B     		ldr	r3, .L136
 2109 0008 0B43     		orrs	r3, r3, r1
 2110 000a 0193     		str	r3, [sp, #4]
 895:Drivers/STM32F7xx_HAL_Driver/Src/stm32f7xx_ll_sdmmc.c ****   sdmmc_cmdinit.Response         = SDMMC_RESPONSE_SHORT;
 2111              		.loc 1 895 0
 2112 000c 2923     		movs	r3, #41
 2113 000e 0293     		str	r3, [sp, #8]
 896:Drivers/STM32F7xx_HAL_Driver/Src/stm32f7xx_ll_sdmmc.c ****   sdmmc_cmdinit.WaitForInterrupt = SDMMC_WAIT_NO;
 2114              		.loc 1 896 0
 2115 0010 4023     		movs	r3, #64
 2116 0012 0393     		str	r3, [sp, #12]
 897:Drivers/STM32F7xx_HAL_Driver/Src/stm32f7xx_ll_sdmmc.c ****   sdmmc_cmdinit.CPSM             = SDMMC_CPSM_ENABLE;
 2117              		.loc 1 897 0
 2118 0014 0023     		movs	r3, #0
 2119 0016 0493     		str	r3, [sp, #16]
 898:Drivers/STM32F7xx_HAL_Driver/Src/stm32f7xx_ll_sdmmc.c ****   (void)SDMMC_SendCommand(SDMMCx, &sdmmc_cmdinit);
 2120              		.loc 1 898 0
 2121 0018 4FF48063 		mov	r3, #1024
 2122 001c 0593     		str	r3, [sp, #20]
 899:Drivers/STM32F7xx_HAL_Driver/Src/stm32f7xx_ll_sdmmc.c ****   
 2123              		.loc 1 899 0
 2124 001e 01A9     		add	r1, sp, #4
 2125              	.LVL211:
 2126 0020 FFF7FEFF 		bl	SDMMC_SendCommand
 2127              	.LVL212:
 902:Drivers/STM32F7xx_HAL_Driver/Src/stm32f7xx_ll_sdmmc.c **** 
 2128              		.loc 1 902 0
 2129 0024 2046     		mov	r0, r4
 2130 0026 FFF7FEFF 		bl	SDMMC_GetCmdResp3
ARM GAS  /tmp/ccxJPvV1.s 			page 69


 2131              	.LVL213:
 905:Drivers/STM32F7xx_HAL_Driver/Src/stm32f7xx_ll_sdmmc.c **** 
 2132              		.loc 1 905 0
 2133 002a 06B0     		add	sp, sp, #24
 2134              	.LCFI54:
 2135              		.cfi_def_cfa_offset 8
 2136              		@ sp needed
 2137 002c 10BD     		pop	{r4, pc}
 2138              	.LVL214:
 2139              	.L137:
 2140 002e 00BF     		.align	2
 2141              	.L136:
 2142 0030 00001080 		.word	-2146435072
 2143              		.cfi_endproc
 2144              	.LFE169:
 2146              		.section	.text.SDMMC_CmdBusWidth,"ax",%progbits
 2147              		.align	1
 2148              		.global	SDMMC_CmdBusWidth
 2149              		.syntax unified
 2150              		.thumb
 2151              		.thumb_func
 2152              		.fpu fpv5-sp-d16
 2154              	SDMMC_CmdBusWidth:
 2155              	.LFB170:
 914:Drivers/STM32F7xx_HAL_Driver/Src/stm32f7xx_ll_sdmmc.c ****   SDMMC_CmdInitTypeDef  sdmmc_cmdinit;
 2156              		.loc 1 914 0
 2157              		.cfi_startproc
 2158              		@ args = 0, pretend = 0, frame = 24
 2159              		@ frame_needed = 0, uses_anonymous_args = 0
 2160              	.LVL215:
 2161 0000 30B5     		push	{r4, r5, lr}
 2162              	.LCFI55:
 2163              		.cfi_def_cfa_offset 12
 2164              		.cfi_offset 4, -12
 2165              		.cfi_offset 5, -8
 2166              		.cfi_offset 14, -4
 2167 0002 87B0     		sub	sp, sp, #28
 2168              	.LCFI56:
 2169              		.cfi_def_cfa_offset 40
 2170 0004 0546     		mov	r5, r0
 918:Drivers/STM32F7xx_HAL_Driver/Src/stm32f7xx_ll_sdmmc.c ****   sdmmc_cmdinit.CmdIndex         = SDMMC_CMD_APP_SD_SET_BUSWIDTH;
 2171              		.loc 1 918 0
 2172 0006 0191     		str	r1, [sp, #4]
 919:Drivers/STM32F7xx_HAL_Driver/Src/stm32f7xx_ll_sdmmc.c ****   sdmmc_cmdinit.Response         = SDMMC_RESPONSE_SHORT;
 2173              		.loc 1 919 0
 2174 0008 0624     		movs	r4, #6
 2175 000a 0294     		str	r4, [sp, #8]
 920:Drivers/STM32F7xx_HAL_Driver/Src/stm32f7xx_ll_sdmmc.c ****   sdmmc_cmdinit.WaitForInterrupt = SDMMC_WAIT_NO;
 2176              		.loc 1 920 0
 2177 000c 4023     		movs	r3, #64
 2178 000e 0393     		str	r3, [sp, #12]
 921:Drivers/STM32F7xx_HAL_Driver/Src/stm32f7xx_ll_sdmmc.c ****   sdmmc_cmdinit.CPSM             = SDMMC_CPSM_ENABLE;
 2179              		.loc 1 921 0
 2180 0010 0023     		movs	r3, #0
 2181 0012 0493     		str	r3, [sp, #16]
 922:Drivers/STM32F7xx_HAL_Driver/Src/stm32f7xx_ll_sdmmc.c ****   (void)SDMMC_SendCommand(SDMMCx, &sdmmc_cmdinit);
 2182              		.loc 1 922 0
ARM GAS  /tmp/ccxJPvV1.s 			page 70


 2183 0014 4FF48063 		mov	r3, #1024
 2184 0018 0593     		str	r3, [sp, #20]
 923:Drivers/STM32F7xx_HAL_Driver/Src/stm32f7xx_ll_sdmmc.c ****   
 2185              		.loc 1 923 0
 2186 001a 01A9     		add	r1, sp, #4
 2187              	.LVL216:
 2188 001c FFF7FEFF 		bl	SDMMC_SendCommand
 2189              	.LVL217:
 926:Drivers/STM32F7xx_HAL_Driver/Src/stm32f7xx_ll_sdmmc.c **** 
 2190              		.loc 1 926 0
 2191 0020 41F28832 		movw	r2, #5000
 2192 0024 2146     		mov	r1, r4
 2193 0026 2846     		mov	r0, r5
 2194 0028 FFF7FEFF 		bl	SDMMC_GetCmdResp1
 2195              	.LVL218:
 929:Drivers/STM32F7xx_HAL_Driver/Src/stm32f7xx_ll_sdmmc.c **** 
 2196              		.loc 1 929 0
 2197 002c 07B0     		add	sp, sp, #28
 2198              	.LCFI57:
 2199              		.cfi_def_cfa_offset 12
 2200              		@ sp needed
 2201 002e 30BD     		pop	{r4, r5, pc}
 2202              		.cfi_endproc
 2203              	.LFE170:
 2205              		.section	.text.SDMMC_CmdSendSCR,"ax",%progbits
 2206              		.align	1
 2207              		.global	SDMMC_CmdSendSCR
 2208              		.syntax unified
 2209              		.thumb
 2210              		.thumb_func
 2211              		.fpu fpv5-sp-d16
 2213              	SDMMC_CmdSendSCR:
 2214              	.LFB171:
 937:Drivers/STM32F7xx_HAL_Driver/Src/stm32f7xx_ll_sdmmc.c ****   SDMMC_CmdInitTypeDef  sdmmc_cmdinit;
 2215              		.loc 1 937 0
 2216              		.cfi_startproc
 2217              		@ args = 0, pretend = 0, frame = 24
 2218              		@ frame_needed = 0, uses_anonymous_args = 0
 2219              	.LVL219:
 2220 0000 30B5     		push	{r4, r5, lr}
 2221              	.LCFI58:
 2222              		.cfi_def_cfa_offset 12
 2223              		.cfi_offset 4, -12
 2224              		.cfi_offset 5, -8
 2225              		.cfi_offset 14, -4
 2226 0002 87B0     		sub	sp, sp, #28
 2227              	.LCFI59:
 2228              		.cfi_def_cfa_offset 40
 2229 0004 0546     		mov	r5, r0
 942:Drivers/STM32F7xx_HAL_Driver/Src/stm32f7xx_ll_sdmmc.c ****   sdmmc_cmdinit.CmdIndex         = SDMMC_CMD_SD_APP_SEND_SCR;
 2230              		.loc 1 942 0
 2231 0006 0023     		movs	r3, #0
 2232 0008 0193     		str	r3, [sp, #4]
 943:Drivers/STM32F7xx_HAL_Driver/Src/stm32f7xx_ll_sdmmc.c ****   sdmmc_cmdinit.Response         = SDMMC_RESPONSE_SHORT;
 2233              		.loc 1 943 0
 2234 000a 3324     		movs	r4, #51
 2235 000c 0294     		str	r4, [sp, #8]
ARM GAS  /tmp/ccxJPvV1.s 			page 71


 944:Drivers/STM32F7xx_HAL_Driver/Src/stm32f7xx_ll_sdmmc.c ****   sdmmc_cmdinit.WaitForInterrupt = SDMMC_WAIT_NO;
 2236              		.loc 1 944 0
 2237 000e 4022     		movs	r2, #64
 2238 0010 0392     		str	r2, [sp, #12]
 945:Drivers/STM32F7xx_HAL_Driver/Src/stm32f7xx_ll_sdmmc.c ****   sdmmc_cmdinit.CPSM             = SDMMC_CPSM_ENABLE;
 2239              		.loc 1 945 0
 2240 0012 0493     		str	r3, [sp, #16]
 946:Drivers/STM32F7xx_HAL_Driver/Src/stm32f7xx_ll_sdmmc.c ****   (void)SDMMC_SendCommand(SDMMCx, &sdmmc_cmdinit);
 2241              		.loc 1 946 0
 2242 0014 4FF48063 		mov	r3, #1024
 2243 0018 0593     		str	r3, [sp, #20]
 947:Drivers/STM32F7xx_HAL_Driver/Src/stm32f7xx_ll_sdmmc.c ****   
 2244              		.loc 1 947 0
 2245 001a 01A9     		add	r1, sp, #4
 2246 001c FFF7FEFF 		bl	SDMMC_SendCommand
 2247              	.LVL220:
 950:Drivers/STM32F7xx_HAL_Driver/Src/stm32f7xx_ll_sdmmc.c **** 
 2248              		.loc 1 950 0
 2249 0020 41F28832 		movw	r2, #5000
 2250 0024 2146     		mov	r1, r4
 2251 0026 2846     		mov	r0, r5
 2252 0028 FFF7FEFF 		bl	SDMMC_GetCmdResp1
 2253              	.LVL221:
 953:Drivers/STM32F7xx_HAL_Driver/Src/stm32f7xx_ll_sdmmc.c **** 
 2254              		.loc 1 953 0
 2255 002c 07B0     		add	sp, sp, #28
 2256              	.LCFI60:
 2257              		.cfi_def_cfa_offset 12
 2258              		@ sp needed
 2259 002e 30BD     		pop	{r4, r5, pc}
 2260              		.cfi_endproc
 2261              	.LFE171:
 2263              		.section	.text.SDMMC_CmdSendCID,"ax",%progbits
 2264              		.align	1
 2265              		.global	SDMMC_CmdSendCID
 2266              		.syntax unified
 2267              		.thumb
 2268              		.thumb_func
 2269              		.fpu fpv5-sp-d16
 2271              	SDMMC_CmdSendCID:
 2272              	.LFB172:
 961:Drivers/STM32F7xx_HAL_Driver/Src/stm32f7xx_ll_sdmmc.c ****   SDMMC_CmdInitTypeDef  sdmmc_cmdinit;
 2273              		.loc 1 961 0
 2274              		.cfi_startproc
 2275              		@ args = 0, pretend = 0, frame = 24
 2276              		@ frame_needed = 0, uses_anonymous_args = 0
 2277              	.LVL222:
 2278 0000 10B5     		push	{r4, lr}
 2279              	.LCFI61:
 2280              		.cfi_def_cfa_offset 8
 2281              		.cfi_offset 4, -8
 2282              		.cfi_offset 14, -4
 2283 0002 86B0     		sub	sp, sp, #24
 2284              	.LCFI62:
 2285              		.cfi_def_cfa_offset 32
 2286 0004 0446     		mov	r4, r0
 966:Drivers/STM32F7xx_HAL_Driver/Src/stm32f7xx_ll_sdmmc.c ****   sdmmc_cmdinit.CmdIndex         = SDMMC_CMD_ALL_SEND_CID;
ARM GAS  /tmp/ccxJPvV1.s 			page 72


 2287              		.loc 1 966 0
 2288 0006 0023     		movs	r3, #0
 2289 0008 0193     		str	r3, [sp, #4]
 967:Drivers/STM32F7xx_HAL_Driver/Src/stm32f7xx_ll_sdmmc.c ****   sdmmc_cmdinit.Response         = SDMMC_RESPONSE_LONG;
 2290              		.loc 1 967 0
 2291 000a 0222     		movs	r2, #2
 2292 000c 0292     		str	r2, [sp, #8]
 968:Drivers/STM32F7xx_HAL_Driver/Src/stm32f7xx_ll_sdmmc.c ****   sdmmc_cmdinit.WaitForInterrupt = SDMMC_WAIT_NO;
 2293              		.loc 1 968 0
 2294 000e C022     		movs	r2, #192
 2295 0010 0392     		str	r2, [sp, #12]
 969:Drivers/STM32F7xx_HAL_Driver/Src/stm32f7xx_ll_sdmmc.c ****   sdmmc_cmdinit.CPSM             = SDMMC_CPSM_ENABLE;
 2296              		.loc 1 969 0
 2297 0012 0493     		str	r3, [sp, #16]
 970:Drivers/STM32F7xx_HAL_Driver/Src/stm32f7xx_ll_sdmmc.c ****   (void)SDMMC_SendCommand(SDMMCx, &sdmmc_cmdinit);
 2298              		.loc 1 970 0
 2299 0014 4FF48063 		mov	r3, #1024
 2300 0018 0593     		str	r3, [sp, #20]
 971:Drivers/STM32F7xx_HAL_Driver/Src/stm32f7xx_ll_sdmmc.c ****   
 2301              		.loc 1 971 0
 2302 001a 01A9     		add	r1, sp, #4
 2303 001c FFF7FEFF 		bl	SDMMC_SendCommand
 2304              	.LVL223:
 974:Drivers/STM32F7xx_HAL_Driver/Src/stm32f7xx_ll_sdmmc.c **** 
 2305              		.loc 1 974 0
 2306 0020 2046     		mov	r0, r4
 2307 0022 FFF7FEFF 		bl	SDMMC_GetCmdResp2
 2308              	.LVL224:
 977:Drivers/STM32F7xx_HAL_Driver/Src/stm32f7xx_ll_sdmmc.c **** 
 2309              		.loc 1 977 0
 2310 0026 06B0     		add	sp, sp, #24
 2311              	.LCFI63:
 2312              		.cfi_def_cfa_offset 8
 2313              		@ sp needed
 2314 0028 10BD     		pop	{r4, pc}
 2315              		.cfi_endproc
 2316              	.LFE172:
 2318              		.section	.text.SDMMC_CmdSendCSD,"ax",%progbits
 2319              		.align	1
 2320              		.global	SDMMC_CmdSendCSD
 2321              		.syntax unified
 2322              		.thumb
 2323              		.thumb_func
 2324              		.fpu fpv5-sp-d16
 2326              	SDMMC_CmdSendCSD:
 2327              	.LFB173:
 986:Drivers/STM32F7xx_HAL_Driver/Src/stm32f7xx_ll_sdmmc.c ****   SDMMC_CmdInitTypeDef  sdmmc_cmdinit;
 2328              		.loc 1 986 0
 2329              		.cfi_startproc
 2330              		@ args = 0, pretend = 0, frame = 24
 2331              		@ frame_needed = 0, uses_anonymous_args = 0
 2332              	.LVL225:
 2333 0000 10B5     		push	{r4, lr}
 2334              	.LCFI64:
 2335              		.cfi_def_cfa_offset 8
 2336              		.cfi_offset 4, -8
 2337              		.cfi_offset 14, -4
ARM GAS  /tmp/ccxJPvV1.s 			page 73


 2338 0002 86B0     		sub	sp, sp, #24
 2339              	.LCFI65:
 2340              		.cfi_def_cfa_offset 32
 2341 0004 0446     		mov	r4, r0
 991:Drivers/STM32F7xx_HAL_Driver/Src/stm32f7xx_ll_sdmmc.c ****   sdmmc_cmdinit.CmdIndex         = SDMMC_CMD_SEND_CSD;
 2342              		.loc 1 991 0
 2343 0006 0191     		str	r1, [sp, #4]
 992:Drivers/STM32F7xx_HAL_Driver/Src/stm32f7xx_ll_sdmmc.c ****   sdmmc_cmdinit.Response         = SDMMC_RESPONSE_LONG;
 2344              		.loc 1 992 0
 2345 0008 0923     		movs	r3, #9
 2346 000a 0293     		str	r3, [sp, #8]
 993:Drivers/STM32F7xx_HAL_Driver/Src/stm32f7xx_ll_sdmmc.c ****   sdmmc_cmdinit.WaitForInterrupt = SDMMC_WAIT_NO;
 2347              		.loc 1 993 0
 2348 000c C023     		movs	r3, #192
 2349 000e 0393     		str	r3, [sp, #12]
 994:Drivers/STM32F7xx_HAL_Driver/Src/stm32f7xx_ll_sdmmc.c ****   sdmmc_cmdinit.CPSM             = SDMMC_CPSM_ENABLE;
 2350              		.loc 1 994 0
 2351 0010 0023     		movs	r3, #0
 2352 0012 0493     		str	r3, [sp, #16]
 995:Drivers/STM32F7xx_HAL_Driver/Src/stm32f7xx_ll_sdmmc.c ****   (void)SDMMC_SendCommand(SDMMCx, &sdmmc_cmdinit);
 2353              		.loc 1 995 0
 2354 0014 4FF48063 		mov	r3, #1024
 2355 0018 0593     		str	r3, [sp, #20]
 996:Drivers/STM32F7xx_HAL_Driver/Src/stm32f7xx_ll_sdmmc.c ****   
 2356              		.loc 1 996 0
 2357 001a 01A9     		add	r1, sp, #4
 2358              	.LVL226:
 2359 001c FFF7FEFF 		bl	SDMMC_SendCommand
 2360              	.LVL227:
 999:Drivers/STM32F7xx_HAL_Driver/Src/stm32f7xx_ll_sdmmc.c **** 
 2361              		.loc 1 999 0
 2362 0020 2046     		mov	r0, r4
 2363 0022 FFF7FEFF 		bl	SDMMC_GetCmdResp2
 2364              	.LVL228:
1002:Drivers/STM32F7xx_HAL_Driver/Src/stm32f7xx_ll_sdmmc.c **** 
 2365              		.loc 1 1002 0
 2366 0026 06B0     		add	sp, sp, #24
 2367              	.LCFI66:
 2368              		.cfi_def_cfa_offset 8
 2369              		@ sp needed
 2370 0028 10BD     		pop	{r4, pc}
 2371              		.cfi_endproc
 2372              	.LFE173:
 2374              		.section	.text.SDMMC_CmdSetRelAdd,"ax",%progbits
 2375              		.align	1
 2376              		.global	SDMMC_CmdSetRelAdd
 2377              		.syntax unified
 2378              		.thumb
 2379              		.thumb_func
 2380              		.fpu fpv5-sp-d16
 2382              	SDMMC_CmdSetRelAdd:
 2383              	.LFB174:
1011:Drivers/STM32F7xx_HAL_Driver/Src/stm32f7xx_ll_sdmmc.c ****   SDMMC_CmdInitTypeDef  sdmmc_cmdinit;
 2384              		.loc 1 1011 0
 2385              		.cfi_startproc
 2386              		@ args = 0, pretend = 0, frame = 24
 2387              		@ frame_needed = 0, uses_anonymous_args = 0
ARM GAS  /tmp/ccxJPvV1.s 			page 74


 2388              	.LVL229:
 2389 0000 70B5     		push	{r4, r5, r6, lr}
 2390              	.LCFI67:
 2391              		.cfi_def_cfa_offset 16
 2392              		.cfi_offset 4, -16
 2393              		.cfi_offset 5, -12
 2394              		.cfi_offset 6, -8
 2395              		.cfi_offset 14, -4
 2396 0002 86B0     		sub	sp, sp, #24
 2397              	.LCFI68:
 2398              		.cfi_def_cfa_offset 40
 2399 0004 0546     		mov	r5, r0
 2400 0006 0E46     		mov	r6, r1
1016:Drivers/STM32F7xx_HAL_Driver/Src/stm32f7xx_ll_sdmmc.c ****   sdmmc_cmdinit.CmdIndex         = SDMMC_CMD_SET_REL_ADDR;
 2401              		.loc 1 1016 0
 2402 0008 0023     		movs	r3, #0
 2403 000a 0193     		str	r3, [sp, #4]
1017:Drivers/STM32F7xx_HAL_Driver/Src/stm32f7xx_ll_sdmmc.c ****   sdmmc_cmdinit.Response         = SDMMC_RESPONSE_SHORT;
 2404              		.loc 1 1017 0
 2405 000c 0324     		movs	r4, #3
 2406 000e 0294     		str	r4, [sp, #8]
1018:Drivers/STM32F7xx_HAL_Driver/Src/stm32f7xx_ll_sdmmc.c ****   sdmmc_cmdinit.WaitForInterrupt = SDMMC_WAIT_NO;
 2407              		.loc 1 1018 0
 2408 0010 4022     		movs	r2, #64
 2409 0012 0392     		str	r2, [sp, #12]
1019:Drivers/STM32F7xx_HAL_Driver/Src/stm32f7xx_ll_sdmmc.c ****   sdmmc_cmdinit.CPSM             = SDMMC_CPSM_ENABLE;
 2410              		.loc 1 1019 0
 2411 0014 0493     		str	r3, [sp, #16]
1020:Drivers/STM32F7xx_HAL_Driver/Src/stm32f7xx_ll_sdmmc.c ****   (void)SDMMC_SendCommand(SDMMCx, &sdmmc_cmdinit);
 2412              		.loc 1 1020 0
 2413 0016 4FF48063 		mov	r3, #1024
 2414 001a 0593     		str	r3, [sp, #20]
1021:Drivers/STM32F7xx_HAL_Driver/Src/stm32f7xx_ll_sdmmc.c ****   
 2415              		.loc 1 1021 0
 2416 001c 01A9     		add	r1, sp, #4
 2417              	.LVL230:
 2418 001e FFF7FEFF 		bl	SDMMC_SendCommand
 2419              	.LVL231:
1024:Drivers/STM32F7xx_HAL_Driver/Src/stm32f7xx_ll_sdmmc.c **** 
 2420              		.loc 1 1024 0
 2421 0022 3246     		mov	r2, r6
 2422 0024 2146     		mov	r1, r4
 2423 0026 2846     		mov	r0, r5
 2424 0028 FFF7FEFF 		bl	SDMMC_GetCmdResp6
 2425              	.LVL232:
1027:Drivers/STM32F7xx_HAL_Driver/Src/stm32f7xx_ll_sdmmc.c **** 
 2426              		.loc 1 1027 0
 2427 002c 06B0     		add	sp, sp, #24
 2428              	.LCFI69:
 2429              		.cfi_def_cfa_offset 16
 2430              		@ sp needed
 2431 002e 70BD     		pop	{r4, r5, r6, pc}
 2432              		.cfi_endproc
 2433              	.LFE174:
 2435              		.section	.text.SDMMC_CmdSendStatus,"ax",%progbits
 2436              		.align	1
 2437              		.global	SDMMC_CmdSendStatus
ARM GAS  /tmp/ccxJPvV1.s 			page 75


 2438              		.syntax unified
 2439              		.thumb
 2440              		.thumb_func
 2441              		.fpu fpv5-sp-d16
 2443              	SDMMC_CmdSendStatus:
 2444              	.LFB175:
1036:Drivers/STM32F7xx_HAL_Driver/Src/stm32f7xx_ll_sdmmc.c ****   SDMMC_CmdInitTypeDef  sdmmc_cmdinit;
 2445              		.loc 1 1036 0
 2446              		.cfi_startproc
 2447              		@ args = 0, pretend = 0, frame = 24
 2448              		@ frame_needed = 0, uses_anonymous_args = 0
 2449              	.LVL233:
 2450 0000 30B5     		push	{r4, r5, lr}
 2451              	.LCFI70:
 2452              		.cfi_def_cfa_offset 12
 2453              		.cfi_offset 4, -12
 2454              		.cfi_offset 5, -8
 2455              		.cfi_offset 14, -4
 2456 0002 87B0     		sub	sp, sp, #28
 2457              	.LCFI71:
 2458              		.cfi_def_cfa_offset 40
 2459 0004 0546     		mov	r5, r0
1040:Drivers/STM32F7xx_HAL_Driver/Src/stm32f7xx_ll_sdmmc.c ****   sdmmc_cmdinit.CmdIndex         = SDMMC_CMD_SEND_STATUS;
 2460              		.loc 1 1040 0
 2461 0006 0191     		str	r1, [sp, #4]
1041:Drivers/STM32F7xx_HAL_Driver/Src/stm32f7xx_ll_sdmmc.c ****   sdmmc_cmdinit.Response         = SDMMC_RESPONSE_SHORT;
 2462              		.loc 1 1041 0
 2463 0008 0D24     		movs	r4, #13
 2464 000a 0294     		str	r4, [sp, #8]
1042:Drivers/STM32F7xx_HAL_Driver/Src/stm32f7xx_ll_sdmmc.c ****   sdmmc_cmdinit.WaitForInterrupt = SDMMC_WAIT_NO;
 2465              		.loc 1 1042 0
 2466 000c 4023     		movs	r3, #64
 2467 000e 0393     		str	r3, [sp, #12]
1043:Drivers/STM32F7xx_HAL_Driver/Src/stm32f7xx_ll_sdmmc.c ****   sdmmc_cmdinit.CPSM             = SDMMC_CPSM_ENABLE;
 2468              		.loc 1 1043 0
 2469 0010 0023     		movs	r3, #0
 2470 0012 0493     		str	r3, [sp, #16]
1044:Drivers/STM32F7xx_HAL_Driver/Src/stm32f7xx_ll_sdmmc.c ****   (void)SDMMC_SendCommand(SDMMCx, &sdmmc_cmdinit);
 2471              		.loc 1 1044 0
 2472 0014 4FF48063 		mov	r3, #1024
 2473 0018 0593     		str	r3, [sp, #20]
1045:Drivers/STM32F7xx_HAL_Driver/Src/stm32f7xx_ll_sdmmc.c ****   
 2474              		.loc 1 1045 0
 2475 001a 01A9     		add	r1, sp, #4
 2476              	.LVL234:
 2477 001c FFF7FEFF 		bl	SDMMC_SendCommand
 2478              	.LVL235:
1048:Drivers/STM32F7xx_HAL_Driver/Src/stm32f7xx_ll_sdmmc.c **** 
 2479              		.loc 1 1048 0
 2480 0020 41F28832 		movw	r2, #5000
 2481 0024 2146     		mov	r1, r4
 2482 0026 2846     		mov	r0, r5
 2483 0028 FFF7FEFF 		bl	SDMMC_GetCmdResp1
 2484              	.LVL236:
1051:Drivers/STM32F7xx_HAL_Driver/Src/stm32f7xx_ll_sdmmc.c **** 
 2485              		.loc 1 1051 0
 2486 002c 07B0     		add	sp, sp, #28
ARM GAS  /tmp/ccxJPvV1.s 			page 76


 2487              	.LCFI72:
 2488              		.cfi_def_cfa_offset 12
 2489              		@ sp needed
 2490 002e 30BD     		pop	{r4, r5, pc}
 2491              		.cfi_endproc
 2492              	.LFE175:
 2494              		.section	.text.SDMMC_CmdStatusRegister,"ax",%progbits
 2495              		.align	1
 2496              		.global	SDMMC_CmdStatusRegister
 2497              		.syntax unified
 2498              		.thumb
 2499              		.thumb_func
 2500              		.fpu fpv5-sp-d16
 2502              	SDMMC_CmdStatusRegister:
 2503              	.LFB176:
1059:Drivers/STM32F7xx_HAL_Driver/Src/stm32f7xx_ll_sdmmc.c ****   SDMMC_CmdInitTypeDef  sdmmc_cmdinit;
 2504              		.loc 1 1059 0
 2505              		.cfi_startproc
 2506              		@ args = 0, pretend = 0, frame = 24
 2507              		@ frame_needed = 0, uses_anonymous_args = 0
 2508              	.LVL237:
 2509 0000 30B5     		push	{r4, r5, lr}
 2510              	.LCFI73:
 2511              		.cfi_def_cfa_offset 12
 2512              		.cfi_offset 4, -12
 2513              		.cfi_offset 5, -8
 2514              		.cfi_offset 14, -4
 2515 0002 87B0     		sub	sp, sp, #28
 2516              	.LCFI74:
 2517              		.cfi_def_cfa_offset 40
 2518 0004 0546     		mov	r5, r0
1063:Drivers/STM32F7xx_HAL_Driver/Src/stm32f7xx_ll_sdmmc.c ****   sdmmc_cmdinit.CmdIndex         = SDMMC_CMD_SD_APP_STATUS;
 2519              		.loc 1 1063 0
 2520 0006 0023     		movs	r3, #0
 2521 0008 0193     		str	r3, [sp, #4]
1064:Drivers/STM32F7xx_HAL_Driver/Src/stm32f7xx_ll_sdmmc.c ****   sdmmc_cmdinit.Response         = SDMMC_RESPONSE_SHORT;
 2522              		.loc 1 1064 0
 2523 000a 0D24     		movs	r4, #13
 2524 000c 0294     		str	r4, [sp, #8]
1065:Drivers/STM32F7xx_HAL_Driver/Src/stm32f7xx_ll_sdmmc.c ****   sdmmc_cmdinit.WaitForInterrupt = SDMMC_WAIT_NO;
 2525              		.loc 1 1065 0
 2526 000e 4022     		movs	r2, #64
 2527 0010 0392     		str	r2, [sp, #12]
1066:Drivers/STM32F7xx_HAL_Driver/Src/stm32f7xx_ll_sdmmc.c ****   sdmmc_cmdinit.CPSM             = SDMMC_CPSM_ENABLE;
 2528              		.loc 1 1066 0
 2529 0012 0493     		str	r3, [sp, #16]
1067:Drivers/STM32F7xx_HAL_Driver/Src/stm32f7xx_ll_sdmmc.c ****   (void)SDMMC_SendCommand(SDMMCx, &sdmmc_cmdinit);
 2530              		.loc 1 1067 0
 2531 0014 4FF48063 		mov	r3, #1024
 2532 0018 0593     		str	r3, [sp, #20]
1068:Drivers/STM32F7xx_HAL_Driver/Src/stm32f7xx_ll_sdmmc.c ****   
 2533              		.loc 1 1068 0
 2534 001a 01A9     		add	r1, sp, #4
 2535 001c FFF7FEFF 		bl	SDMMC_SendCommand
 2536              	.LVL238:
1071:Drivers/STM32F7xx_HAL_Driver/Src/stm32f7xx_ll_sdmmc.c **** 
 2537              		.loc 1 1071 0
ARM GAS  /tmp/ccxJPvV1.s 			page 77


 2538 0020 41F28832 		movw	r2, #5000
 2539 0024 2146     		mov	r1, r4
 2540 0026 2846     		mov	r0, r5
 2541 0028 FFF7FEFF 		bl	SDMMC_GetCmdResp1
 2542              	.LVL239:
1074:Drivers/STM32F7xx_HAL_Driver/Src/stm32f7xx_ll_sdmmc.c **** 
 2543              		.loc 1 1074 0
 2544 002c 07B0     		add	sp, sp, #28
 2545              	.LCFI75:
 2546              		.cfi_def_cfa_offset 12
 2547              		@ sp needed
 2548 002e 30BD     		pop	{r4, r5, pc}
 2549              		.cfi_endproc
 2550              	.LFE176:
 2552              		.section	.text.SDMMC_CmdOpCondition,"ax",%progbits
 2553              		.align	1
 2554              		.global	SDMMC_CmdOpCondition
 2555              		.syntax unified
 2556              		.thumb
 2557              		.thumb_func
 2558              		.fpu fpv5-sp-d16
 2560              	SDMMC_CmdOpCondition:
 2561              	.LFB177:
1084:Drivers/STM32F7xx_HAL_Driver/Src/stm32f7xx_ll_sdmmc.c ****   SDMMC_CmdInitTypeDef  sdmmc_cmdinit;
 2562              		.loc 1 1084 0
 2563              		.cfi_startproc
 2564              		@ args = 0, pretend = 0, frame = 24
 2565              		@ frame_needed = 0, uses_anonymous_args = 0
 2566              	.LVL240:
 2567 0000 10B5     		push	{r4, lr}
 2568              	.LCFI76:
 2569              		.cfi_def_cfa_offset 8
 2570              		.cfi_offset 4, -8
 2571              		.cfi_offset 14, -4
 2572 0002 86B0     		sub	sp, sp, #24
 2573              	.LCFI77:
 2574              		.cfi_def_cfa_offset 32
 2575 0004 0446     		mov	r4, r0
1088:Drivers/STM32F7xx_HAL_Driver/Src/stm32f7xx_ll_sdmmc.c ****   sdmmc_cmdinit.CmdIndex         = SDMMC_CMD_SEND_OP_COND;
 2576              		.loc 1 1088 0
 2577 0006 0191     		str	r1, [sp, #4]
1089:Drivers/STM32F7xx_HAL_Driver/Src/stm32f7xx_ll_sdmmc.c ****   sdmmc_cmdinit.Response         = SDMMC_RESPONSE_SHORT;
 2578              		.loc 1 1089 0
 2579 0008 0123     		movs	r3, #1
 2580 000a 0293     		str	r3, [sp, #8]
1090:Drivers/STM32F7xx_HAL_Driver/Src/stm32f7xx_ll_sdmmc.c ****   sdmmc_cmdinit.WaitForInterrupt = SDMMC_WAIT_NO;
 2581              		.loc 1 1090 0
 2582 000c 4023     		movs	r3, #64
 2583 000e 0393     		str	r3, [sp, #12]
1091:Drivers/STM32F7xx_HAL_Driver/Src/stm32f7xx_ll_sdmmc.c ****   sdmmc_cmdinit.CPSM             = SDMMC_CPSM_ENABLE;
 2584              		.loc 1 1091 0
 2585 0010 0023     		movs	r3, #0
 2586 0012 0493     		str	r3, [sp, #16]
1092:Drivers/STM32F7xx_HAL_Driver/Src/stm32f7xx_ll_sdmmc.c ****   (void)SDMMC_SendCommand(SDMMCx, &sdmmc_cmdinit);
 2587              		.loc 1 1092 0
 2588 0014 4FF48063 		mov	r3, #1024
 2589 0018 0593     		str	r3, [sp, #20]
ARM GAS  /tmp/ccxJPvV1.s 			page 78


1093:Drivers/STM32F7xx_HAL_Driver/Src/stm32f7xx_ll_sdmmc.c ****   
 2590              		.loc 1 1093 0
 2591 001a 01A9     		add	r1, sp, #4
 2592              	.LVL241:
 2593 001c FFF7FEFF 		bl	SDMMC_SendCommand
 2594              	.LVL242:
1096:Drivers/STM32F7xx_HAL_Driver/Src/stm32f7xx_ll_sdmmc.c **** 
 2595              		.loc 1 1096 0
 2596 0020 2046     		mov	r0, r4
 2597 0022 FFF7FEFF 		bl	SDMMC_GetCmdResp3
 2598              	.LVL243:
1099:Drivers/STM32F7xx_HAL_Driver/Src/stm32f7xx_ll_sdmmc.c **** 
 2599              		.loc 1 1099 0
 2600 0026 06B0     		add	sp, sp, #24
 2601              	.LCFI78:
 2602              		.cfi_def_cfa_offset 8
 2603              		@ sp needed
 2604 0028 10BD     		pop	{r4, pc}
 2605              		.cfi_endproc
 2606              	.LFE177:
 2608              		.section	.text.SDMMC_CmdSwitch,"ax",%progbits
 2609              		.align	1
 2610              		.global	SDMMC_CmdSwitch
 2611              		.syntax unified
 2612              		.thumb
 2613              		.thumb_func
 2614              		.fpu fpv5-sp-d16
 2616              	SDMMC_CmdSwitch:
 2617              	.LFB178:
1108:Drivers/STM32F7xx_HAL_Driver/Src/stm32f7xx_ll_sdmmc.c ****   SDMMC_CmdInitTypeDef  sdmmc_cmdinit;
 2618              		.loc 1 1108 0
 2619              		.cfi_startproc
 2620              		@ args = 0, pretend = 0, frame = 24
 2621              		@ frame_needed = 0, uses_anonymous_args = 0
 2622              	.LVL244:
 2623 0000 30B5     		push	{r4, r5, lr}
 2624              	.LCFI79:
 2625              		.cfi_def_cfa_offset 12
 2626              		.cfi_offset 4, -12
 2627              		.cfi_offset 5, -8
 2628              		.cfi_offset 14, -4
 2629 0002 87B0     		sub	sp, sp, #28
 2630              	.LCFI80:
 2631              		.cfi_def_cfa_offset 40
 2632 0004 0546     		mov	r5, r0
1114:Drivers/STM32F7xx_HAL_Driver/Src/stm32f7xx_ll_sdmmc.c ****   sdmmc_cmdinit.CmdIndex         = SDMMC_CMD_HS_SWITCH;
 2633              		.loc 1 1114 0
 2634 0006 0191     		str	r1, [sp, #4]
1115:Drivers/STM32F7xx_HAL_Driver/Src/stm32f7xx_ll_sdmmc.c ****   sdmmc_cmdinit.Response         = SDMMC_RESPONSE_SHORT;
 2635              		.loc 1 1115 0
 2636 0008 0624     		movs	r4, #6
 2637 000a 0294     		str	r4, [sp, #8]
1116:Drivers/STM32F7xx_HAL_Driver/Src/stm32f7xx_ll_sdmmc.c ****   sdmmc_cmdinit.WaitForInterrupt = SDMMC_WAIT_NO;
 2638              		.loc 1 1116 0
 2639 000c 4023     		movs	r3, #64
 2640 000e 0393     		str	r3, [sp, #12]
1117:Drivers/STM32F7xx_HAL_Driver/Src/stm32f7xx_ll_sdmmc.c ****   sdmmc_cmdinit.CPSM             = SDMMC_CPSM_ENABLE;
ARM GAS  /tmp/ccxJPvV1.s 			page 79


 2641              		.loc 1 1117 0
 2642 0010 0023     		movs	r3, #0
 2643 0012 0493     		str	r3, [sp, #16]
1118:Drivers/STM32F7xx_HAL_Driver/Src/stm32f7xx_ll_sdmmc.c ****   (void)SDMMC_SendCommand(SDMMCx, &sdmmc_cmdinit);
 2644              		.loc 1 1118 0
 2645 0014 4FF48063 		mov	r3, #1024
 2646 0018 0593     		str	r3, [sp, #20]
1119:Drivers/STM32F7xx_HAL_Driver/Src/stm32f7xx_ll_sdmmc.c ****   
 2647              		.loc 1 1119 0
 2648 001a 01A9     		add	r1, sp, #4
 2649              	.LVL245:
 2650 001c FFF7FEFF 		bl	SDMMC_SendCommand
 2651              	.LVL246:
1122:Drivers/STM32F7xx_HAL_Driver/Src/stm32f7xx_ll_sdmmc.c **** 
 2652              		.loc 1 1122 0
 2653 0020 41F28832 		movw	r2, #5000
 2654 0024 2146     		mov	r1, r4
 2655 0026 2846     		mov	r0, r5
 2656 0028 FFF7FEFF 		bl	SDMMC_GetCmdResp1
 2657              	.LVL247:
1125:Drivers/STM32F7xx_HAL_Driver/Src/stm32f7xx_ll_sdmmc.c **** 
 2658              		.loc 1 1125 0
 2659 002c 07B0     		add	sp, sp, #28
 2660              	.LCFI81:
 2661              		.cfi_def_cfa_offset 12
 2662              		@ sp needed
 2663 002e 30BD     		pop	{r4, r5, pc}
 2664              		.cfi_endproc
 2665              	.LFE178:
 2667              		.text
 2668              	.Letext0:
 2669              		.file 2 "/usr/include/newlib/machine/_default_types.h"
 2670              		.file 3 "/usr/include/newlib/sys/_stdint.h"
 2671              		.file 4 "Drivers/CMSIS/Include/core_cm7.h"
 2672              		.file 5 "Drivers/CMSIS/Device/ST/STM32F7xx/Include/system_stm32f7xx.h"
 2673              		.file 6 "Drivers/CMSIS/Device/ST/STM32F7xx/Include/stm32f746xx.h"
 2674              		.file 7 "Drivers/STM32F7xx_HAL_Driver/Inc/stm32f7xx_hal_def.h"
 2675              		.file 8 "Drivers/STM32F7xx_HAL_Driver/Inc/stm32f7xx_ll_sdmmc.h"
 2676              		.file 9 "Drivers/STM32F7xx_HAL_Driver/Inc/stm32f7xx_hal.h"
ARM GAS  /tmp/ccxJPvV1.s 			page 80


DEFINED SYMBOLS
                            *ABS*:0000000000000000 stm32f7xx_ll_sdmmc.c
     /tmp/ccxJPvV1.s:18     .text.SDMMC_GetCmdError:0000000000000000 $t
     /tmp/ccxJPvV1.s:24     .text.SDMMC_GetCmdError:0000000000000000 SDMMC_GetCmdError
     /tmp/ccxJPvV1.s:71     .text.SDMMC_GetCmdError:0000000000000030 $d
     /tmp/ccxJPvV1.s:77     .text.SDMMC_GetCmdResp2:0000000000000000 $t
     /tmp/ccxJPvV1.s:83     .text.SDMMC_GetCmdResp2:0000000000000000 SDMMC_GetCmdResp2
     /tmp/ccxJPvV1.s:158    .text.SDMMC_GetCmdResp2:0000000000000058 $d
     /tmp/ccxJPvV1.s:164    .text.SDMMC_GetCmdResp3:0000000000000000 $t
     /tmp/ccxJPvV1.s:170    .text.SDMMC_GetCmdResp3:0000000000000000 SDMMC_GetCmdResp3
     /tmp/ccxJPvV1.s:232    .text.SDMMC_GetCmdResp3:0000000000000048 $d
     /tmp/ccxJPvV1.s:238    .text.SDMMC_GetCmdResp7:0000000000000000 $t
     /tmp/ccxJPvV1.s:244    .text.SDMMC_GetCmdResp7:0000000000000000 SDMMC_GetCmdResp7
     /tmp/ccxJPvV1.s:329    .text.SDMMC_GetCmdResp7:0000000000000064 $d
     /tmp/ccxJPvV1.s:335    .text.SDMMC_Init:0000000000000000 $t
     /tmp/ccxJPvV1.s:342    .text.SDMMC_Init:0000000000000000 SDMMC_Init
     /tmp/ccxJPvV1.s:404    .text.SDMMC_Init:0000000000000034 $d
     /tmp/ccxJPvV1.s:409    .text.SDMMC_ReadFIFO:0000000000000000 $t
     /tmp/ccxJPvV1.s:416    .text.SDMMC_ReadFIFO:0000000000000000 SDMMC_ReadFIFO
     /tmp/ccxJPvV1.s:433    .text.SDMMC_WriteFIFO:0000000000000000 $t
     /tmp/ccxJPvV1.s:440    .text.SDMMC_WriteFIFO:0000000000000000 SDMMC_WriteFIFO
     /tmp/ccxJPvV1.s:459    .text.SDMMC_PowerState_ON:0000000000000000 $t
     /tmp/ccxJPvV1.s:466    .text.SDMMC_PowerState_ON:0000000000000000 SDMMC_PowerState_ON
     /tmp/ccxJPvV1.s:493    .text.SDMMC_PowerState_OFF:0000000000000000 $t
     /tmp/ccxJPvV1.s:500    .text.SDMMC_PowerState_OFF:0000000000000000 SDMMC_PowerState_OFF
     /tmp/ccxJPvV1.s:519    .text.SDMMC_GetPowerState:0000000000000000 $t
     /tmp/ccxJPvV1.s:526    .text.SDMMC_GetPowerState:0000000000000000 SDMMC_GetPowerState
     /tmp/ccxJPvV1.s:544    .text.SDMMC_SendCommand:0000000000000000 $t
     /tmp/ccxJPvV1.s:551    .text.SDMMC_SendCommand:0000000000000000 SDMMC_SendCommand
     /tmp/ccxJPvV1.s:593    .text.SDMMC_SendCommand:0000000000000020 $d
     /tmp/ccxJPvV1.s:598    .text.SDMMC_GetCommandResponse:0000000000000000 $t
     /tmp/ccxJPvV1.s:605    .text.SDMMC_GetCommandResponse:0000000000000000 SDMMC_GetCommandResponse
     /tmp/ccxJPvV1.s:623    .text.SDMMC_GetResponse:0000000000000000 $t
     /tmp/ccxJPvV1.s:630    .text.SDMMC_GetResponse:0000000000000000 SDMMC_GetResponse
     /tmp/ccxJPvV1.s:650    .text.SDMMC_GetCmdResp1:0000000000000000 $t
     /tmp/ccxJPvV1.s:656    .text.SDMMC_GetCmdResp1:0000000000000000 SDMMC_GetCmdResp1
     /tmp/ccxJPvV1.s:928    .text.SDMMC_GetCmdResp1:000000000000014c $d
     /tmp/ccxJPvV1.s:935    .text.SDMMC_GetCmdResp6:0000000000000000 $t
     /tmp/ccxJPvV1.s:941    .text.SDMMC_GetCmdResp6:0000000000000000 SDMMC_GetCmdResp6
     /tmp/ccxJPvV1.s:1072   .text.SDMMC_GetCmdResp6:000000000000009c $d
     /tmp/ccxJPvV1.s:1078   .text.SDMMC_ConfigData:0000000000000000 $t
     /tmp/ccxJPvV1.s:1085   .text.SDMMC_ConfigData:0000000000000000 SDMMC_ConfigData
     /tmp/ccxJPvV1.s:1129   .text.SDMMC_GetDataCounter:0000000000000000 $t
     /tmp/ccxJPvV1.s:1136   .text.SDMMC_GetDataCounter:0000000000000000 SDMMC_GetDataCounter
     /tmp/ccxJPvV1.s:1153   .text.SDMMC_GetFIFOCount:0000000000000000 $t
     /tmp/ccxJPvV1.s:1160   .text.SDMMC_GetFIFOCount:0000000000000000 SDMMC_GetFIFOCount
     /tmp/ccxJPvV1.s:1177   .text.SDMMC_SetSDMMCReadWaitMode:0000000000000000 $t
     /tmp/ccxJPvV1.s:1184   .text.SDMMC_SetSDMMCReadWaitMode:0000000000000000 SDMMC_SetSDMMCReadWaitMode
     /tmp/ccxJPvV1.s:1206   .text.SDMMC_CmdBlockLength:0000000000000000 $t
     /tmp/ccxJPvV1.s:1213   .text.SDMMC_CmdBlockLength:0000000000000000 SDMMC_CmdBlockLength
     /tmp/ccxJPvV1.s:1265   .text.SDMMC_CmdReadSingleBlock:0000000000000000 $t
     /tmp/ccxJPvV1.s:1272   .text.SDMMC_CmdReadSingleBlock:0000000000000000 SDMMC_CmdReadSingleBlock
     /tmp/ccxJPvV1.s:1324   .text.SDMMC_CmdReadMultiBlock:0000000000000000 $t
     /tmp/ccxJPvV1.s:1331   .text.SDMMC_CmdReadMultiBlock:0000000000000000 SDMMC_CmdReadMultiBlock
     /tmp/ccxJPvV1.s:1383   .text.SDMMC_CmdWriteSingleBlock:0000000000000000 $t
     /tmp/ccxJPvV1.s:1390   .text.SDMMC_CmdWriteSingleBlock:0000000000000000 SDMMC_CmdWriteSingleBlock
     /tmp/ccxJPvV1.s:1442   .text.SDMMC_CmdWriteMultiBlock:0000000000000000 $t
ARM GAS  /tmp/ccxJPvV1.s 			page 81


     /tmp/ccxJPvV1.s:1449   .text.SDMMC_CmdWriteMultiBlock:0000000000000000 SDMMC_CmdWriteMultiBlock
     /tmp/ccxJPvV1.s:1501   .text.SDMMC_CmdSDEraseStartAdd:0000000000000000 $t
     /tmp/ccxJPvV1.s:1508   .text.SDMMC_CmdSDEraseStartAdd:0000000000000000 SDMMC_CmdSDEraseStartAdd
     /tmp/ccxJPvV1.s:1560   .text.SDMMC_CmdSDEraseEndAdd:0000000000000000 $t
     /tmp/ccxJPvV1.s:1567   .text.SDMMC_CmdSDEraseEndAdd:0000000000000000 SDMMC_CmdSDEraseEndAdd
     /tmp/ccxJPvV1.s:1619   .text.SDMMC_CmdEraseStartAdd:0000000000000000 $t
     /tmp/ccxJPvV1.s:1626   .text.SDMMC_CmdEraseStartAdd:0000000000000000 SDMMC_CmdEraseStartAdd
     /tmp/ccxJPvV1.s:1678   .text.SDMMC_CmdEraseEndAdd:0000000000000000 $t
     /tmp/ccxJPvV1.s:1685   .text.SDMMC_CmdEraseEndAdd:0000000000000000 SDMMC_CmdEraseEndAdd
     /tmp/ccxJPvV1.s:1737   .text.SDMMC_CmdErase:0000000000000000 $t
     /tmp/ccxJPvV1.s:1744   .text.SDMMC_CmdErase:0000000000000000 SDMMC_CmdErase
     /tmp/ccxJPvV1.s:1795   .text.SDMMC_CmdStopTransfer:0000000000000000 $t
     /tmp/ccxJPvV1.s:1802   .text.SDMMC_CmdStopTransfer:0000000000000000 SDMMC_CmdStopTransfer
     /tmp/ccxJPvV1.s:1853   .text.SDMMC_CmdStopTransfer:0000000000000030 $d
     /tmp/ccxJPvV1.s:1858   .text.SDMMC_CmdSelDesel:0000000000000000 $t
     /tmp/ccxJPvV1.s:1865   .text.SDMMC_CmdSelDesel:0000000000000000 SDMMC_CmdSelDesel
     /tmp/ccxJPvV1.s:1916   .text.SDMMC_CmdGoIdleState:0000000000000000 $t
     /tmp/ccxJPvV1.s:1923   .text.SDMMC_CmdGoIdleState:0000000000000000 SDMMC_CmdGoIdleState
     /tmp/ccxJPvV1.s:1969   .text.SDMMC_CmdOperCond:0000000000000000 $t
     /tmp/ccxJPvV1.s:1976   .text.SDMMC_CmdOperCond:0000000000000000 SDMMC_CmdOperCond
     /tmp/ccxJPvV1.s:2025   .text.SDMMC_CmdAppCommand:0000000000000000 $t
     /tmp/ccxJPvV1.s:2032   .text.SDMMC_CmdAppCommand:0000000000000000 SDMMC_CmdAppCommand
     /tmp/ccxJPvV1.s:2084   .text.SDMMC_CmdAppOperCommand:0000000000000000 $t
     /tmp/ccxJPvV1.s:2091   .text.SDMMC_CmdAppOperCommand:0000000000000000 SDMMC_CmdAppOperCommand
     /tmp/ccxJPvV1.s:2142   .text.SDMMC_CmdAppOperCommand:0000000000000030 $d
     /tmp/ccxJPvV1.s:2147   .text.SDMMC_CmdBusWidth:0000000000000000 $t
     /tmp/ccxJPvV1.s:2154   .text.SDMMC_CmdBusWidth:0000000000000000 SDMMC_CmdBusWidth
     /tmp/ccxJPvV1.s:2206   .text.SDMMC_CmdSendSCR:0000000000000000 $t
     /tmp/ccxJPvV1.s:2213   .text.SDMMC_CmdSendSCR:0000000000000000 SDMMC_CmdSendSCR
     /tmp/ccxJPvV1.s:2264   .text.SDMMC_CmdSendCID:0000000000000000 $t
     /tmp/ccxJPvV1.s:2271   .text.SDMMC_CmdSendCID:0000000000000000 SDMMC_CmdSendCID
     /tmp/ccxJPvV1.s:2319   .text.SDMMC_CmdSendCSD:0000000000000000 $t
     /tmp/ccxJPvV1.s:2326   .text.SDMMC_CmdSendCSD:0000000000000000 SDMMC_CmdSendCSD
     /tmp/ccxJPvV1.s:2375   .text.SDMMC_CmdSetRelAdd:0000000000000000 $t
     /tmp/ccxJPvV1.s:2382   .text.SDMMC_CmdSetRelAdd:0000000000000000 SDMMC_CmdSetRelAdd
     /tmp/ccxJPvV1.s:2436   .text.SDMMC_CmdSendStatus:0000000000000000 $t
     /tmp/ccxJPvV1.s:2443   .text.SDMMC_CmdSendStatus:0000000000000000 SDMMC_CmdSendStatus
     /tmp/ccxJPvV1.s:2495   .text.SDMMC_CmdStatusRegister:0000000000000000 $t
     /tmp/ccxJPvV1.s:2502   .text.SDMMC_CmdStatusRegister:0000000000000000 SDMMC_CmdStatusRegister
     /tmp/ccxJPvV1.s:2553   .text.SDMMC_CmdOpCondition:0000000000000000 $t
     /tmp/ccxJPvV1.s:2560   .text.SDMMC_CmdOpCondition:0000000000000000 SDMMC_CmdOpCondition
     /tmp/ccxJPvV1.s:2609   .text.SDMMC_CmdSwitch:0000000000000000 $t
     /tmp/ccxJPvV1.s:2616   .text.SDMMC_CmdSwitch:0000000000000000 SDMMC_CmdSwitch

UNDEFINED SYMBOLS
SystemCoreClock
HAL_Delay
