ARM GAS  /tmp/ccJDgDyU.s 			page 1


   1              		.cpu cortex-m7
   2              		.eabi_attribute 27, 1
   3              		.eabi_attribute 28, 1
   4              		.eabi_attribute 20, 1
   5              		.eabi_attribute 21, 1
   6              		.eabi_attribute 23, 3
   7              		.eabi_attribute 24, 1
   8              		.eabi_attribute 25, 1
   9              		.eabi_attribute 26, 1
  10              		.eabi_attribute 30, 1
  11              		.eabi_attribute 34, 1
  12              		.eabi_attribute 18, 4
  13              		.file	"stm32f7xx_hal_msp.c"
  14              		.text
  15              	.Ltext0:
  16              		.cfi_sections	.debug_frame
  17              		.section	.text.HAL_FMC_MspInit,"ax",%progbits
  18              		.align	1
  19              		.syntax unified
  20              		.thumb
  21              		.thumb_func
  22              		.fpu fpv5-sp-d16
  24              	HAL_FMC_MspInit:
  25              	.LFB173:
  26              		.file 1 "Core/Src/stm32f7xx_hal_msp.c"
   1:Core/Src/stm32f7xx_hal_msp.c **** /* USER CODE BEGIN Header */
   2:Core/Src/stm32f7xx_hal_msp.c **** /**
   3:Core/Src/stm32f7xx_hal_msp.c ****   ******************************************************************************
   4:Core/Src/stm32f7xx_hal_msp.c ****   * File Name          : stm32f7xx_hal_msp.c
   5:Core/Src/stm32f7xx_hal_msp.c ****   * Description        : This file provides code for the MSP Initialization 
   6:Core/Src/stm32f7xx_hal_msp.c ****   *                      and de-Initialization codes.
   7:Core/Src/stm32f7xx_hal_msp.c ****   ******************************************************************************
   8:Core/Src/stm32f7xx_hal_msp.c ****   * @attention
   9:Core/Src/stm32f7xx_hal_msp.c ****   *
  10:Core/Src/stm32f7xx_hal_msp.c ****   * <h2><center>&copy; Copyright (c) 2019 STMicroelectronics.
  11:Core/Src/stm32f7xx_hal_msp.c ****   * All rights reserved.</center></h2>
  12:Core/Src/stm32f7xx_hal_msp.c ****   *
  13:Core/Src/stm32f7xx_hal_msp.c ****   * This software component is licensed by ST under Ultimate Liberty license
  14:Core/Src/stm32f7xx_hal_msp.c ****   * SLA0044, the "License"; You may not use this file except in compliance with
  15:Core/Src/stm32f7xx_hal_msp.c ****   * the License. You may obtain a copy of the License at:
  16:Core/Src/stm32f7xx_hal_msp.c ****   *                             www.st.com/SLA0044
  17:Core/Src/stm32f7xx_hal_msp.c ****   *
  18:Core/Src/stm32f7xx_hal_msp.c ****   ******************************************************************************
  19:Core/Src/stm32f7xx_hal_msp.c ****   */
  20:Core/Src/stm32f7xx_hal_msp.c **** /* USER CODE END Header */
  21:Core/Src/stm32f7xx_hal_msp.c **** 
  22:Core/Src/stm32f7xx_hal_msp.c **** /* Includes ------------------------------------------------------------------*/
  23:Core/Src/stm32f7xx_hal_msp.c **** #include "main.h"
  24:Core/Src/stm32f7xx_hal_msp.c **** /* USER CODE BEGIN Includes */
  25:Core/Src/stm32f7xx_hal_msp.c **** 
  26:Core/Src/stm32f7xx_hal_msp.c **** /* USER CODE END Includes */
  27:Core/Src/stm32f7xx_hal_msp.c **** 
  28:Core/Src/stm32f7xx_hal_msp.c **** /* Private typedef -----------------------------------------------------------*/
  29:Core/Src/stm32f7xx_hal_msp.c **** /* USER CODE BEGIN TD */
  30:Core/Src/stm32f7xx_hal_msp.c **** 
  31:Core/Src/stm32f7xx_hal_msp.c **** /* USER CODE END TD */
  32:Core/Src/stm32f7xx_hal_msp.c **** 
ARM GAS  /tmp/ccJDgDyU.s 			page 2


  33:Core/Src/stm32f7xx_hal_msp.c **** /* Private define ------------------------------------------------------------*/
  34:Core/Src/stm32f7xx_hal_msp.c **** /* USER CODE BEGIN Define */
  35:Core/Src/stm32f7xx_hal_msp.c ****  
  36:Core/Src/stm32f7xx_hal_msp.c **** /* USER CODE END Define */
  37:Core/Src/stm32f7xx_hal_msp.c **** 
  38:Core/Src/stm32f7xx_hal_msp.c **** /* Private macro -------------------------------------------------------------*/
  39:Core/Src/stm32f7xx_hal_msp.c **** /* USER CODE BEGIN Macro */
  40:Core/Src/stm32f7xx_hal_msp.c **** 
  41:Core/Src/stm32f7xx_hal_msp.c **** /* USER CODE END Macro */
  42:Core/Src/stm32f7xx_hal_msp.c **** 
  43:Core/Src/stm32f7xx_hal_msp.c **** /* Private variables ---------------------------------------------------------*/
  44:Core/Src/stm32f7xx_hal_msp.c **** /* USER CODE BEGIN PV */
  45:Core/Src/stm32f7xx_hal_msp.c **** 
  46:Core/Src/stm32f7xx_hal_msp.c **** /* USER CODE END PV */
  47:Core/Src/stm32f7xx_hal_msp.c **** 
  48:Core/Src/stm32f7xx_hal_msp.c **** /* Private function prototypes -----------------------------------------------*/
  49:Core/Src/stm32f7xx_hal_msp.c **** /* USER CODE BEGIN PFP */
  50:Core/Src/stm32f7xx_hal_msp.c **** 
  51:Core/Src/stm32f7xx_hal_msp.c **** /* USER CODE END PFP */
  52:Core/Src/stm32f7xx_hal_msp.c **** 
  53:Core/Src/stm32f7xx_hal_msp.c **** /* External functions --------------------------------------------------------*/
  54:Core/Src/stm32f7xx_hal_msp.c **** /* USER CODE BEGIN ExternalFunctions */
  55:Core/Src/stm32f7xx_hal_msp.c **** 
  56:Core/Src/stm32f7xx_hal_msp.c **** /* USER CODE END ExternalFunctions */
  57:Core/Src/stm32f7xx_hal_msp.c **** 
  58:Core/Src/stm32f7xx_hal_msp.c **** /* USER CODE BEGIN 0 */
  59:Core/Src/stm32f7xx_hal_msp.c **** 
  60:Core/Src/stm32f7xx_hal_msp.c **** /* USER CODE END 0 */
  61:Core/Src/stm32f7xx_hal_msp.c ****                         
  62:Core/Src/stm32f7xx_hal_msp.c **** void HAL_TIM_MspPostInit(TIM_HandleTypeDef *htim);
  63:Core/Src/stm32f7xx_hal_msp.c ****                                                                                                    
  64:Core/Src/stm32f7xx_hal_msp.c ****   * Initializes the Global MSP.
  65:Core/Src/stm32f7xx_hal_msp.c ****   */
  66:Core/Src/stm32f7xx_hal_msp.c **** void HAL_MspInit(void)
  67:Core/Src/stm32f7xx_hal_msp.c **** {
  68:Core/Src/stm32f7xx_hal_msp.c ****   /* USER CODE BEGIN MspInit 0 */
  69:Core/Src/stm32f7xx_hal_msp.c **** 
  70:Core/Src/stm32f7xx_hal_msp.c ****   /* USER CODE END MspInit 0 */
  71:Core/Src/stm32f7xx_hal_msp.c **** 
  72:Core/Src/stm32f7xx_hal_msp.c ****   __HAL_RCC_PWR_CLK_ENABLE();
  73:Core/Src/stm32f7xx_hal_msp.c ****   __HAL_RCC_SYSCFG_CLK_ENABLE();
  74:Core/Src/stm32f7xx_hal_msp.c **** 
  75:Core/Src/stm32f7xx_hal_msp.c ****   /* System interrupt init*/
  76:Core/Src/stm32f7xx_hal_msp.c ****   /* PendSV_IRQn interrupt configuration */
  77:Core/Src/stm32f7xx_hal_msp.c ****   HAL_NVIC_SetPriority(PendSV_IRQn, 15, 0);
  78:Core/Src/stm32f7xx_hal_msp.c **** 
  79:Core/Src/stm32f7xx_hal_msp.c ****   /* USER CODE BEGIN MspInit 1 */
  80:Core/Src/stm32f7xx_hal_msp.c **** 
  81:Core/Src/stm32f7xx_hal_msp.c ****   /* USER CODE END MspInit 1 */
  82:Core/Src/stm32f7xx_hal_msp.c **** }
  83:Core/Src/stm32f7xx_hal_msp.c **** 
  84:Core/Src/stm32f7xx_hal_msp.c **** /**
  85:Core/Src/stm32f7xx_hal_msp.c **** * @brief ADC MSP Initialization
  86:Core/Src/stm32f7xx_hal_msp.c **** * This function configures the hardware resources used in this example
  87:Core/Src/stm32f7xx_hal_msp.c **** * @param hadc: ADC handle pointer
  88:Core/Src/stm32f7xx_hal_msp.c **** * @retval None
  89:Core/Src/stm32f7xx_hal_msp.c **** */
ARM GAS  /tmp/ccJDgDyU.s 			page 3


  90:Core/Src/stm32f7xx_hal_msp.c **** void HAL_ADC_MspInit(ADC_HandleTypeDef* hadc)
  91:Core/Src/stm32f7xx_hal_msp.c **** {
  92:Core/Src/stm32f7xx_hal_msp.c ****   GPIO_InitTypeDef GPIO_InitStruct = {0};
  93:Core/Src/stm32f7xx_hal_msp.c ****   if(hadc->Instance==ADC3)
  94:Core/Src/stm32f7xx_hal_msp.c ****   {
  95:Core/Src/stm32f7xx_hal_msp.c ****   /* USER CODE BEGIN ADC3_MspInit 0 */
  96:Core/Src/stm32f7xx_hal_msp.c **** 
  97:Core/Src/stm32f7xx_hal_msp.c ****   /* USER CODE END ADC3_MspInit 0 */
  98:Core/Src/stm32f7xx_hal_msp.c ****     /* Peripheral clock enable */
  99:Core/Src/stm32f7xx_hal_msp.c ****     __HAL_RCC_ADC3_CLK_ENABLE();
 100:Core/Src/stm32f7xx_hal_msp.c ****   
 101:Core/Src/stm32f7xx_hal_msp.c ****     __HAL_RCC_GPIOF_CLK_ENABLE();
 102:Core/Src/stm32f7xx_hal_msp.c ****     __HAL_RCC_GPIOA_CLK_ENABLE();
 103:Core/Src/stm32f7xx_hal_msp.c ****     /**ADC3 GPIO Configuration    
 104:Core/Src/stm32f7xx_hal_msp.c ****     PF7     ------> ADC3_IN5
 105:Core/Src/stm32f7xx_hal_msp.c ****     PF6     ------> ADC3_IN4
 106:Core/Src/stm32f7xx_hal_msp.c ****     PF10     ------> ADC3_IN8
 107:Core/Src/stm32f7xx_hal_msp.c ****     PF9     ------> ADC3_IN7
 108:Core/Src/stm32f7xx_hal_msp.c ****     PF8     ------> ADC3_IN6
 109:Core/Src/stm32f7xx_hal_msp.c ****     PA0/WKUP     ------> ADC3_IN0 
 110:Core/Src/stm32f7xx_hal_msp.c ****     */
 111:Core/Src/stm32f7xx_hal_msp.c ****     GPIO_InitStruct.Pin = ARDUINO_A4_Pin|ARDUINO_A5_Pin|ARDUINO_A1_Pin|ARDUINO_A2_Pin 
 112:Core/Src/stm32f7xx_hal_msp.c ****                           |ARDUINO_A3_Pin;
 113:Core/Src/stm32f7xx_hal_msp.c ****     GPIO_InitStruct.Mode = GPIO_MODE_ANALOG;
 114:Core/Src/stm32f7xx_hal_msp.c ****     GPIO_InitStruct.Pull = GPIO_NOPULL;
 115:Core/Src/stm32f7xx_hal_msp.c ****     HAL_GPIO_Init(GPIOF, &GPIO_InitStruct);
 116:Core/Src/stm32f7xx_hal_msp.c **** 
 117:Core/Src/stm32f7xx_hal_msp.c ****     GPIO_InitStruct.Pin = ARDUINO_A0_Pin;
 118:Core/Src/stm32f7xx_hal_msp.c ****     GPIO_InitStruct.Mode = GPIO_MODE_ANALOG;
 119:Core/Src/stm32f7xx_hal_msp.c ****     GPIO_InitStruct.Pull = GPIO_NOPULL;
 120:Core/Src/stm32f7xx_hal_msp.c ****     HAL_GPIO_Init(ARDUINO_A0_GPIO_Port, &GPIO_InitStruct);
 121:Core/Src/stm32f7xx_hal_msp.c **** 
 122:Core/Src/stm32f7xx_hal_msp.c ****   /* USER CODE BEGIN ADC3_MspInit 1 */
 123:Core/Src/stm32f7xx_hal_msp.c **** 
 124:Core/Src/stm32f7xx_hal_msp.c ****   /* USER CODE END ADC3_MspInit 1 */
 125:Core/Src/stm32f7xx_hal_msp.c ****   }
 126:Core/Src/stm32f7xx_hal_msp.c **** 
 127:Core/Src/stm32f7xx_hal_msp.c **** }
 128:Core/Src/stm32f7xx_hal_msp.c **** 
 129:Core/Src/stm32f7xx_hal_msp.c **** /**
 130:Core/Src/stm32f7xx_hal_msp.c **** * @brief ADC MSP De-Initialization
 131:Core/Src/stm32f7xx_hal_msp.c **** * This function freeze the hardware resources used in this example
 132:Core/Src/stm32f7xx_hal_msp.c **** * @param hadc: ADC handle pointer
 133:Core/Src/stm32f7xx_hal_msp.c **** * @retval None
 134:Core/Src/stm32f7xx_hal_msp.c **** */
 135:Core/Src/stm32f7xx_hal_msp.c **** void HAL_ADC_MspDeInit(ADC_HandleTypeDef* hadc)
 136:Core/Src/stm32f7xx_hal_msp.c **** {
 137:Core/Src/stm32f7xx_hal_msp.c ****   if(hadc->Instance==ADC3)
 138:Core/Src/stm32f7xx_hal_msp.c ****   {
 139:Core/Src/stm32f7xx_hal_msp.c ****   /* USER CODE BEGIN ADC3_MspDeInit 0 */
 140:Core/Src/stm32f7xx_hal_msp.c **** 
 141:Core/Src/stm32f7xx_hal_msp.c ****   /* USER CODE END ADC3_MspDeInit 0 */
 142:Core/Src/stm32f7xx_hal_msp.c ****     /* Peripheral clock disable */
 143:Core/Src/stm32f7xx_hal_msp.c ****     __HAL_RCC_ADC3_CLK_DISABLE();
 144:Core/Src/stm32f7xx_hal_msp.c ****   
 145:Core/Src/stm32f7xx_hal_msp.c ****     /**ADC3 GPIO Configuration    
 146:Core/Src/stm32f7xx_hal_msp.c ****     PF7     ------> ADC3_IN5
ARM GAS  /tmp/ccJDgDyU.s 			page 4


 147:Core/Src/stm32f7xx_hal_msp.c ****     PF6     ------> ADC3_IN4
 148:Core/Src/stm32f7xx_hal_msp.c ****     PF10     ------> ADC3_IN8
 149:Core/Src/stm32f7xx_hal_msp.c ****     PF9     ------> ADC3_IN7
 150:Core/Src/stm32f7xx_hal_msp.c ****     PF8     ------> ADC3_IN6
 151:Core/Src/stm32f7xx_hal_msp.c ****     PA0/WKUP     ------> ADC3_IN0 
 152:Core/Src/stm32f7xx_hal_msp.c ****     */
 153:Core/Src/stm32f7xx_hal_msp.c ****     HAL_GPIO_DeInit(GPIOF, ARDUINO_A4_Pin|ARDUINO_A5_Pin|ARDUINO_A1_Pin|ARDUINO_A2_Pin 
 154:Core/Src/stm32f7xx_hal_msp.c ****                           |ARDUINO_A3_Pin);
 155:Core/Src/stm32f7xx_hal_msp.c **** 
 156:Core/Src/stm32f7xx_hal_msp.c ****     HAL_GPIO_DeInit(ARDUINO_A0_GPIO_Port, ARDUINO_A0_Pin);
 157:Core/Src/stm32f7xx_hal_msp.c **** 
 158:Core/Src/stm32f7xx_hal_msp.c ****   /* USER CODE BEGIN ADC3_MspDeInit 1 */
 159:Core/Src/stm32f7xx_hal_msp.c **** 
 160:Core/Src/stm32f7xx_hal_msp.c ****   /* USER CODE END ADC3_MspDeInit 1 */
 161:Core/Src/stm32f7xx_hal_msp.c ****   }
 162:Core/Src/stm32f7xx_hal_msp.c **** 
 163:Core/Src/stm32f7xx_hal_msp.c **** }
 164:Core/Src/stm32f7xx_hal_msp.c **** 
 165:Core/Src/stm32f7xx_hal_msp.c **** /**
 166:Core/Src/stm32f7xx_hal_msp.c **** * @brief CRC MSP Initialization
 167:Core/Src/stm32f7xx_hal_msp.c **** * This function configures the hardware resources used in this example
 168:Core/Src/stm32f7xx_hal_msp.c **** * @param hcrc: CRC handle pointer
 169:Core/Src/stm32f7xx_hal_msp.c **** * @retval None
 170:Core/Src/stm32f7xx_hal_msp.c **** */
 171:Core/Src/stm32f7xx_hal_msp.c **** void HAL_CRC_MspInit(CRC_HandleTypeDef* hcrc)
 172:Core/Src/stm32f7xx_hal_msp.c **** {
 173:Core/Src/stm32f7xx_hal_msp.c ****   if(hcrc->Instance==CRC)
 174:Core/Src/stm32f7xx_hal_msp.c ****   {
 175:Core/Src/stm32f7xx_hal_msp.c ****   /* USER CODE BEGIN CRC_MspInit 0 */
 176:Core/Src/stm32f7xx_hal_msp.c **** 
 177:Core/Src/stm32f7xx_hal_msp.c ****   /* USER CODE END CRC_MspInit 0 */
 178:Core/Src/stm32f7xx_hal_msp.c ****     /* Peripheral clock enable */
 179:Core/Src/stm32f7xx_hal_msp.c ****     __HAL_RCC_CRC_CLK_ENABLE();
 180:Core/Src/stm32f7xx_hal_msp.c ****   /* USER CODE BEGIN CRC_MspInit 1 */
 181:Core/Src/stm32f7xx_hal_msp.c **** 
 182:Core/Src/stm32f7xx_hal_msp.c ****   /* USER CODE END CRC_MspInit 1 */
 183:Core/Src/stm32f7xx_hal_msp.c ****   }
 184:Core/Src/stm32f7xx_hal_msp.c **** 
 185:Core/Src/stm32f7xx_hal_msp.c **** }
 186:Core/Src/stm32f7xx_hal_msp.c **** 
 187:Core/Src/stm32f7xx_hal_msp.c **** /**
 188:Core/Src/stm32f7xx_hal_msp.c **** * @brief CRC MSP De-Initialization
 189:Core/Src/stm32f7xx_hal_msp.c **** * This function freeze the hardware resources used in this example
 190:Core/Src/stm32f7xx_hal_msp.c **** * @param hcrc: CRC handle pointer
 191:Core/Src/stm32f7xx_hal_msp.c **** * @retval None
 192:Core/Src/stm32f7xx_hal_msp.c **** */
 193:Core/Src/stm32f7xx_hal_msp.c **** void HAL_CRC_MspDeInit(CRC_HandleTypeDef* hcrc)
 194:Core/Src/stm32f7xx_hal_msp.c **** {
 195:Core/Src/stm32f7xx_hal_msp.c ****   if(hcrc->Instance==CRC)
 196:Core/Src/stm32f7xx_hal_msp.c ****   {
 197:Core/Src/stm32f7xx_hal_msp.c ****   /* USER CODE BEGIN CRC_MspDeInit 0 */
 198:Core/Src/stm32f7xx_hal_msp.c **** 
 199:Core/Src/stm32f7xx_hal_msp.c ****   /* USER CODE END CRC_MspDeInit 0 */
 200:Core/Src/stm32f7xx_hal_msp.c ****     /* Peripheral clock disable */
 201:Core/Src/stm32f7xx_hal_msp.c ****     __HAL_RCC_CRC_CLK_DISABLE();
 202:Core/Src/stm32f7xx_hal_msp.c ****   /* USER CODE BEGIN CRC_MspDeInit 1 */
 203:Core/Src/stm32f7xx_hal_msp.c **** 
ARM GAS  /tmp/ccJDgDyU.s 			page 5


 204:Core/Src/stm32f7xx_hal_msp.c ****   /* USER CODE END CRC_MspDeInit 1 */
 205:Core/Src/stm32f7xx_hal_msp.c ****   }
 206:Core/Src/stm32f7xx_hal_msp.c **** 
 207:Core/Src/stm32f7xx_hal_msp.c **** }
 208:Core/Src/stm32f7xx_hal_msp.c **** 
 209:Core/Src/stm32f7xx_hal_msp.c **** /**
 210:Core/Src/stm32f7xx_hal_msp.c **** * @brief DCMI MSP Initialization
 211:Core/Src/stm32f7xx_hal_msp.c **** * This function configures the hardware resources used in this example
 212:Core/Src/stm32f7xx_hal_msp.c **** * @param hdcmi: DCMI handle pointer
 213:Core/Src/stm32f7xx_hal_msp.c **** * @retval None
 214:Core/Src/stm32f7xx_hal_msp.c **** */
 215:Core/Src/stm32f7xx_hal_msp.c **** void HAL_DCMI_MspInit(DCMI_HandleTypeDef* hdcmi)
 216:Core/Src/stm32f7xx_hal_msp.c **** {
 217:Core/Src/stm32f7xx_hal_msp.c ****   GPIO_InitTypeDef GPIO_InitStruct = {0};
 218:Core/Src/stm32f7xx_hal_msp.c ****   if(hdcmi->Instance==DCMI)
 219:Core/Src/stm32f7xx_hal_msp.c ****   {
 220:Core/Src/stm32f7xx_hal_msp.c ****   /* USER CODE BEGIN DCMI_MspInit 0 */
 221:Core/Src/stm32f7xx_hal_msp.c **** 
 222:Core/Src/stm32f7xx_hal_msp.c ****   /* USER CODE END DCMI_MspInit 0 */
 223:Core/Src/stm32f7xx_hal_msp.c ****     /* Peripheral clock enable */
 224:Core/Src/stm32f7xx_hal_msp.c ****     __HAL_RCC_DCMI_CLK_ENABLE();
 225:Core/Src/stm32f7xx_hal_msp.c ****   
 226:Core/Src/stm32f7xx_hal_msp.c ****     __HAL_RCC_GPIOE_CLK_ENABLE();
 227:Core/Src/stm32f7xx_hal_msp.c ****     __HAL_RCC_GPIOD_CLK_ENABLE();
 228:Core/Src/stm32f7xx_hal_msp.c ****     __HAL_RCC_GPIOG_CLK_ENABLE();
 229:Core/Src/stm32f7xx_hal_msp.c ****     __HAL_RCC_GPIOH_CLK_ENABLE();
 230:Core/Src/stm32f7xx_hal_msp.c ****     __HAL_RCC_GPIOA_CLK_ENABLE();
 231:Core/Src/stm32f7xx_hal_msp.c ****     /**DCMI GPIO Configuration    
 232:Core/Src/stm32f7xx_hal_msp.c ****     PE5     ------> DCMI_D6
 233:Core/Src/stm32f7xx_hal_msp.c ****     PE6     ------> DCMI_D7
 234:Core/Src/stm32f7xx_hal_msp.c ****     PD3     ------> DCMI_D5
 235:Core/Src/stm32f7xx_hal_msp.c ****     PG9     ------> DCMI_VSYNC
 236:Core/Src/stm32f7xx_hal_msp.c ****     PH14     ------> DCMI_D4
 237:Core/Src/stm32f7xx_hal_msp.c ****     PH12     ------> DCMI_D3
 238:Core/Src/stm32f7xx_hal_msp.c ****     PA4     ------> DCMI_HSYNC
 239:Core/Src/stm32f7xx_hal_msp.c ****     PH9     ------> DCMI_D0
 240:Core/Src/stm32f7xx_hal_msp.c ****     PH11     ------> DCMI_D2
 241:Core/Src/stm32f7xx_hal_msp.c ****     PA6     ------> DCMI_PIXCLK
 242:Core/Src/stm32f7xx_hal_msp.c ****     PH10     ------> DCMI_D1 
 243:Core/Src/stm32f7xx_hal_msp.c ****     */
 244:Core/Src/stm32f7xx_hal_msp.c ****     GPIO_InitStruct.Pin = DCMI_D6_Pin|DCMI_D7_Pin;
 245:Core/Src/stm32f7xx_hal_msp.c ****     GPIO_InitStruct.Mode = GPIO_MODE_AF_PP;
 246:Core/Src/stm32f7xx_hal_msp.c ****     GPIO_InitStruct.Pull = GPIO_NOPULL;
 247:Core/Src/stm32f7xx_hal_msp.c ****     GPIO_InitStruct.Speed = GPIO_SPEED_FREQ_LOW;
 248:Core/Src/stm32f7xx_hal_msp.c ****     GPIO_InitStruct.Alternate = GPIO_AF13_DCMI;
 249:Core/Src/stm32f7xx_hal_msp.c ****     HAL_GPIO_Init(GPIOE, &GPIO_InitStruct);
 250:Core/Src/stm32f7xx_hal_msp.c **** 
 251:Core/Src/stm32f7xx_hal_msp.c ****     GPIO_InitStruct.Pin = DCMI_D5_Pin;
 252:Core/Src/stm32f7xx_hal_msp.c ****     GPIO_InitStruct.Mode = GPIO_MODE_AF_PP;
 253:Core/Src/stm32f7xx_hal_msp.c ****     GPIO_InitStruct.Pull = GPIO_NOPULL;
 254:Core/Src/stm32f7xx_hal_msp.c ****     GPIO_InitStruct.Speed = GPIO_SPEED_FREQ_LOW;
 255:Core/Src/stm32f7xx_hal_msp.c ****     GPIO_InitStruct.Alternate = GPIO_AF13_DCMI;
 256:Core/Src/stm32f7xx_hal_msp.c ****     HAL_GPIO_Init(DCMI_D5_GPIO_Port, &GPIO_InitStruct);
 257:Core/Src/stm32f7xx_hal_msp.c **** 
 258:Core/Src/stm32f7xx_hal_msp.c ****     GPIO_InitStruct.Pin = DCMI_VSYNC_Pin;
 259:Core/Src/stm32f7xx_hal_msp.c ****     GPIO_InitStruct.Mode = GPIO_MODE_AF_PP;
 260:Core/Src/stm32f7xx_hal_msp.c ****     GPIO_InitStruct.Pull = GPIO_NOPULL;
ARM GAS  /tmp/ccJDgDyU.s 			page 6


 261:Core/Src/stm32f7xx_hal_msp.c ****     GPIO_InitStruct.Speed = GPIO_SPEED_FREQ_LOW;
 262:Core/Src/stm32f7xx_hal_msp.c ****     GPIO_InitStruct.Alternate = GPIO_AF13_DCMI;
 263:Core/Src/stm32f7xx_hal_msp.c ****     HAL_GPIO_Init(DCMI_VSYNC_GPIO_Port, &GPIO_InitStruct);
 264:Core/Src/stm32f7xx_hal_msp.c **** 
 265:Core/Src/stm32f7xx_hal_msp.c ****     GPIO_InitStruct.Pin = DCMI_D4_Pin|DCMI_D3_Pin|DCMI_D0_Pin|DCMI_D2_Pin 
 266:Core/Src/stm32f7xx_hal_msp.c ****                           |DCMI_D1_Pin;
 267:Core/Src/stm32f7xx_hal_msp.c ****     GPIO_InitStruct.Mode = GPIO_MODE_AF_PP;
 268:Core/Src/stm32f7xx_hal_msp.c ****     GPIO_InitStruct.Pull = GPIO_NOPULL;
 269:Core/Src/stm32f7xx_hal_msp.c ****     GPIO_InitStruct.Speed = GPIO_SPEED_FREQ_LOW;
 270:Core/Src/stm32f7xx_hal_msp.c ****     GPIO_InitStruct.Alternate = GPIO_AF13_DCMI;
 271:Core/Src/stm32f7xx_hal_msp.c ****     HAL_GPIO_Init(GPIOH, &GPIO_InitStruct);
 272:Core/Src/stm32f7xx_hal_msp.c **** 
 273:Core/Src/stm32f7xx_hal_msp.c ****     GPIO_InitStruct.Pin = DCMI_HSYNC_Pin|GPIO_PIN_6;
 274:Core/Src/stm32f7xx_hal_msp.c ****     GPIO_InitStruct.Mode = GPIO_MODE_AF_PP;
 275:Core/Src/stm32f7xx_hal_msp.c ****     GPIO_InitStruct.Pull = GPIO_NOPULL;
 276:Core/Src/stm32f7xx_hal_msp.c ****     GPIO_InitStruct.Speed = GPIO_SPEED_FREQ_LOW;
 277:Core/Src/stm32f7xx_hal_msp.c ****     GPIO_InitStruct.Alternate = GPIO_AF13_DCMI;
 278:Core/Src/stm32f7xx_hal_msp.c ****     HAL_GPIO_Init(GPIOA, &GPIO_InitStruct);
 279:Core/Src/stm32f7xx_hal_msp.c **** 
 280:Core/Src/stm32f7xx_hal_msp.c ****   /* USER CODE BEGIN DCMI_MspInit 1 */
 281:Core/Src/stm32f7xx_hal_msp.c **** 
 282:Core/Src/stm32f7xx_hal_msp.c ****   /* USER CODE END DCMI_MspInit 1 */
 283:Core/Src/stm32f7xx_hal_msp.c ****   }
 284:Core/Src/stm32f7xx_hal_msp.c **** 
 285:Core/Src/stm32f7xx_hal_msp.c **** }
 286:Core/Src/stm32f7xx_hal_msp.c **** 
 287:Core/Src/stm32f7xx_hal_msp.c **** /**
 288:Core/Src/stm32f7xx_hal_msp.c **** * @brief DCMI MSP De-Initialization
 289:Core/Src/stm32f7xx_hal_msp.c **** * This function freeze the hardware resources used in this example
 290:Core/Src/stm32f7xx_hal_msp.c **** * @param hdcmi: DCMI handle pointer
 291:Core/Src/stm32f7xx_hal_msp.c **** * @retval None
 292:Core/Src/stm32f7xx_hal_msp.c **** */
 293:Core/Src/stm32f7xx_hal_msp.c **** void HAL_DCMI_MspDeInit(DCMI_HandleTypeDef* hdcmi)
 294:Core/Src/stm32f7xx_hal_msp.c **** {
 295:Core/Src/stm32f7xx_hal_msp.c ****   if(hdcmi->Instance==DCMI)
 296:Core/Src/stm32f7xx_hal_msp.c ****   {
 297:Core/Src/stm32f7xx_hal_msp.c ****   /* USER CODE BEGIN DCMI_MspDeInit 0 */
 298:Core/Src/stm32f7xx_hal_msp.c **** 
 299:Core/Src/stm32f7xx_hal_msp.c ****   /* USER CODE END DCMI_MspDeInit 0 */
 300:Core/Src/stm32f7xx_hal_msp.c ****     /* Peripheral clock disable */
 301:Core/Src/stm32f7xx_hal_msp.c ****     __HAL_RCC_DCMI_CLK_DISABLE();
 302:Core/Src/stm32f7xx_hal_msp.c ****   
 303:Core/Src/stm32f7xx_hal_msp.c ****     /**DCMI GPIO Configuration    
 304:Core/Src/stm32f7xx_hal_msp.c ****     PE5     ------> DCMI_D6
 305:Core/Src/stm32f7xx_hal_msp.c ****     PE6     ------> DCMI_D7
 306:Core/Src/stm32f7xx_hal_msp.c ****     PD3     ------> DCMI_D5
 307:Core/Src/stm32f7xx_hal_msp.c ****     PG9     ------> DCMI_VSYNC
 308:Core/Src/stm32f7xx_hal_msp.c ****     PH14     ------> DCMI_D4
 309:Core/Src/stm32f7xx_hal_msp.c ****     PH12     ------> DCMI_D3
 310:Core/Src/stm32f7xx_hal_msp.c ****     PA4     ------> DCMI_HSYNC
 311:Core/Src/stm32f7xx_hal_msp.c ****     PH9     ------> DCMI_D0
 312:Core/Src/stm32f7xx_hal_msp.c ****     PH11     ------> DCMI_D2
 313:Core/Src/stm32f7xx_hal_msp.c ****     PA6     ------> DCMI_PIXCLK
 314:Core/Src/stm32f7xx_hal_msp.c ****     PH10     ------> DCMI_D1 
 315:Core/Src/stm32f7xx_hal_msp.c ****     */
 316:Core/Src/stm32f7xx_hal_msp.c ****     HAL_GPIO_DeInit(GPIOE, DCMI_D6_Pin|DCMI_D7_Pin);
 317:Core/Src/stm32f7xx_hal_msp.c **** 
ARM GAS  /tmp/ccJDgDyU.s 			page 7


 318:Core/Src/stm32f7xx_hal_msp.c ****     HAL_GPIO_DeInit(DCMI_D5_GPIO_Port, DCMI_D5_Pin);
 319:Core/Src/stm32f7xx_hal_msp.c **** 
 320:Core/Src/stm32f7xx_hal_msp.c ****     HAL_GPIO_DeInit(DCMI_VSYNC_GPIO_Port, DCMI_VSYNC_Pin);
 321:Core/Src/stm32f7xx_hal_msp.c **** 
 322:Core/Src/stm32f7xx_hal_msp.c ****     HAL_GPIO_DeInit(GPIOH, DCMI_D4_Pin|DCMI_D3_Pin|DCMI_D0_Pin|DCMI_D2_Pin 
 323:Core/Src/stm32f7xx_hal_msp.c ****                           |DCMI_D1_Pin);
 324:Core/Src/stm32f7xx_hal_msp.c **** 
 325:Core/Src/stm32f7xx_hal_msp.c ****     HAL_GPIO_DeInit(GPIOA, DCMI_HSYNC_Pin|GPIO_PIN_6);
 326:Core/Src/stm32f7xx_hal_msp.c **** 
 327:Core/Src/stm32f7xx_hal_msp.c ****   /* USER CODE BEGIN DCMI_MspDeInit 1 */
 328:Core/Src/stm32f7xx_hal_msp.c **** 
 329:Core/Src/stm32f7xx_hal_msp.c ****   /* USER CODE END DCMI_MspDeInit 1 */
 330:Core/Src/stm32f7xx_hal_msp.c ****   }
 331:Core/Src/stm32f7xx_hal_msp.c **** 
 332:Core/Src/stm32f7xx_hal_msp.c **** }
 333:Core/Src/stm32f7xx_hal_msp.c **** 
 334:Core/Src/stm32f7xx_hal_msp.c **** /**
 335:Core/Src/stm32f7xx_hal_msp.c **** * @brief DMA2D MSP Initialization
 336:Core/Src/stm32f7xx_hal_msp.c **** * This function configures the hardware resources used in this example
 337:Core/Src/stm32f7xx_hal_msp.c **** * @param hdma2d: DMA2D handle pointer
 338:Core/Src/stm32f7xx_hal_msp.c **** * @retval None
 339:Core/Src/stm32f7xx_hal_msp.c **** */
 340:Core/Src/stm32f7xx_hal_msp.c **** void HAL_DMA2D_MspInit(DMA2D_HandleTypeDef* hdma2d)
 341:Core/Src/stm32f7xx_hal_msp.c **** {
 342:Core/Src/stm32f7xx_hal_msp.c ****   if(hdma2d->Instance==DMA2D)
 343:Core/Src/stm32f7xx_hal_msp.c ****   {
 344:Core/Src/stm32f7xx_hal_msp.c ****   /* USER CODE BEGIN DMA2D_MspInit 0 */
 345:Core/Src/stm32f7xx_hal_msp.c **** 
 346:Core/Src/stm32f7xx_hal_msp.c ****   /* USER CODE END DMA2D_MspInit 0 */
 347:Core/Src/stm32f7xx_hal_msp.c ****     /* Peripheral clock enable */
 348:Core/Src/stm32f7xx_hal_msp.c ****     __HAL_RCC_DMA2D_CLK_ENABLE();
 349:Core/Src/stm32f7xx_hal_msp.c ****     /* DMA2D interrupt Init */
 350:Core/Src/stm32f7xx_hal_msp.c ****     HAL_NVIC_SetPriority(DMA2D_IRQn, 5, 0);
 351:Core/Src/stm32f7xx_hal_msp.c ****     HAL_NVIC_EnableIRQ(DMA2D_IRQn);
 352:Core/Src/stm32f7xx_hal_msp.c ****   /* USER CODE BEGIN DMA2D_MspInit 1 */
 353:Core/Src/stm32f7xx_hal_msp.c **** 
 354:Core/Src/stm32f7xx_hal_msp.c ****   /* USER CODE END DMA2D_MspInit 1 */
 355:Core/Src/stm32f7xx_hal_msp.c ****   }
 356:Core/Src/stm32f7xx_hal_msp.c **** 
 357:Core/Src/stm32f7xx_hal_msp.c **** }
 358:Core/Src/stm32f7xx_hal_msp.c **** 
 359:Core/Src/stm32f7xx_hal_msp.c **** /**
 360:Core/Src/stm32f7xx_hal_msp.c **** * @brief DMA2D MSP De-Initialization
 361:Core/Src/stm32f7xx_hal_msp.c **** * This function freeze the hardware resources used in this example
 362:Core/Src/stm32f7xx_hal_msp.c **** * @param hdma2d: DMA2D handle pointer
 363:Core/Src/stm32f7xx_hal_msp.c **** * @retval None
 364:Core/Src/stm32f7xx_hal_msp.c **** */
 365:Core/Src/stm32f7xx_hal_msp.c **** void HAL_DMA2D_MspDeInit(DMA2D_HandleTypeDef* hdma2d)
 366:Core/Src/stm32f7xx_hal_msp.c **** {
 367:Core/Src/stm32f7xx_hal_msp.c ****   if(hdma2d->Instance==DMA2D)
 368:Core/Src/stm32f7xx_hal_msp.c ****   {
 369:Core/Src/stm32f7xx_hal_msp.c ****   /* USER CODE BEGIN DMA2D_MspDeInit 0 */
 370:Core/Src/stm32f7xx_hal_msp.c **** 
 371:Core/Src/stm32f7xx_hal_msp.c ****   /* USER CODE END DMA2D_MspDeInit 0 */
 372:Core/Src/stm32f7xx_hal_msp.c ****     /* Peripheral clock disable */
 373:Core/Src/stm32f7xx_hal_msp.c ****     __HAL_RCC_DMA2D_CLK_DISABLE();
 374:Core/Src/stm32f7xx_hal_msp.c **** 
ARM GAS  /tmp/ccJDgDyU.s 			page 8


 375:Core/Src/stm32f7xx_hal_msp.c ****     /* DMA2D interrupt DeInit */
 376:Core/Src/stm32f7xx_hal_msp.c ****     HAL_NVIC_DisableIRQ(DMA2D_IRQn);
 377:Core/Src/stm32f7xx_hal_msp.c ****   /* USER CODE BEGIN DMA2D_MspDeInit 1 */
 378:Core/Src/stm32f7xx_hal_msp.c **** 
 379:Core/Src/stm32f7xx_hal_msp.c ****   /* USER CODE END DMA2D_MspDeInit 1 */
 380:Core/Src/stm32f7xx_hal_msp.c ****   }
 381:Core/Src/stm32f7xx_hal_msp.c **** 
 382:Core/Src/stm32f7xx_hal_msp.c **** }
 383:Core/Src/stm32f7xx_hal_msp.c **** 
 384:Core/Src/stm32f7xx_hal_msp.c **** /**
 385:Core/Src/stm32f7xx_hal_msp.c **** * @brief ETH MSP Initialization
 386:Core/Src/stm32f7xx_hal_msp.c **** * This function configures the hardware resources used in this example
 387:Core/Src/stm32f7xx_hal_msp.c **** * @param heth: ETH handle pointer
 388:Core/Src/stm32f7xx_hal_msp.c **** * @retval None
 389:Core/Src/stm32f7xx_hal_msp.c **** */
 390:Core/Src/stm32f7xx_hal_msp.c **** void HAL_ETH_MspInit(ETH_HandleTypeDef* heth)
 391:Core/Src/stm32f7xx_hal_msp.c **** {
 392:Core/Src/stm32f7xx_hal_msp.c ****   GPIO_InitTypeDef GPIO_InitStruct = {0};
 393:Core/Src/stm32f7xx_hal_msp.c ****   if(heth->Instance==ETH)
 394:Core/Src/stm32f7xx_hal_msp.c ****   {
 395:Core/Src/stm32f7xx_hal_msp.c ****   /* USER CODE BEGIN ETH_MspInit 0 */
 396:Core/Src/stm32f7xx_hal_msp.c **** 
 397:Core/Src/stm32f7xx_hal_msp.c ****   /* USER CODE END ETH_MspInit 0 */
 398:Core/Src/stm32f7xx_hal_msp.c ****     /* Peripheral clock enable */
 399:Core/Src/stm32f7xx_hal_msp.c ****     __HAL_RCC_ETH_CLK_ENABLE();
 400:Core/Src/stm32f7xx_hal_msp.c ****   
 401:Core/Src/stm32f7xx_hal_msp.c ****     __HAL_RCC_GPIOG_CLK_ENABLE();
 402:Core/Src/stm32f7xx_hal_msp.c ****     __HAL_RCC_GPIOC_CLK_ENABLE();
 403:Core/Src/stm32f7xx_hal_msp.c ****     __HAL_RCC_GPIOA_CLK_ENABLE();
 404:Core/Src/stm32f7xx_hal_msp.c ****     /**ETH GPIO Configuration    
 405:Core/Src/stm32f7xx_hal_msp.c ****     PG14     ------> ETH_TXD1
 406:Core/Src/stm32f7xx_hal_msp.c ****     PG13     ------> ETH_TXD0
 407:Core/Src/stm32f7xx_hal_msp.c ****     PG11     ------> ETH_TX_EN
 408:Core/Src/stm32f7xx_hal_msp.c ****     PC1     ------> ETH_MDC
 409:Core/Src/stm32f7xx_hal_msp.c ****     PA1     ------> ETH_REF_CLK
 410:Core/Src/stm32f7xx_hal_msp.c ****     PC4     ------> ETH_RXD0
 411:Core/Src/stm32f7xx_hal_msp.c ****     PA2     ------> ETH_MDIO
 412:Core/Src/stm32f7xx_hal_msp.c ****     PC5     ------> ETH_RXD1
 413:Core/Src/stm32f7xx_hal_msp.c ****     PA7     ------> ETH_CRS_DV 
 414:Core/Src/stm32f7xx_hal_msp.c ****     */
 415:Core/Src/stm32f7xx_hal_msp.c ****     GPIO_InitStruct.Pin = RMII_TXD1_Pin|RMII_TXD0_Pin|RMII_TX_EN_Pin;
 416:Core/Src/stm32f7xx_hal_msp.c ****     GPIO_InitStruct.Mode = GPIO_MODE_AF_PP;
 417:Core/Src/stm32f7xx_hal_msp.c ****     GPIO_InitStruct.Pull = GPIO_NOPULL;
 418:Core/Src/stm32f7xx_hal_msp.c ****     GPIO_InitStruct.Speed = GPIO_SPEED_FREQ_VERY_HIGH;
 419:Core/Src/stm32f7xx_hal_msp.c ****     GPIO_InitStruct.Alternate = GPIO_AF11_ETH;
 420:Core/Src/stm32f7xx_hal_msp.c ****     HAL_GPIO_Init(GPIOG, &GPIO_InitStruct);
 421:Core/Src/stm32f7xx_hal_msp.c **** 
 422:Core/Src/stm32f7xx_hal_msp.c ****     GPIO_InitStruct.Pin = RMII_MDC_Pin|RMII_RXD0_Pin|RMII_RXD1_Pin;
 423:Core/Src/stm32f7xx_hal_msp.c ****     GPIO_InitStruct.Mode = GPIO_MODE_AF_PP;
 424:Core/Src/stm32f7xx_hal_msp.c ****     GPIO_InitStruct.Pull = GPIO_NOPULL;
 425:Core/Src/stm32f7xx_hal_msp.c ****     GPIO_InitStruct.Speed = GPIO_SPEED_FREQ_VERY_HIGH;
 426:Core/Src/stm32f7xx_hal_msp.c ****     GPIO_InitStruct.Alternate = GPIO_AF11_ETH;
 427:Core/Src/stm32f7xx_hal_msp.c ****     HAL_GPIO_Init(GPIOC, &GPIO_InitStruct);
 428:Core/Src/stm32f7xx_hal_msp.c **** 
 429:Core/Src/stm32f7xx_hal_msp.c ****     GPIO_InitStruct.Pin = RMII_REF_CLK_Pin|RMII_MDIO_Pin|RMII_CRS_DV_Pin;
 430:Core/Src/stm32f7xx_hal_msp.c ****     GPIO_InitStruct.Mode = GPIO_MODE_AF_PP;
 431:Core/Src/stm32f7xx_hal_msp.c ****     GPIO_InitStruct.Pull = GPIO_NOPULL;
ARM GAS  /tmp/ccJDgDyU.s 			page 9


 432:Core/Src/stm32f7xx_hal_msp.c ****     GPIO_InitStruct.Speed = GPIO_SPEED_FREQ_VERY_HIGH;
 433:Core/Src/stm32f7xx_hal_msp.c ****     GPIO_InitStruct.Alternate = GPIO_AF11_ETH;
 434:Core/Src/stm32f7xx_hal_msp.c ****     HAL_GPIO_Init(GPIOA, &GPIO_InitStruct);
 435:Core/Src/stm32f7xx_hal_msp.c **** 
 436:Core/Src/stm32f7xx_hal_msp.c ****   /* USER CODE BEGIN ETH_MspInit 1 */
 437:Core/Src/stm32f7xx_hal_msp.c **** 
 438:Core/Src/stm32f7xx_hal_msp.c ****   /* USER CODE END ETH_MspInit 1 */
 439:Core/Src/stm32f7xx_hal_msp.c ****   }
 440:Core/Src/stm32f7xx_hal_msp.c **** 
 441:Core/Src/stm32f7xx_hal_msp.c **** }
 442:Core/Src/stm32f7xx_hal_msp.c **** 
 443:Core/Src/stm32f7xx_hal_msp.c **** /**
 444:Core/Src/stm32f7xx_hal_msp.c **** * @brief ETH MSP De-Initialization
 445:Core/Src/stm32f7xx_hal_msp.c **** * This function freeze the hardware resources used in this example
 446:Core/Src/stm32f7xx_hal_msp.c **** * @param heth: ETH handle pointer
 447:Core/Src/stm32f7xx_hal_msp.c **** * @retval None
 448:Core/Src/stm32f7xx_hal_msp.c **** */
 449:Core/Src/stm32f7xx_hal_msp.c **** void HAL_ETH_MspDeInit(ETH_HandleTypeDef* heth)
 450:Core/Src/stm32f7xx_hal_msp.c **** {
 451:Core/Src/stm32f7xx_hal_msp.c ****   if(heth->Instance==ETH)
 452:Core/Src/stm32f7xx_hal_msp.c ****   {
 453:Core/Src/stm32f7xx_hal_msp.c ****   /* USER CODE BEGIN ETH_MspDeInit 0 */
 454:Core/Src/stm32f7xx_hal_msp.c **** 
 455:Core/Src/stm32f7xx_hal_msp.c ****   /* USER CODE END ETH_MspDeInit 0 */
 456:Core/Src/stm32f7xx_hal_msp.c ****     /* Peripheral clock disable */
 457:Core/Src/stm32f7xx_hal_msp.c ****     __HAL_RCC_ETH_CLK_DISABLE();
 458:Core/Src/stm32f7xx_hal_msp.c ****   
 459:Core/Src/stm32f7xx_hal_msp.c ****     /**ETH GPIO Configuration    
 460:Core/Src/stm32f7xx_hal_msp.c ****     PG14     ------> ETH_TXD1
 461:Core/Src/stm32f7xx_hal_msp.c ****     PG13     ------> ETH_TXD0
 462:Core/Src/stm32f7xx_hal_msp.c ****     PG11     ------> ETH_TX_EN
 463:Core/Src/stm32f7xx_hal_msp.c ****     PC1     ------> ETH_MDC
 464:Core/Src/stm32f7xx_hal_msp.c ****     PA1     ------> ETH_REF_CLK
 465:Core/Src/stm32f7xx_hal_msp.c ****     PC4     ------> ETH_RXD0
 466:Core/Src/stm32f7xx_hal_msp.c ****     PA2     ------> ETH_MDIO
 467:Core/Src/stm32f7xx_hal_msp.c ****     PC5     ------> ETH_RXD1
 468:Core/Src/stm32f7xx_hal_msp.c ****     PA7     ------> ETH_CRS_DV 
 469:Core/Src/stm32f7xx_hal_msp.c ****     */
 470:Core/Src/stm32f7xx_hal_msp.c ****     HAL_GPIO_DeInit(GPIOG, RMII_TXD1_Pin|RMII_TXD0_Pin|RMII_TX_EN_Pin);
 471:Core/Src/stm32f7xx_hal_msp.c **** 
 472:Core/Src/stm32f7xx_hal_msp.c ****     HAL_GPIO_DeInit(GPIOC, RMII_MDC_Pin|RMII_RXD0_Pin|RMII_RXD1_Pin);
 473:Core/Src/stm32f7xx_hal_msp.c **** 
 474:Core/Src/stm32f7xx_hal_msp.c ****     HAL_GPIO_DeInit(GPIOA, RMII_REF_CLK_Pin|RMII_MDIO_Pin|RMII_CRS_DV_Pin);
 475:Core/Src/stm32f7xx_hal_msp.c **** 
 476:Core/Src/stm32f7xx_hal_msp.c ****   /* USER CODE BEGIN ETH_MspDeInit 1 */
 477:Core/Src/stm32f7xx_hal_msp.c **** 
 478:Core/Src/stm32f7xx_hal_msp.c ****   /* USER CODE END ETH_MspDeInit 1 */
 479:Core/Src/stm32f7xx_hal_msp.c ****   }
 480:Core/Src/stm32f7xx_hal_msp.c **** 
 481:Core/Src/stm32f7xx_hal_msp.c **** }
 482:Core/Src/stm32f7xx_hal_msp.c **** 
 483:Core/Src/stm32f7xx_hal_msp.c **** /**
 484:Core/Src/stm32f7xx_hal_msp.c **** * @brief I2C MSP Initialization
 485:Core/Src/stm32f7xx_hal_msp.c **** * This function configures the hardware resources used in this example
 486:Core/Src/stm32f7xx_hal_msp.c **** * @param hi2c: I2C handle pointer
 487:Core/Src/stm32f7xx_hal_msp.c **** * @retval None
 488:Core/Src/stm32f7xx_hal_msp.c **** */
ARM GAS  /tmp/ccJDgDyU.s 			page 10


 489:Core/Src/stm32f7xx_hal_msp.c **** void HAL_I2C_MspInit(I2C_HandleTypeDef* hi2c)
 490:Core/Src/stm32f7xx_hal_msp.c **** {
 491:Core/Src/stm32f7xx_hal_msp.c ****   GPIO_InitTypeDef GPIO_InitStruct = {0};
 492:Core/Src/stm32f7xx_hal_msp.c ****   if(hi2c->Instance==I2C1)
 493:Core/Src/stm32f7xx_hal_msp.c ****   {
 494:Core/Src/stm32f7xx_hal_msp.c ****   /* USER CODE BEGIN I2C1_MspInit 0 */
 495:Core/Src/stm32f7xx_hal_msp.c **** 
 496:Core/Src/stm32f7xx_hal_msp.c ****   /* USER CODE END I2C1_MspInit 0 */
 497:Core/Src/stm32f7xx_hal_msp.c ****   
 498:Core/Src/stm32f7xx_hal_msp.c ****     __HAL_RCC_GPIOB_CLK_ENABLE();
 499:Core/Src/stm32f7xx_hal_msp.c ****     /**I2C1 GPIO Configuration    
 500:Core/Src/stm32f7xx_hal_msp.c ****     PB8     ------> I2C1_SCL
 501:Core/Src/stm32f7xx_hal_msp.c ****     PB9     ------> I2C1_SDA 
 502:Core/Src/stm32f7xx_hal_msp.c ****     */
 503:Core/Src/stm32f7xx_hal_msp.c ****     GPIO_InitStruct.Pin = ARDUINO_SCL_D15_Pin|ARDUINO_SDA_D14_Pin;
 504:Core/Src/stm32f7xx_hal_msp.c ****     GPIO_InitStruct.Mode = GPIO_MODE_AF_OD;
 505:Core/Src/stm32f7xx_hal_msp.c ****     GPIO_InitStruct.Pull = GPIO_PULLUP;
 506:Core/Src/stm32f7xx_hal_msp.c ****     GPIO_InitStruct.Speed = GPIO_SPEED_FREQ_LOW;
 507:Core/Src/stm32f7xx_hal_msp.c ****     GPIO_InitStruct.Alternate = GPIO_AF4_I2C1;
 508:Core/Src/stm32f7xx_hal_msp.c ****     HAL_GPIO_Init(GPIOB, &GPIO_InitStruct);
 509:Core/Src/stm32f7xx_hal_msp.c **** 
 510:Core/Src/stm32f7xx_hal_msp.c ****     /* Peripheral clock enable */
 511:Core/Src/stm32f7xx_hal_msp.c ****     __HAL_RCC_I2C1_CLK_ENABLE();
 512:Core/Src/stm32f7xx_hal_msp.c ****   /* USER CODE BEGIN I2C1_MspInit 1 */
 513:Core/Src/stm32f7xx_hal_msp.c **** 
 514:Core/Src/stm32f7xx_hal_msp.c ****   /* USER CODE END I2C1_MspInit 1 */
 515:Core/Src/stm32f7xx_hal_msp.c ****   }
 516:Core/Src/stm32f7xx_hal_msp.c ****   else if(hi2c->Instance==I2C3)
 517:Core/Src/stm32f7xx_hal_msp.c ****   {
 518:Core/Src/stm32f7xx_hal_msp.c ****   /* USER CODE BEGIN I2C3_MspInit 0 */
 519:Core/Src/stm32f7xx_hal_msp.c **** 
 520:Core/Src/stm32f7xx_hal_msp.c ****   /* USER CODE END I2C3_MspInit 0 */
 521:Core/Src/stm32f7xx_hal_msp.c ****   
 522:Core/Src/stm32f7xx_hal_msp.c ****     __HAL_RCC_GPIOH_CLK_ENABLE();
 523:Core/Src/stm32f7xx_hal_msp.c ****     /**I2C3 GPIO Configuration    
 524:Core/Src/stm32f7xx_hal_msp.c ****     PH7     ------> I2C3_SCL
 525:Core/Src/stm32f7xx_hal_msp.c ****     PH8     ------> I2C3_SDA 
 526:Core/Src/stm32f7xx_hal_msp.c ****     */
 527:Core/Src/stm32f7xx_hal_msp.c ****     GPIO_InitStruct.Pin = LCD_SCL_Pin|LCD_SDA_Pin;
 528:Core/Src/stm32f7xx_hal_msp.c ****     GPIO_InitStruct.Mode = GPIO_MODE_AF_OD;
 529:Core/Src/stm32f7xx_hal_msp.c ****     GPIO_InitStruct.Pull = GPIO_PULLUP;
 530:Core/Src/stm32f7xx_hal_msp.c ****     GPIO_InitStruct.Speed = GPIO_SPEED_FREQ_VERY_HIGH;
 531:Core/Src/stm32f7xx_hal_msp.c ****     GPIO_InitStruct.Alternate = GPIO_AF4_I2C3;
 532:Core/Src/stm32f7xx_hal_msp.c ****     HAL_GPIO_Init(GPIOH, &GPIO_InitStruct);
 533:Core/Src/stm32f7xx_hal_msp.c **** 
 534:Core/Src/stm32f7xx_hal_msp.c ****     /* Peripheral clock enable */
 535:Core/Src/stm32f7xx_hal_msp.c ****     __HAL_RCC_I2C3_CLK_ENABLE();
 536:Core/Src/stm32f7xx_hal_msp.c ****   /* USER CODE BEGIN I2C3_MspInit 1 */
 537:Core/Src/stm32f7xx_hal_msp.c **** 
 538:Core/Src/stm32f7xx_hal_msp.c ****   /* USER CODE END I2C3_MspInit 1 */
 539:Core/Src/stm32f7xx_hal_msp.c ****   }
 540:Core/Src/stm32f7xx_hal_msp.c **** 
 541:Core/Src/stm32f7xx_hal_msp.c **** }
 542:Core/Src/stm32f7xx_hal_msp.c **** 
 543:Core/Src/stm32f7xx_hal_msp.c **** /**
 544:Core/Src/stm32f7xx_hal_msp.c **** * @brief I2C MSP De-Initialization
 545:Core/Src/stm32f7xx_hal_msp.c **** * This function freeze the hardware resources used in this example
ARM GAS  /tmp/ccJDgDyU.s 			page 11


 546:Core/Src/stm32f7xx_hal_msp.c **** * @param hi2c: I2C handle pointer
 547:Core/Src/stm32f7xx_hal_msp.c **** * @retval None
 548:Core/Src/stm32f7xx_hal_msp.c **** */
 549:Core/Src/stm32f7xx_hal_msp.c **** void HAL_I2C_MspDeInit(I2C_HandleTypeDef* hi2c)
 550:Core/Src/stm32f7xx_hal_msp.c **** {
 551:Core/Src/stm32f7xx_hal_msp.c ****   if(hi2c->Instance==I2C1)
 552:Core/Src/stm32f7xx_hal_msp.c ****   {
 553:Core/Src/stm32f7xx_hal_msp.c ****   /* USER CODE BEGIN I2C1_MspDeInit 0 */
 554:Core/Src/stm32f7xx_hal_msp.c **** 
 555:Core/Src/stm32f7xx_hal_msp.c ****   /* USER CODE END I2C1_MspDeInit 0 */
 556:Core/Src/stm32f7xx_hal_msp.c ****     /* Peripheral clock disable */
 557:Core/Src/stm32f7xx_hal_msp.c ****     __HAL_RCC_I2C1_CLK_DISABLE();
 558:Core/Src/stm32f7xx_hal_msp.c ****   
 559:Core/Src/stm32f7xx_hal_msp.c ****     /**I2C1 GPIO Configuration    
 560:Core/Src/stm32f7xx_hal_msp.c ****     PB8     ------> I2C1_SCL
 561:Core/Src/stm32f7xx_hal_msp.c ****     PB9     ------> I2C1_SDA 
 562:Core/Src/stm32f7xx_hal_msp.c ****     */
 563:Core/Src/stm32f7xx_hal_msp.c ****     HAL_GPIO_DeInit(GPIOB, ARDUINO_SCL_D15_Pin|ARDUINO_SDA_D14_Pin);
 564:Core/Src/stm32f7xx_hal_msp.c **** 
 565:Core/Src/stm32f7xx_hal_msp.c ****   /* USER CODE BEGIN I2C1_MspDeInit 1 */
 566:Core/Src/stm32f7xx_hal_msp.c **** 
 567:Core/Src/stm32f7xx_hal_msp.c ****   /* USER CODE END I2C1_MspDeInit 1 */
 568:Core/Src/stm32f7xx_hal_msp.c ****   }
 569:Core/Src/stm32f7xx_hal_msp.c ****   else if(hi2c->Instance==I2C3)
 570:Core/Src/stm32f7xx_hal_msp.c ****   {
 571:Core/Src/stm32f7xx_hal_msp.c ****   /* USER CODE BEGIN I2C3_MspDeInit 0 */
 572:Core/Src/stm32f7xx_hal_msp.c **** 
 573:Core/Src/stm32f7xx_hal_msp.c ****   /* USER CODE END I2C3_MspDeInit 0 */
 574:Core/Src/stm32f7xx_hal_msp.c ****     /* Peripheral clock disable */
 575:Core/Src/stm32f7xx_hal_msp.c ****     __HAL_RCC_I2C3_CLK_DISABLE();
 576:Core/Src/stm32f7xx_hal_msp.c ****   
 577:Core/Src/stm32f7xx_hal_msp.c ****     /**I2C3 GPIO Configuration    
 578:Core/Src/stm32f7xx_hal_msp.c ****     PH7     ------> I2C3_SCL
 579:Core/Src/stm32f7xx_hal_msp.c ****     PH8     ------> I2C3_SDA 
 580:Core/Src/stm32f7xx_hal_msp.c ****     */
 581:Core/Src/stm32f7xx_hal_msp.c ****     HAL_GPIO_DeInit(GPIOH, LCD_SCL_Pin|LCD_SDA_Pin);
 582:Core/Src/stm32f7xx_hal_msp.c **** 
 583:Core/Src/stm32f7xx_hal_msp.c ****   /* USER CODE BEGIN I2C3_MspDeInit 1 */
 584:Core/Src/stm32f7xx_hal_msp.c **** 
 585:Core/Src/stm32f7xx_hal_msp.c ****   /* USER CODE END I2C3_MspDeInit 1 */
 586:Core/Src/stm32f7xx_hal_msp.c ****   }
 587:Core/Src/stm32f7xx_hal_msp.c **** 
 588:Core/Src/stm32f7xx_hal_msp.c **** }
 589:Core/Src/stm32f7xx_hal_msp.c **** 
 590:Core/Src/stm32f7xx_hal_msp.c **** /**
 591:Core/Src/stm32f7xx_hal_msp.c **** * @brief LTDC MSP Initialization
 592:Core/Src/stm32f7xx_hal_msp.c **** * This function configures the hardware resources used in this example
 593:Core/Src/stm32f7xx_hal_msp.c **** * @param hltdc: LTDC handle pointer
 594:Core/Src/stm32f7xx_hal_msp.c **** * @retval None
 595:Core/Src/stm32f7xx_hal_msp.c **** */
 596:Core/Src/stm32f7xx_hal_msp.c **** void HAL_LTDC_MspInit(LTDC_HandleTypeDef* hltdc)
 597:Core/Src/stm32f7xx_hal_msp.c **** {
 598:Core/Src/stm32f7xx_hal_msp.c ****   GPIO_InitTypeDef GPIO_InitStruct = {0};
 599:Core/Src/stm32f7xx_hal_msp.c ****   if(hltdc->Instance==LTDC)
 600:Core/Src/stm32f7xx_hal_msp.c ****   {
 601:Core/Src/stm32f7xx_hal_msp.c ****   /* USER CODE BEGIN LTDC_MspInit 0 */
 602:Core/Src/stm32f7xx_hal_msp.c **** 
ARM GAS  /tmp/ccJDgDyU.s 			page 12


 603:Core/Src/stm32f7xx_hal_msp.c ****   /* USER CODE END LTDC_MspInit 0 */
 604:Core/Src/stm32f7xx_hal_msp.c ****     /* Peripheral clock enable */
 605:Core/Src/stm32f7xx_hal_msp.c ****     __HAL_RCC_LTDC_CLK_ENABLE();
 606:Core/Src/stm32f7xx_hal_msp.c ****   
 607:Core/Src/stm32f7xx_hal_msp.c ****     __HAL_RCC_GPIOE_CLK_ENABLE();
 608:Core/Src/stm32f7xx_hal_msp.c ****     __HAL_RCC_GPIOJ_CLK_ENABLE();
 609:Core/Src/stm32f7xx_hal_msp.c ****     __HAL_RCC_GPIOK_CLK_ENABLE();
 610:Core/Src/stm32f7xx_hal_msp.c ****     __HAL_RCC_GPIOG_CLK_ENABLE();
 611:Core/Src/stm32f7xx_hal_msp.c ****     __HAL_RCC_GPIOI_CLK_ENABLE();
 612:Core/Src/stm32f7xx_hal_msp.c ****     /**LTDC GPIO Configuration    
 613:Core/Src/stm32f7xx_hal_msp.c ****     PE4     ------> LTDC_B0
 614:Core/Src/stm32f7xx_hal_msp.c ****     PJ13     ------> LTDC_B1
 615:Core/Src/stm32f7xx_hal_msp.c ****     PK7     ------> LTDC_DE
 616:Core/Src/stm32f7xx_hal_msp.c ****     PK6     ------> LTDC_B7
 617:Core/Src/stm32f7xx_hal_msp.c ****     PK5     ------> LTDC_B6
 618:Core/Src/stm32f7xx_hal_msp.c ****     PG12     ------> LTDC_B4
 619:Core/Src/stm32f7xx_hal_msp.c ****     PJ14     ------> LTDC_B2
 620:Core/Src/stm32f7xx_hal_msp.c ****     PI10     ------> LTDC_HSYNC
 621:Core/Src/stm32f7xx_hal_msp.c ****     PK4     ------> LTDC_B5
 622:Core/Src/stm32f7xx_hal_msp.c ****     PJ15     ------> LTDC_B3
 623:Core/Src/stm32f7xx_hal_msp.c ****     PI9     ------> LTDC_VSYNC
 624:Core/Src/stm32f7xx_hal_msp.c ****     PK1     ------> LTDC_G6
 625:Core/Src/stm32f7xx_hal_msp.c ****     PK2     ------> LTDC_G7
 626:Core/Src/stm32f7xx_hal_msp.c ****     PI15     ------> LTDC_R0
 627:Core/Src/stm32f7xx_hal_msp.c ****     PJ11     ------> LTDC_G4
 628:Core/Src/stm32f7xx_hal_msp.c ****     PK0     ------> LTDC_G5
 629:Core/Src/stm32f7xx_hal_msp.c ****     PI14     ------> LTDC_CLK
 630:Core/Src/stm32f7xx_hal_msp.c ****     PJ8     ------> LTDC_G1
 631:Core/Src/stm32f7xx_hal_msp.c ****     PJ10     ------> LTDC_G3
 632:Core/Src/stm32f7xx_hal_msp.c ****     PJ7     ------> LTDC_G0
 633:Core/Src/stm32f7xx_hal_msp.c ****     PJ9     ------> LTDC_G2
 634:Core/Src/stm32f7xx_hal_msp.c ****     PJ6     ------> LTDC_R7
 635:Core/Src/stm32f7xx_hal_msp.c ****     PJ4     ------> LTDC_R5
 636:Core/Src/stm32f7xx_hal_msp.c ****     PJ5     ------> LTDC_R6
 637:Core/Src/stm32f7xx_hal_msp.c ****     PJ3     ------> LTDC_R4
 638:Core/Src/stm32f7xx_hal_msp.c ****     PJ2     ------> LTDC_R3
 639:Core/Src/stm32f7xx_hal_msp.c ****     PJ0     ------> LTDC_R1
 640:Core/Src/stm32f7xx_hal_msp.c ****     PJ1     ------> LTDC_R2 
 641:Core/Src/stm32f7xx_hal_msp.c ****     */
 642:Core/Src/stm32f7xx_hal_msp.c ****     GPIO_InitStruct.Pin = LCD_B0_Pin;
 643:Core/Src/stm32f7xx_hal_msp.c ****     GPIO_InitStruct.Mode = GPIO_MODE_AF_PP;
 644:Core/Src/stm32f7xx_hal_msp.c ****     GPIO_InitStruct.Pull = GPIO_NOPULL;
 645:Core/Src/stm32f7xx_hal_msp.c ****     GPIO_InitStruct.Speed = GPIO_SPEED_FREQ_LOW;
 646:Core/Src/stm32f7xx_hal_msp.c ****     GPIO_InitStruct.Alternate = GPIO_AF14_LTDC;
 647:Core/Src/stm32f7xx_hal_msp.c ****     HAL_GPIO_Init(LCD_B0_GPIO_Port, &GPIO_InitStruct);
 648:Core/Src/stm32f7xx_hal_msp.c **** 
 649:Core/Src/stm32f7xx_hal_msp.c ****     GPIO_InitStruct.Pin = LCD_B1_Pin|LCD_B2_Pin|LCD_B3_Pin|LCD_G4_Pin 
 650:Core/Src/stm32f7xx_hal_msp.c ****                           |LCD_G1_Pin|LCD_G3_Pin|LCD_G0_Pin|LCD_G2_Pin 
 651:Core/Src/stm32f7xx_hal_msp.c ****                           |LCD_R7_Pin|LCD_R5_Pin|LCD_R6_Pin|LCD_R4_Pin 
 652:Core/Src/stm32f7xx_hal_msp.c ****                           |LCD_R3_Pin|LCD_R1_Pin|LCD_R2_Pin;
 653:Core/Src/stm32f7xx_hal_msp.c ****     GPIO_InitStruct.Mode = GPIO_MODE_AF_PP;
 654:Core/Src/stm32f7xx_hal_msp.c ****     GPIO_InitStruct.Pull = GPIO_NOPULL;
 655:Core/Src/stm32f7xx_hal_msp.c ****     GPIO_InitStruct.Speed = GPIO_SPEED_FREQ_LOW;
 656:Core/Src/stm32f7xx_hal_msp.c ****     GPIO_InitStruct.Alternate = GPIO_AF14_LTDC;
 657:Core/Src/stm32f7xx_hal_msp.c ****     HAL_GPIO_Init(GPIOJ, &GPIO_InitStruct);
 658:Core/Src/stm32f7xx_hal_msp.c **** 
 659:Core/Src/stm32f7xx_hal_msp.c ****     GPIO_InitStruct.Pin = LCD_DE_Pin|LCD_B7_Pin|LCD_B6_Pin|LCD_B5_Pin 
ARM GAS  /tmp/ccJDgDyU.s 			page 13


 660:Core/Src/stm32f7xx_hal_msp.c ****                           |LCD_G6_Pin|LCD_G7_Pin|LCD_G5_Pin;
 661:Core/Src/stm32f7xx_hal_msp.c ****     GPIO_InitStruct.Mode = GPIO_MODE_AF_PP;
 662:Core/Src/stm32f7xx_hal_msp.c ****     GPIO_InitStruct.Pull = GPIO_NOPULL;
 663:Core/Src/stm32f7xx_hal_msp.c ****     GPIO_InitStruct.Speed = GPIO_SPEED_FREQ_LOW;
 664:Core/Src/stm32f7xx_hal_msp.c ****     GPIO_InitStruct.Alternate = GPIO_AF14_LTDC;
 665:Core/Src/stm32f7xx_hal_msp.c ****     HAL_GPIO_Init(GPIOK, &GPIO_InitStruct);
 666:Core/Src/stm32f7xx_hal_msp.c **** 
 667:Core/Src/stm32f7xx_hal_msp.c ****     GPIO_InitStruct.Pin = LCD_B4_Pin;
 668:Core/Src/stm32f7xx_hal_msp.c ****     GPIO_InitStruct.Mode = GPIO_MODE_AF_PP;
 669:Core/Src/stm32f7xx_hal_msp.c ****     GPIO_InitStruct.Pull = GPIO_NOPULL;
 670:Core/Src/stm32f7xx_hal_msp.c ****     GPIO_InitStruct.Speed = GPIO_SPEED_FREQ_LOW;
 671:Core/Src/stm32f7xx_hal_msp.c ****     GPIO_InitStruct.Alternate = GPIO_AF9_LTDC;
 672:Core/Src/stm32f7xx_hal_msp.c ****     HAL_GPIO_Init(LCD_B4_GPIO_Port, &GPIO_InitStruct);
 673:Core/Src/stm32f7xx_hal_msp.c **** 
 674:Core/Src/stm32f7xx_hal_msp.c ****     GPIO_InitStruct.Pin = LCD_HSYNC_Pin|LCD_VSYNC_Pin|LCD_R0_Pin|LCD_CLK_Pin;
 675:Core/Src/stm32f7xx_hal_msp.c ****     GPIO_InitStruct.Mode = GPIO_MODE_AF_PP;
 676:Core/Src/stm32f7xx_hal_msp.c ****     GPIO_InitStruct.Pull = GPIO_NOPULL;
 677:Core/Src/stm32f7xx_hal_msp.c ****     GPIO_InitStruct.Speed = GPIO_SPEED_FREQ_LOW;
 678:Core/Src/stm32f7xx_hal_msp.c ****     GPIO_InitStruct.Alternate = GPIO_AF14_LTDC;
 679:Core/Src/stm32f7xx_hal_msp.c ****     HAL_GPIO_Init(GPIOI, &GPIO_InitStruct);
 680:Core/Src/stm32f7xx_hal_msp.c **** 
 681:Core/Src/stm32f7xx_hal_msp.c ****     /* LTDC interrupt Init */
 682:Core/Src/stm32f7xx_hal_msp.c ****     HAL_NVIC_SetPriority(LTDC_IRQn, 5, 0);
 683:Core/Src/stm32f7xx_hal_msp.c ****     HAL_NVIC_EnableIRQ(LTDC_IRQn);
 684:Core/Src/stm32f7xx_hal_msp.c ****   /* USER CODE BEGIN LTDC_MspInit 1 */
 685:Core/Src/stm32f7xx_hal_msp.c **** 
 686:Core/Src/stm32f7xx_hal_msp.c ****   /* USER CODE END LTDC_MspInit 1 */
 687:Core/Src/stm32f7xx_hal_msp.c ****   }
 688:Core/Src/stm32f7xx_hal_msp.c **** 
 689:Core/Src/stm32f7xx_hal_msp.c **** }
 690:Core/Src/stm32f7xx_hal_msp.c **** 
 691:Core/Src/stm32f7xx_hal_msp.c **** /**
 692:Core/Src/stm32f7xx_hal_msp.c **** * @brief LTDC MSP De-Initialization
 693:Core/Src/stm32f7xx_hal_msp.c **** * This function freeze the hardware resources used in this example
 694:Core/Src/stm32f7xx_hal_msp.c **** * @param hltdc: LTDC handle pointer
 695:Core/Src/stm32f7xx_hal_msp.c **** * @retval None
 696:Core/Src/stm32f7xx_hal_msp.c **** */
 697:Core/Src/stm32f7xx_hal_msp.c **** void HAL_LTDC_MspDeInit(LTDC_HandleTypeDef* hltdc)
 698:Core/Src/stm32f7xx_hal_msp.c **** {
 699:Core/Src/stm32f7xx_hal_msp.c ****   if(hltdc->Instance==LTDC)
 700:Core/Src/stm32f7xx_hal_msp.c ****   {
 701:Core/Src/stm32f7xx_hal_msp.c ****   /* USER CODE BEGIN LTDC_MspDeInit 0 */
 702:Core/Src/stm32f7xx_hal_msp.c **** 
 703:Core/Src/stm32f7xx_hal_msp.c ****   /* USER CODE END LTDC_MspDeInit 0 */
 704:Core/Src/stm32f7xx_hal_msp.c ****     /* Peripheral clock disable */
 705:Core/Src/stm32f7xx_hal_msp.c ****     __HAL_RCC_LTDC_CLK_DISABLE();
 706:Core/Src/stm32f7xx_hal_msp.c ****   
 707:Core/Src/stm32f7xx_hal_msp.c ****     /**LTDC GPIO Configuration    
 708:Core/Src/stm32f7xx_hal_msp.c ****     PE4     ------> LTDC_B0
 709:Core/Src/stm32f7xx_hal_msp.c ****     PJ13     ------> LTDC_B1
 710:Core/Src/stm32f7xx_hal_msp.c ****     PK7     ------> LTDC_DE
 711:Core/Src/stm32f7xx_hal_msp.c ****     PK6     ------> LTDC_B7
 712:Core/Src/stm32f7xx_hal_msp.c ****     PK5     ------> LTDC_B6
 713:Core/Src/stm32f7xx_hal_msp.c ****     PG12     ------> LTDC_B4
 714:Core/Src/stm32f7xx_hal_msp.c ****     PJ14     ------> LTDC_B2
 715:Core/Src/stm32f7xx_hal_msp.c ****     PI10     ------> LTDC_HSYNC
 716:Core/Src/stm32f7xx_hal_msp.c ****     PK4     ------> LTDC_B5
ARM GAS  /tmp/ccJDgDyU.s 			page 14


 717:Core/Src/stm32f7xx_hal_msp.c ****     PJ15     ------> LTDC_B3
 718:Core/Src/stm32f7xx_hal_msp.c ****     PI9     ------> LTDC_VSYNC
 719:Core/Src/stm32f7xx_hal_msp.c ****     PK1     ------> LTDC_G6
 720:Core/Src/stm32f7xx_hal_msp.c ****     PK2     ------> LTDC_G7
 721:Core/Src/stm32f7xx_hal_msp.c ****     PI15     ------> LTDC_R0
 722:Core/Src/stm32f7xx_hal_msp.c ****     PJ11     ------> LTDC_G4
 723:Core/Src/stm32f7xx_hal_msp.c ****     PK0     ------> LTDC_G5
 724:Core/Src/stm32f7xx_hal_msp.c ****     PI14     ------> LTDC_CLK
 725:Core/Src/stm32f7xx_hal_msp.c ****     PJ8     ------> LTDC_G1
 726:Core/Src/stm32f7xx_hal_msp.c ****     PJ10     ------> LTDC_G3
 727:Core/Src/stm32f7xx_hal_msp.c ****     PJ7     ------> LTDC_G0
 728:Core/Src/stm32f7xx_hal_msp.c ****     PJ9     ------> LTDC_G2
 729:Core/Src/stm32f7xx_hal_msp.c ****     PJ6     ------> LTDC_R7
 730:Core/Src/stm32f7xx_hal_msp.c ****     PJ4     ------> LTDC_R5
 731:Core/Src/stm32f7xx_hal_msp.c ****     PJ5     ------> LTDC_R6
 732:Core/Src/stm32f7xx_hal_msp.c ****     PJ3     ------> LTDC_R4
 733:Core/Src/stm32f7xx_hal_msp.c ****     PJ2     ------> LTDC_R3
 734:Core/Src/stm32f7xx_hal_msp.c ****     PJ0     ------> LTDC_R1
 735:Core/Src/stm32f7xx_hal_msp.c ****     PJ1     ------> LTDC_R2 
 736:Core/Src/stm32f7xx_hal_msp.c ****     */
 737:Core/Src/stm32f7xx_hal_msp.c ****     HAL_GPIO_DeInit(LCD_B0_GPIO_Port, LCD_B0_Pin);
 738:Core/Src/stm32f7xx_hal_msp.c **** 
 739:Core/Src/stm32f7xx_hal_msp.c ****     HAL_GPIO_DeInit(GPIOJ, LCD_B1_Pin|LCD_B2_Pin|LCD_B3_Pin|LCD_G4_Pin 
 740:Core/Src/stm32f7xx_hal_msp.c ****                           |LCD_G1_Pin|LCD_G3_Pin|LCD_G0_Pin|LCD_G2_Pin 
 741:Core/Src/stm32f7xx_hal_msp.c ****                           |LCD_R7_Pin|LCD_R5_Pin|LCD_R6_Pin|LCD_R4_Pin 
 742:Core/Src/stm32f7xx_hal_msp.c ****                           |LCD_R3_Pin|LCD_R1_Pin|LCD_R2_Pin);
 743:Core/Src/stm32f7xx_hal_msp.c **** 
 744:Core/Src/stm32f7xx_hal_msp.c ****     HAL_GPIO_DeInit(GPIOK, LCD_DE_Pin|LCD_B7_Pin|LCD_B6_Pin|LCD_B5_Pin 
 745:Core/Src/stm32f7xx_hal_msp.c ****                           |LCD_G6_Pin|LCD_G7_Pin|LCD_G5_Pin);
 746:Core/Src/stm32f7xx_hal_msp.c **** 
 747:Core/Src/stm32f7xx_hal_msp.c ****     HAL_GPIO_DeInit(LCD_B4_GPIO_Port, LCD_B4_Pin);
 748:Core/Src/stm32f7xx_hal_msp.c **** 
 749:Core/Src/stm32f7xx_hal_msp.c ****     HAL_GPIO_DeInit(GPIOI, LCD_HSYNC_Pin|LCD_VSYNC_Pin|LCD_R0_Pin|LCD_CLK_Pin);
 750:Core/Src/stm32f7xx_hal_msp.c **** 
 751:Core/Src/stm32f7xx_hal_msp.c ****     /* LTDC interrupt DeInit */
 752:Core/Src/stm32f7xx_hal_msp.c ****     HAL_NVIC_DisableIRQ(LTDC_IRQn);
 753:Core/Src/stm32f7xx_hal_msp.c ****   /* USER CODE BEGIN LTDC_MspDeInit 1 */
 754:Core/Src/stm32f7xx_hal_msp.c **** 
 755:Core/Src/stm32f7xx_hal_msp.c ****   /* USER CODE END LTDC_MspDeInit 1 */
 756:Core/Src/stm32f7xx_hal_msp.c ****   }
 757:Core/Src/stm32f7xx_hal_msp.c **** 
 758:Core/Src/stm32f7xx_hal_msp.c **** }
 759:Core/Src/stm32f7xx_hal_msp.c **** 
 760:Core/Src/stm32f7xx_hal_msp.c **** /**
 761:Core/Src/stm32f7xx_hal_msp.c **** * @brief QSPI MSP Initialization
 762:Core/Src/stm32f7xx_hal_msp.c **** * This function configures the hardware resources used in this example
 763:Core/Src/stm32f7xx_hal_msp.c **** * @param hqspi: QSPI handle pointer
 764:Core/Src/stm32f7xx_hal_msp.c **** * @retval None
 765:Core/Src/stm32f7xx_hal_msp.c **** */
 766:Core/Src/stm32f7xx_hal_msp.c **** void HAL_QSPI_MspInit(QSPI_HandleTypeDef* hqspi)
 767:Core/Src/stm32f7xx_hal_msp.c **** {
 768:Core/Src/stm32f7xx_hal_msp.c ****   GPIO_InitTypeDef GPIO_InitStruct = {0};
 769:Core/Src/stm32f7xx_hal_msp.c ****   if(hqspi->Instance==QUADSPI)
 770:Core/Src/stm32f7xx_hal_msp.c ****   {
 771:Core/Src/stm32f7xx_hal_msp.c ****   /* USER CODE BEGIN QUADSPI_MspInit 0 */
 772:Core/Src/stm32f7xx_hal_msp.c **** 
 773:Core/Src/stm32f7xx_hal_msp.c ****   /* USER CODE END QUADSPI_MspInit 0 */
ARM GAS  /tmp/ccJDgDyU.s 			page 15


 774:Core/Src/stm32f7xx_hal_msp.c ****     /* Peripheral clock enable */
 775:Core/Src/stm32f7xx_hal_msp.c ****     __HAL_RCC_QSPI_CLK_ENABLE();
 776:Core/Src/stm32f7xx_hal_msp.c ****   
 777:Core/Src/stm32f7xx_hal_msp.c ****     __HAL_RCC_GPIOE_CLK_ENABLE();
 778:Core/Src/stm32f7xx_hal_msp.c ****     __HAL_RCC_GPIOB_CLK_ENABLE();
 779:Core/Src/stm32f7xx_hal_msp.c ****     __HAL_RCC_GPIOD_CLK_ENABLE();
 780:Core/Src/stm32f7xx_hal_msp.c ****     /**QUADSPI GPIO Configuration    
 781:Core/Src/stm32f7xx_hal_msp.c ****     PE2     ------> QUADSPI_BK1_IO2
 782:Core/Src/stm32f7xx_hal_msp.c ****     PB6     ------> QUADSPI_BK1_NCS
 783:Core/Src/stm32f7xx_hal_msp.c ****     PB2     ------> QUADSPI_CLK
 784:Core/Src/stm32f7xx_hal_msp.c ****     PD12     ------> QUADSPI_BK1_IO1
 785:Core/Src/stm32f7xx_hal_msp.c ****     PD13     ------> QUADSPI_BK1_IO3
 786:Core/Src/stm32f7xx_hal_msp.c ****     PD11     ------> QUADSPI_BK1_IO0 
 787:Core/Src/stm32f7xx_hal_msp.c ****     */
 788:Core/Src/stm32f7xx_hal_msp.c ****     GPIO_InitStruct.Pin = QSPI_D2_Pin;
 789:Core/Src/stm32f7xx_hal_msp.c ****     GPIO_InitStruct.Mode = GPIO_MODE_AF_PP;
 790:Core/Src/stm32f7xx_hal_msp.c ****     GPIO_InitStruct.Pull = GPIO_NOPULL;
 791:Core/Src/stm32f7xx_hal_msp.c ****     GPIO_InitStruct.Speed = GPIO_SPEED_FREQ_VERY_HIGH;
 792:Core/Src/stm32f7xx_hal_msp.c ****     GPIO_InitStruct.Alternate = GPIO_AF9_QUADSPI;
 793:Core/Src/stm32f7xx_hal_msp.c ****     HAL_GPIO_Init(QSPI_D2_GPIO_Port, &GPIO_InitStruct);
 794:Core/Src/stm32f7xx_hal_msp.c **** 
 795:Core/Src/stm32f7xx_hal_msp.c ****     GPIO_InitStruct.Pin = QSPI_NCS_Pin;
 796:Core/Src/stm32f7xx_hal_msp.c ****     GPIO_InitStruct.Mode = GPIO_MODE_AF_PP;
 797:Core/Src/stm32f7xx_hal_msp.c ****     GPIO_InitStruct.Pull = GPIO_NOPULL;
 798:Core/Src/stm32f7xx_hal_msp.c ****     GPIO_InitStruct.Speed = GPIO_SPEED_FREQ_VERY_HIGH;
 799:Core/Src/stm32f7xx_hal_msp.c ****     GPIO_InitStruct.Alternate = GPIO_AF10_QUADSPI;
 800:Core/Src/stm32f7xx_hal_msp.c ****     HAL_GPIO_Init(QSPI_NCS_GPIO_Port, &GPIO_InitStruct);
 801:Core/Src/stm32f7xx_hal_msp.c **** 
 802:Core/Src/stm32f7xx_hal_msp.c ****     GPIO_InitStruct.Pin = GPIO_PIN_2;
 803:Core/Src/stm32f7xx_hal_msp.c ****     GPIO_InitStruct.Mode = GPIO_MODE_AF_PP;
 804:Core/Src/stm32f7xx_hal_msp.c ****     GPIO_InitStruct.Pull = GPIO_NOPULL;
 805:Core/Src/stm32f7xx_hal_msp.c ****     GPIO_InitStruct.Speed = GPIO_SPEED_FREQ_VERY_HIGH;
 806:Core/Src/stm32f7xx_hal_msp.c ****     GPIO_InitStruct.Alternate = GPIO_AF9_QUADSPI;
 807:Core/Src/stm32f7xx_hal_msp.c ****     HAL_GPIO_Init(GPIOB, &GPIO_InitStruct);
 808:Core/Src/stm32f7xx_hal_msp.c **** 
 809:Core/Src/stm32f7xx_hal_msp.c ****     GPIO_InitStruct.Pin = QSPI_D1_Pin|QSPI_D3_Pin|QSPI_D0_Pin;
 810:Core/Src/stm32f7xx_hal_msp.c ****     GPIO_InitStruct.Mode = GPIO_MODE_AF_PP;
 811:Core/Src/stm32f7xx_hal_msp.c ****     GPIO_InitStruct.Pull = GPIO_NOPULL;
 812:Core/Src/stm32f7xx_hal_msp.c ****     GPIO_InitStruct.Speed = GPIO_SPEED_FREQ_VERY_HIGH;
 813:Core/Src/stm32f7xx_hal_msp.c ****     GPIO_InitStruct.Alternate = GPIO_AF9_QUADSPI;
 814:Core/Src/stm32f7xx_hal_msp.c ****     HAL_GPIO_Init(GPIOD, &GPIO_InitStruct);
 815:Core/Src/stm32f7xx_hal_msp.c **** 
 816:Core/Src/stm32f7xx_hal_msp.c ****   /* USER CODE BEGIN QUADSPI_MspInit 1 */
 817:Core/Src/stm32f7xx_hal_msp.c **** 
 818:Core/Src/stm32f7xx_hal_msp.c ****   /* USER CODE END QUADSPI_MspInit 1 */
 819:Core/Src/stm32f7xx_hal_msp.c ****   }
 820:Core/Src/stm32f7xx_hal_msp.c **** 
 821:Core/Src/stm32f7xx_hal_msp.c **** }
 822:Core/Src/stm32f7xx_hal_msp.c **** 
 823:Core/Src/stm32f7xx_hal_msp.c **** /**
 824:Core/Src/stm32f7xx_hal_msp.c **** * @brief QSPI MSP De-Initialization
 825:Core/Src/stm32f7xx_hal_msp.c **** * This function freeze the hardware resources used in this example
 826:Core/Src/stm32f7xx_hal_msp.c **** * @param hqspi: QSPI handle pointer
 827:Core/Src/stm32f7xx_hal_msp.c **** * @retval None
 828:Core/Src/stm32f7xx_hal_msp.c **** */
 829:Core/Src/stm32f7xx_hal_msp.c **** void HAL_QSPI_MspDeInit(QSPI_HandleTypeDef* hqspi)
 830:Core/Src/stm32f7xx_hal_msp.c **** {
ARM GAS  /tmp/ccJDgDyU.s 			page 16


 831:Core/Src/stm32f7xx_hal_msp.c ****   if(hqspi->Instance==QUADSPI)
 832:Core/Src/stm32f7xx_hal_msp.c ****   {
 833:Core/Src/stm32f7xx_hal_msp.c ****   /* USER CODE BEGIN QUADSPI_MspDeInit 0 */
 834:Core/Src/stm32f7xx_hal_msp.c **** 
 835:Core/Src/stm32f7xx_hal_msp.c ****   /* USER CODE END QUADSPI_MspDeInit 0 */
 836:Core/Src/stm32f7xx_hal_msp.c ****     /* Peripheral clock disable */
 837:Core/Src/stm32f7xx_hal_msp.c ****     __HAL_RCC_QSPI_CLK_DISABLE();
 838:Core/Src/stm32f7xx_hal_msp.c ****   
 839:Core/Src/stm32f7xx_hal_msp.c ****     /**QUADSPI GPIO Configuration    
 840:Core/Src/stm32f7xx_hal_msp.c ****     PE2     ------> QUADSPI_BK1_IO2
 841:Core/Src/stm32f7xx_hal_msp.c ****     PB6     ------> QUADSPI_BK1_NCS
 842:Core/Src/stm32f7xx_hal_msp.c ****     PB2     ------> QUADSPI_CLK
 843:Core/Src/stm32f7xx_hal_msp.c ****     PD12     ------> QUADSPI_BK1_IO1
 844:Core/Src/stm32f7xx_hal_msp.c ****     PD13     ------> QUADSPI_BK1_IO3
 845:Core/Src/stm32f7xx_hal_msp.c ****     PD11     ------> QUADSPI_BK1_IO0 
 846:Core/Src/stm32f7xx_hal_msp.c ****     */
 847:Core/Src/stm32f7xx_hal_msp.c ****     HAL_GPIO_DeInit(QSPI_D2_GPIO_Port, QSPI_D2_Pin);
 848:Core/Src/stm32f7xx_hal_msp.c **** 
 849:Core/Src/stm32f7xx_hal_msp.c ****     HAL_GPIO_DeInit(GPIOB, QSPI_NCS_Pin|GPIO_PIN_2);
 850:Core/Src/stm32f7xx_hal_msp.c **** 
 851:Core/Src/stm32f7xx_hal_msp.c ****     HAL_GPIO_DeInit(GPIOD, QSPI_D1_Pin|QSPI_D3_Pin|QSPI_D0_Pin);
 852:Core/Src/stm32f7xx_hal_msp.c **** 
 853:Core/Src/stm32f7xx_hal_msp.c ****   /* USER CODE BEGIN QUADSPI_MspDeInit 1 */
 854:Core/Src/stm32f7xx_hal_msp.c **** 
 855:Core/Src/stm32f7xx_hal_msp.c ****   /* USER CODE END QUADSPI_MspDeInit 1 */
 856:Core/Src/stm32f7xx_hal_msp.c ****   }
 857:Core/Src/stm32f7xx_hal_msp.c **** 
 858:Core/Src/stm32f7xx_hal_msp.c **** }
 859:Core/Src/stm32f7xx_hal_msp.c **** 
 860:Core/Src/stm32f7xx_hal_msp.c **** /**
 861:Core/Src/stm32f7xx_hal_msp.c **** * @brief RTC MSP Initialization
 862:Core/Src/stm32f7xx_hal_msp.c **** * This function configures the hardware resources used in this example
 863:Core/Src/stm32f7xx_hal_msp.c **** * @param hrtc: RTC handle pointer
 864:Core/Src/stm32f7xx_hal_msp.c **** * @retval None
 865:Core/Src/stm32f7xx_hal_msp.c **** */
 866:Core/Src/stm32f7xx_hal_msp.c **** void HAL_RTC_MspInit(RTC_HandleTypeDef* hrtc)
 867:Core/Src/stm32f7xx_hal_msp.c **** {
 868:Core/Src/stm32f7xx_hal_msp.c ****   if(hrtc->Instance==RTC)
 869:Core/Src/stm32f7xx_hal_msp.c ****   {
 870:Core/Src/stm32f7xx_hal_msp.c ****   /* USER CODE BEGIN RTC_MspInit 0 */
 871:Core/Src/stm32f7xx_hal_msp.c **** 
 872:Core/Src/stm32f7xx_hal_msp.c ****   /* USER CODE END RTC_MspInit 0 */
 873:Core/Src/stm32f7xx_hal_msp.c ****     /* Peripheral clock enable */
 874:Core/Src/stm32f7xx_hal_msp.c ****     __HAL_RCC_RTC_ENABLE();
 875:Core/Src/stm32f7xx_hal_msp.c ****   /* USER CODE BEGIN RTC_MspInit 1 */
 876:Core/Src/stm32f7xx_hal_msp.c **** 
 877:Core/Src/stm32f7xx_hal_msp.c ****   /* USER CODE END RTC_MspInit 1 */
 878:Core/Src/stm32f7xx_hal_msp.c ****   }
 879:Core/Src/stm32f7xx_hal_msp.c **** 
 880:Core/Src/stm32f7xx_hal_msp.c **** }
 881:Core/Src/stm32f7xx_hal_msp.c **** 
 882:Core/Src/stm32f7xx_hal_msp.c **** /**
 883:Core/Src/stm32f7xx_hal_msp.c **** * @brief RTC MSP De-Initialization
 884:Core/Src/stm32f7xx_hal_msp.c **** * This function freeze the hardware resources used in this example
 885:Core/Src/stm32f7xx_hal_msp.c **** * @param hrtc: RTC handle pointer
 886:Core/Src/stm32f7xx_hal_msp.c **** * @retval None
 887:Core/Src/stm32f7xx_hal_msp.c **** */
ARM GAS  /tmp/ccJDgDyU.s 			page 17


 888:Core/Src/stm32f7xx_hal_msp.c **** void HAL_RTC_MspDeInit(RTC_HandleTypeDef* hrtc)
 889:Core/Src/stm32f7xx_hal_msp.c **** {
 890:Core/Src/stm32f7xx_hal_msp.c ****   if(hrtc->Instance==RTC)
 891:Core/Src/stm32f7xx_hal_msp.c ****   {
 892:Core/Src/stm32f7xx_hal_msp.c ****   /* USER CODE BEGIN RTC_MspDeInit 0 */
 893:Core/Src/stm32f7xx_hal_msp.c **** 
 894:Core/Src/stm32f7xx_hal_msp.c ****   /* USER CODE END RTC_MspDeInit 0 */
 895:Core/Src/stm32f7xx_hal_msp.c ****     /* Peripheral clock disable */
 896:Core/Src/stm32f7xx_hal_msp.c ****     __HAL_RCC_RTC_DISABLE();
 897:Core/Src/stm32f7xx_hal_msp.c ****   /* USER CODE BEGIN RTC_MspDeInit 1 */
 898:Core/Src/stm32f7xx_hal_msp.c **** 
 899:Core/Src/stm32f7xx_hal_msp.c ****   /* USER CODE END RTC_MspDeInit 1 */
 900:Core/Src/stm32f7xx_hal_msp.c ****   }
 901:Core/Src/stm32f7xx_hal_msp.c **** 
 902:Core/Src/stm32f7xx_hal_msp.c **** }
 903:Core/Src/stm32f7xx_hal_msp.c **** 
 904:Core/Src/stm32f7xx_hal_msp.c **** /**
 905:Core/Src/stm32f7xx_hal_msp.c **** * @brief SD MSP Initialization
 906:Core/Src/stm32f7xx_hal_msp.c **** * This function configures the hardware resources used in this example
 907:Core/Src/stm32f7xx_hal_msp.c **** * @param hsd: SD handle pointer
 908:Core/Src/stm32f7xx_hal_msp.c **** * @retval None
 909:Core/Src/stm32f7xx_hal_msp.c **** */
 910:Core/Src/stm32f7xx_hal_msp.c **** void HAL_SD_MspInit(SD_HandleTypeDef* hsd)
 911:Core/Src/stm32f7xx_hal_msp.c **** {
 912:Core/Src/stm32f7xx_hal_msp.c ****   GPIO_InitTypeDef GPIO_InitStruct = {0};
 913:Core/Src/stm32f7xx_hal_msp.c ****   if(hsd->Instance==SDMMC1)
 914:Core/Src/stm32f7xx_hal_msp.c ****   {
 915:Core/Src/stm32f7xx_hal_msp.c ****   /* USER CODE BEGIN SDMMC1_MspInit 0 */
 916:Core/Src/stm32f7xx_hal_msp.c **** 
 917:Core/Src/stm32f7xx_hal_msp.c ****   /* USER CODE END SDMMC1_MspInit 0 */
 918:Core/Src/stm32f7xx_hal_msp.c ****     /* Peripheral clock enable */
 919:Core/Src/stm32f7xx_hal_msp.c ****     __HAL_RCC_SDMMC1_CLK_ENABLE();
 920:Core/Src/stm32f7xx_hal_msp.c ****   
 921:Core/Src/stm32f7xx_hal_msp.c ****     __HAL_RCC_GPIOC_CLK_ENABLE();
 922:Core/Src/stm32f7xx_hal_msp.c ****     __HAL_RCC_GPIOD_CLK_ENABLE();
 923:Core/Src/stm32f7xx_hal_msp.c ****     /**SDMMC1 GPIO Configuration    
 924:Core/Src/stm32f7xx_hal_msp.c ****     PC12     ------> SDMMC1_CK
 925:Core/Src/stm32f7xx_hal_msp.c ****     PC11     ------> SDMMC1_D3
 926:Core/Src/stm32f7xx_hal_msp.c ****     PC10     ------> SDMMC1_D2
 927:Core/Src/stm32f7xx_hal_msp.c ****     PD2     ------> SDMMC1_CMD
 928:Core/Src/stm32f7xx_hal_msp.c ****     PC9     ------> SDMMC1_D1
 929:Core/Src/stm32f7xx_hal_msp.c ****     PC8     ------> SDMMC1_D0 
 930:Core/Src/stm32f7xx_hal_msp.c ****     */
 931:Core/Src/stm32f7xx_hal_msp.c ****     GPIO_InitStruct.Pin = SDMMC_CK_Pin|SDMMC_D3_Pin|SDMMC_D2_Pin|GPIO_PIN_9 
 932:Core/Src/stm32f7xx_hal_msp.c ****                           |GPIO_PIN_8;
 933:Core/Src/stm32f7xx_hal_msp.c ****     GPIO_InitStruct.Mode = GPIO_MODE_AF_PP;
 934:Core/Src/stm32f7xx_hal_msp.c ****     GPIO_InitStruct.Pull = GPIO_NOPULL;
 935:Core/Src/stm32f7xx_hal_msp.c ****     GPIO_InitStruct.Speed = GPIO_SPEED_FREQ_VERY_HIGH;
 936:Core/Src/stm32f7xx_hal_msp.c ****     GPIO_InitStruct.Alternate = GPIO_AF12_SDMMC1;
 937:Core/Src/stm32f7xx_hal_msp.c ****     HAL_GPIO_Init(GPIOC, &GPIO_InitStruct);
 938:Core/Src/stm32f7xx_hal_msp.c **** 
 939:Core/Src/stm32f7xx_hal_msp.c ****     GPIO_InitStruct.Pin = SDMMC_CMD_Pin;
 940:Core/Src/stm32f7xx_hal_msp.c ****     GPIO_InitStruct.Mode = GPIO_MODE_AF_PP;
 941:Core/Src/stm32f7xx_hal_msp.c ****     GPIO_InitStruct.Pull = GPIO_NOPULL;
 942:Core/Src/stm32f7xx_hal_msp.c ****     GPIO_InitStruct.Speed = GPIO_SPEED_FREQ_VERY_HIGH;
 943:Core/Src/stm32f7xx_hal_msp.c ****     GPIO_InitStruct.Alternate = GPIO_AF12_SDMMC1;
 944:Core/Src/stm32f7xx_hal_msp.c ****     HAL_GPIO_Init(SDMMC_CMD_GPIO_Port, &GPIO_InitStruct);
ARM GAS  /tmp/ccJDgDyU.s 			page 18


 945:Core/Src/stm32f7xx_hal_msp.c **** 
 946:Core/Src/stm32f7xx_hal_msp.c ****   /* USER CODE BEGIN SDMMC1_MspInit 1 */
 947:Core/Src/stm32f7xx_hal_msp.c **** 
 948:Core/Src/stm32f7xx_hal_msp.c ****   /* USER CODE END SDMMC1_MspInit 1 */
 949:Core/Src/stm32f7xx_hal_msp.c ****   }
 950:Core/Src/stm32f7xx_hal_msp.c **** 
 951:Core/Src/stm32f7xx_hal_msp.c **** }
 952:Core/Src/stm32f7xx_hal_msp.c **** 
 953:Core/Src/stm32f7xx_hal_msp.c **** /**
 954:Core/Src/stm32f7xx_hal_msp.c **** * @brief SD MSP De-Initialization
 955:Core/Src/stm32f7xx_hal_msp.c **** * This function freeze the hardware resources used in this example
 956:Core/Src/stm32f7xx_hal_msp.c **** * @param hsd: SD handle pointer
 957:Core/Src/stm32f7xx_hal_msp.c **** * @retval None
 958:Core/Src/stm32f7xx_hal_msp.c **** */
 959:Core/Src/stm32f7xx_hal_msp.c **** void HAL_SD_MspDeInit(SD_HandleTypeDef* hsd)
 960:Core/Src/stm32f7xx_hal_msp.c **** {
 961:Core/Src/stm32f7xx_hal_msp.c ****   if(hsd->Instance==SDMMC1)
 962:Core/Src/stm32f7xx_hal_msp.c ****   {
 963:Core/Src/stm32f7xx_hal_msp.c ****   /* USER CODE BEGIN SDMMC1_MspDeInit 0 */
 964:Core/Src/stm32f7xx_hal_msp.c **** 
 965:Core/Src/stm32f7xx_hal_msp.c ****   /* USER CODE END SDMMC1_MspDeInit 0 */
 966:Core/Src/stm32f7xx_hal_msp.c ****     /* Peripheral clock disable */
 967:Core/Src/stm32f7xx_hal_msp.c ****     __HAL_RCC_SDMMC1_CLK_DISABLE();
 968:Core/Src/stm32f7xx_hal_msp.c ****   
 969:Core/Src/stm32f7xx_hal_msp.c ****     /**SDMMC1 GPIO Configuration    
 970:Core/Src/stm32f7xx_hal_msp.c ****     PC12     ------> SDMMC1_CK
 971:Core/Src/stm32f7xx_hal_msp.c ****     PC11     ------> SDMMC1_D3
 972:Core/Src/stm32f7xx_hal_msp.c ****     PC10     ------> SDMMC1_D2
 973:Core/Src/stm32f7xx_hal_msp.c ****     PD2     ------> SDMMC1_CMD
 974:Core/Src/stm32f7xx_hal_msp.c ****     PC9     ------> SDMMC1_D1
 975:Core/Src/stm32f7xx_hal_msp.c ****     PC8     ------> SDMMC1_D0 
 976:Core/Src/stm32f7xx_hal_msp.c ****     */
 977:Core/Src/stm32f7xx_hal_msp.c ****     HAL_GPIO_DeInit(GPIOC, SDMMC_CK_Pin|SDMMC_D3_Pin|SDMMC_D2_Pin|GPIO_PIN_9 
 978:Core/Src/stm32f7xx_hal_msp.c ****                           |GPIO_PIN_8);
 979:Core/Src/stm32f7xx_hal_msp.c **** 
 980:Core/Src/stm32f7xx_hal_msp.c ****     HAL_GPIO_DeInit(SDMMC_CMD_GPIO_Port, SDMMC_CMD_Pin);
 981:Core/Src/stm32f7xx_hal_msp.c **** 
 982:Core/Src/stm32f7xx_hal_msp.c ****   /* USER CODE BEGIN SDMMC1_MspDeInit 1 */
 983:Core/Src/stm32f7xx_hal_msp.c **** 
 984:Core/Src/stm32f7xx_hal_msp.c ****   /* USER CODE END SDMMC1_MspDeInit 1 */
 985:Core/Src/stm32f7xx_hal_msp.c ****   }
 986:Core/Src/stm32f7xx_hal_msp.c **** 
 987:Core/Src/stm32f7xx_hal_msp.c **** }
 988:Core/Src/stm32f7xx_hal_msp.c **** 
 989:Core/Src/stm32f7xx_hal_msp.c **** /**
 990:Core/Src/stm32f7xx_hal_msp.c **** * @brief SPDIFRX MSP Initialization
 991:Core/Src/stm32f7xx_hal_msp.c **** * This function configures the hardware resources used in this example
 992:Core/Src/stm32f7xx_hal_msp.c **** * @param hspdifrx: SPDIFRX handle pointer
 993:Core/Src/stm32f7xx_hal_msp.c **** * @retval None
 994:Core/Src/stm32f7xx_hal_msp.c **** */
 995:Core/Src/stm32f7xx_hal_msp.c **** void HAL_SPDIFRX_MspInit(SPDIFRX_HandleTypeDef* hspdifrx)
 996:Core/Src/stm32f7xx_hal_msp.c **** {
 997:Core/Src/stm32f7xx_hal_msp.c ****   GPIO_InitTypeDef GPIO_InitStruct = {0};
 998:Core/Src/stm32f7xx_hal_msp.c ****   if(hspdifrx->Instance==SPDIFRX)
 999:Core/Src/stm32f7xx_hal_msp.c ****   {
1000:Core/Src/stm32f7xx_hal_msp.c ****   /* USER CODE BEGIN SPDIFRX_MspInit 0 */
1001:Core/Src/stm32f7xx_hal_msp.c **** 
ARM GAS  /tmp/ccJDgDyU.s 			page 19


1002:Core/Src/stm32f7xx_hal_msp.c ****   /* USER CODE END SPDIFRX_MspInit 0 */
1003:Core/Src/stm32f7xx_hal_msp.c ****     /* Peripheral clock enable */
1004:Core/Src/stm32f7xx_hal_msp.c ****     __HAL_RCC_SPDIFRX_CLK_ENABLE();
1005:Core/Src/stm32f7xx_hal_msp.c ****   
1006:Core/Src/stm32f7xx_hal_msp.c ****     __HAL_RCC_GPIOD_CLK_ENABLE();
1007:Core/Src/stm32f7xx_hal_msp.c ****     /**SPDIFRX GPIO Configuration    
1008:Core/Src/stm32f7xx_hal_msp.c ****     PD7     ------> SPDIFRX_IN0 
1009:Core/Src/stm32f7xx_hal_msp.c ****     */
1010:Core/Src/stm32f7xx_hal_msp.c ****     GPIO_InitStruct.Pin = SPDIF_RX0_Pin;
1011:Core/Src/stm32f7xx_hal_msp.c ****     GPIO_InitStruct.Mode = GPIO_MODE_AF_PP;
1012:Core/Src/stm32f7xx_hal_msp.c ****     GPIO_InitStruct.Pull = GPIO_NOPULL;
1013:Core/Src/stm32f7xx_hal_msp.c ****     GPIO_InitStruct.Speed = GPIO_SPEED_FREQ_LOW;
1014:Core/Src/stm32f7xx_hal_msp.c ****     GPIO_InitStruct.Alternate = GPIO_AF8_SPDIFRX;
1015:Core/Src/stm32f7xx_hal_msp.c ****     HAL_GPIO_Init(SPDIF_RX0_GPIO_Port, &GPIO_InitStruct);
1016:Core/Src/stm32f7xx_hal_msp.c **** 
1017:Core/Src/stm32f7xx_hal_msp.c ****   /* USER CODE BEGIN SPDIFRX_MspInit 1 */
1018:Core/Src/stm32f7xx_hal_msp.c **** 
1019:Core/Src/stm32f7xx_hal_msp.c ****   /* USER CODE END SPDIFRX_MspInit 1 */
1020:Core/Src/stm32f7xx_hal_msp.c ****   }
1021:Core/Src/stm32f7xx_hal_msp.c **** 
1022:Core/Src/stm32f7xx_hal_msp.c **** }
1023:Core/Src/stm32f7xx_hal_msp.c **** 
1024:Core/Src/stm32f7xx_hal_msp.c **** /**
1025:Core/Src/stm32f7xx_hal_msp.c **** * @brief SPDIFRX MSP De-Initialization
1026:Core/Src/stm32f7xx_hal_msp.c **** * This function freeze the hardware resources used in this example
1027:Core/Src/stm32f7xx_hal_msp.c **** * @param hspdifrx: SPDIFRX handle pointer
1028:Core/Src/stm32f7xx_hal_msp.c **** * @retval None
1029:Core/Src/stm32f7xx_hal_msp.c **** */
1030:Core/Src/stm32f7xx_hal_msp.c **** void HAL_SPDIFRX_MspDeInit(SPDIFRX_HandleTypeDef* hspdifrx)
1031:Core/Src/stm32f7xx_hal_msp.c **** {
1032:Core/Src/stm32f7xx_hal_msp.c ****   if(hspdifrx->Instance==SPDIFRX)
1033:Core/Src/stm32f7xx_hal_msp.c ****   {
1034:Core/Src/stm32f7xx_hal_msp.c ****   /* USER CODE BEGIN SPDIFRX_MspDeInit 0 */
1035:Core/Src/stm32f7xx_hal_msp.c **** 
1036:Core/Src/stm32f7xx_hal_msp.c ****   /* USER CODE END SPDIFRX_MspDeInit 0 */
1037:Core/Src/stm32f7xx_hal_msp.c ****     /* Peripheral clock disable */
1038:Core/Src/stm32f7xx_hal_msp.c ****     __HAL_RCC_SPDIFRX_CLK_DISABLE();
1039:Core/Src/stm32f7xx_hal_msp.c ****   
1040:Core/Src/stm32f7xx_hal_msp.c ****     /**SPDIFRX GPIO Configuration    
1041:Core/Src/stm32f7xx_hal_msp.c ****     PD7     ------> SPDIFRX_IN0 
1042:Core/Src/stm32f7xx_hal_msp.c ****     */
1043:Core/Src/stm32f7xx_hal_msp.c ****     HAL_GPIO_DeInit(SPDIF_RX0_GPIO_Port, SPDIF_RX0_Pin);
1044:Core/Src/stm32f7xx_hal_msp.c **** 
1045:Core/Src/stm32f7xx_hal_msp.c ****   /* USER CODE BEGIN SPDIFRX_MspDeInit 1 */
1046:Core/Src/stm32f7xx_hal_msp.c **** 
1047:Core/Src/stm32f7xx_hal_msp.c ****   /* USER CODE END SPDIFRX_MspDeInit 1 */
1048:Core/Src/stm32f7xx_hal_msp.c ****   }
1049:Core/Src/stm32f7xx_hal_msp.c **** 
1050:Core/Src/stm32f7xx_hal_msp.c **** }
1051:Core/Src/stm32f7xx_hal_msp.c **** 
1052:Core/Src/stm32f7xx_hal_msp.c **** /**
1053:Core/Src/stm32f7xx_hal_msp.c **** * @brief SPI MSP Initialization
1054:Core/Src/stm32f7xx_hal_msp.c **** * This function configures the hardware resources used in this example
1055:Core/Src/stm32f7xx_hal_msp.c **** * @param hspi: SPI handle pointer
1056:Core/Src/stm32f7xx_hal_msp.c **** * @retval None
1057:Core/Src/stm32f7xx_hal_msp.c **** */
1058:Core/Src/stm32f7xx_hal_msp.c **** void HAL_SPI_MspInit(SPI_HandleTypeDef* hspi)
ARM GAS  /tmp/ccJDgDyU.s 			page 20


1059:Core/Src/stm32f7xx_hal_msp.c **** {
1060:Core/Src/stm32f7xx_hal_msp.c ****   GPIO_InitTypeDef GPIO_InitStruct = {0};
1061:Core/Src/stm32f7xx_hal_msp.c ****   if(hspi->Instance==SPI2)
1062:Core/Src/stm32f7xx_hal_msp.c ****   {
1063:Core/Src/stm32f7xx_hal_msp.c ****   /* USER CODE BEGIN SPI2_MspInit 0 */
1064:Core/Src/stm32f7xx_hal_msp.c **** 
1065:Core/Src/stm32f7xx_hal_msp.c ****   /* USER CODE END SPI2_MspInit 0 */
1066:Core/Src/stm32f7xx_hal_msp.c ****     /* Peripheral clock enable */
1067:Core/Src/stm32f7xx_hal_msp.c ****     __HAL_RCC_SPI2_CLK_ENABLE();
1068:Core/Src/stm32f7xx_hal_msp.c ****   
1069:Core/Src/stm32f7xx_hal_msp.c ****     __HAL_RCC_GPIOI_CLK_ENABLE();
1070:Core/Src/stm32f7xx_hal_msp.c ****     __HAL_RCC_GPIOB_CLK_ENABLE();
1071:Core/Src/stm32f7xx_hal_msp.c ****     /**SPI2 GPIO Configuration    
1072:Core/Src/stm32f7xx_hal_msp.c ****     PI1     ------> SPI2_SCK
1073:Core/Src/stm32f7xx_hal_msp.c ****     PB14     ------> SPI2_MISO
1074:Core/Src/stm32f7xx_hal_msp.c ****     PB15     ------> SPI2_MOSI 
1075:Core/Src/stm32f7xx_hal_msp.c ****     */
1076:Core/Src/stm32f7xx_hal_msp.c ****     GPIO_InitStruct.Pin = ARDUINO_SCK_D13_Pin;
1077:Core/Src/stm32f7xx_hal_msp.c ****     GPIO_InitStruct.Mode = GPIO_MODE_AF_PP;
1078:Core/Src/stm32f7xx_hal_msp.c ****     GPIO_InitStruct.Pull = GPIO_NOPULL;
1079:Core/Src/stm32f7xx_hal_msp.c ****     GPIO_InitStruct.Speed = GPIO_SPEED_FREQ_LOW;
1080:Core/Src/stm32f7xx_hal_msp.c ****     GPIO_InitStruct.Alternate = GPIO_AF5_SPI2;
1081:Core/Src/stm32f7xx_hal_msp.c ****     HAL_GPIO_Init(ARDUINO_SCK_D13_GPIO_Port, &GPIO_InitStruct);
1082:Core/Src/stm32f7xx_hal_msp.c **** 
1083:Core/Src/stm32f7xx_hal_msp.c ****     GPIO_InitStruct.Pin = ARDUINO_MISO_D12_Pin|ARDUINO_MOSI_PWM_D11_Pin;
1084:Core/Src/stm32f7xx_hal_msp.c ****     GPIO_InitStruct.Mode = GPIO_MODE_AF_PP;
1085:Core/Src/stm32f7xx_hal_msp.c ****     GPIO_InitStruct.Pull = GPIO_NOPULL;
1086:Core/Src/stm32f7xx_hal_msp.c ****     GPIO_InitStruct.Speed = GPIO_SPEED_FREQ_LOW;
1087:Core/Src/stm32f7xx_hal_msp.c ****     GPIO_InitStruct.Alternate = GPIO_AF5_SPI2;
1088:Core/Src/stm32f7xx_hal_msp.c ****     HAL_GPIO_Init(GPIOB, &GPIO_InitStruct);
1089:Core/Src/stm32f7xx_hal_msp.c **** 
1090:Core/Src/stm32f7xx_hal_msp.c ****   /* USER CODE BEGIN SPI2_MspInit 1 */
1091:Core/Src/stm32f7xx_hal_msp.c **** 
1092:Core/Src/stm32f7xx_hal_msp.c ****   /* USER CODE END SPI2_MspInit 1 */
1093:Core/Src/stm32f7xx_hal_msp.c ****   }
1094:Core/Src/stm32f7xx_hal_msp.c **** 
1095:Core/Src/stm32f7xx_hal_msp.c **** }
1096:Core/Src/stm32f7xx_hal_msp.c **** 
1097:Core/Src/stm32f7xx_hal_msp.c **** /**
1098:Core/Src/stm32f7xx_hal_msp.c **** * @brief SPI MSP De-Initialization
1099:Core/Src/stm32f7xx_hal_msp.c **** * This function freeze the hardware resources used in this example
1100:Core/Src/stm32f7xx_hal_msp.c **** * @param hspi: SPI handle pointer
1101:Core/Src/stm32f7xx_hal_msp.c **** * @retval None
1102:Core/Src/stm32f7xx_hal_msp.c **** */
1103:Core/Src/stm32f7xx_hal_msp.c **** void HAL_SPI_MspDeInit(SPI_HandleTypeDef* hspi)
1104:Core/Src/stm32f7xx_hal_msp.c **** {
1105:Core/Src/stm32f7xx_hal_msp.c ****   if(hspi->Instance==SPI2)
1106:Core/Src/stm32f7xx_hal_msp.c ****   {
1107:Core/Src/stm32f7xx_hal_msp.c ****   /* USER CODE BEGIN SPI2_MspDeInit 0 */
1108:Core/Src/stm32f7xx_hal_msp.c **** 
1109:Core/Src/stm32f7xx_hal_msp.c ****   /* USER CODE END SPI2_MspDeInit 0 */
1110:Core/Src/stm32f7xx_hal_msp.c ****     /* Peripheral clock disable */
1111:Core/Src/stm32f7xx_hal_msp.c ****     __HAL_RCC_SPI2_CLK_DISABLE();
1112:Core/Src/stm32f7xx_hal_msp.c ****   
1113:Core/Src/stm32f7xx_hal_msp.c ****     /**SPI2 GPIO Configuration    
1114:Core/Src/stm32f7xx_hal_msp.c ****     PI1     ------> SPI2_SCK
1115:Core/Src/stm32f7xx_hal_msp.c ****     PB14     ------> SPI2_MISO
ARM GAS  /tmp/ccJDgDyU.s 			page 21


1116:Core/Src/stm32f7xx_hal_msp.c ****     PB15     ------> SPI2_MOSI 
1117:Core/Src/stm32f7xx_hal_msp.c ****     */
1118:Core/Src/stm32f7xx_hal_msp.c ****     HAL_GPIO_DeInit(ARDUINO_SCK_D13_GPIO_Port, ARDUINO_SCK_D13_Pin);
1119:Core/Src/stm32f7xx_hal_msp.c **** 
1120:Core/Src/stm32f7xx_hal_msp.c ****     HAL_GPIO_DeInit(GPIOB, ARDUINO_MISO_D12_Pin|ARDUINO_MOSI_PWM_D11_Pin);
1121:Core/Src/stm32f7xx_hal_msp.c **** 
1122:Core/Src/stm32f7xx_hal_msp.c ****   /* USER CODE BEGIN SPI2_MspDeInit 1 */
1123:Core/Src/stm32f7xx_hal_msp.c **** 
1124:Core/Src/stm32f7xx_hal_msp.c ****   /* USER CODE END SPI2_MspDeInit 1 */
1125:Core/Src/stm32f7xx_hal_msp.c ****   }
1126:Core/Src/stm32f7xx_hal_msp.c **** 
1127:Core/Src/stm32f7xx_hal_msp.c **** }
1128:Core/Src/stm32f7xx_hal_msp.c **** 
1129:Core/Src/stm32f7xx_hal_msp.c **** /**
1130:Core/Src/stm32f7xx_hal_msp.c **** * @brief TIM_Base MSP Initialization
1131:Core/Src/stm32f7xx_hal_msp.c **** * This function configures the hardware resources used in this example
1132:Core/Src/stm32f7xx_hal_msp.c **** * @param htim_base: TIM_Base handle pointer
1133:Core/Src/stm32f7xx_hal_msp.c **** * @retval None
1134:Core/Src/stm32f7xx_hal_msp.c **** */
1135:Core/Src/stm32f7xx_hal_msp.c **** void HAL_TIM_Base_MspInit(TIM_HandleTypeDef* htim_base)
1136:Core/Src/stm32f7xx_hal_msp.c **** {
1137:Core/Src/stm32f7xx_hal_msp.c ****   if(htim_base->Instance==TIM1)
1138:Core/Src/stm32f7xx_hal_msp.c ****   {
1139:Core/Src/stm32f7xx_hal_msp.c ****   /* USER CODE BEGIN TIM1_MspInit 0 */
1140:Core/Src/stm32f7xx_hal_msp.c **** 
1141:Core/Src/stm32f7xx_hal_msp.c ****   /* USER CODE END TIM1_MspInit 0 */
1142:Core/Src/stm32f7xx_hal_msp.c ****     /* Peripheral clock enable */
1143:Core/Src/stm32f7xx_hal_msp.c ****     __HAL_RCC_TIM1_CLK_ENABLE();
1144:Core/Src/stm32f7xx_hal_msp.c ****   /* USER CODE BEGIN TIM1_MspInit 1 */
1145:Core/Src/stm32f7xx_hal_msp.c **** 
1146:Core/Src/stm32f7xx_hal_msp.c ****   /* USER CODE END TIM1_MspInit 1 */
1147:Core/Src/stm32f7xx_hal_msp.c ****   }
1148:Core/Src/stm32f7xx_hal_msp.c ****   else if(htim_base->Instance==TIM2)
1149:Core/Src/stm32f7xx_hal_msp.c ****   {
1150:Core/Src/stm32f7xx_hal_msp.c ****   /* USER CODE BEGIN TIM2_MspInit 0 */
1151:Core/Src/stm32f7xx_hal_msp.c **** 
1152:Core/Src/stm32f7xx_hal_msp.c ****   /* USER CODE END TIM2_MspInit 0 */
1153:Core/Src/stm32f7xx_hal_msp.c ****     /* Peripheral clock enable */
1154:Core/Src/stm32f7xx_hal_msp.c ****     __HAL_RCC_TIM2_CLK_ENABLE();
1155:Core/Src/stm32f7xx_hal_msp.c ****   /* USER CODE BEGIN TIM2_MspInit 1 */
1156:Core/Src/stm32f7xx_hal_msp.c **** 
1157:Core/Src/stm32f7xx_hal_msp.c ****   /* USER CODE END TIM2_MspInit 1 */
1158:Core/Src/stm32f7xx_hal_msp.c ****   }
1159:Core/Src/stm32f7xx_hal_msp.c ****   else if(htim_base->Instance==TIM3)
1160:Core/Src/stm32f7xx_hal_msp.c ****   {
1161:Core/Src/stm32f7xx_hal_msp.c ****   /* USER CODE BEGIN TIM3_MspInit 0 */
1162:Core/Src/stm32f7xx_hal_msp.c **** 
1163:Core/Src/stm32f7xx_hal_msp.c ****   /* USER CODE END TIM3_MspInit 0 */
1164:Core/Src/stm32f7xx_hal_msp.c ****     /* Peripheral clock enable */
1165:Core/Src/stm32f7xx_hal_msp.c ****     __HAL_RCC_TIM3_CLK_ENABLE();
1166:Core/Src/stm32f7xx_hal_msp.c ****   /* USER CODE BEGIN TIM3_MspInit 1 */
1167:Core/Src/stm32f7xx_hal_msp.c **** 
1168:Core/Src/stm32f7xx_hal_msp.c ****   /* USER CODE END TIM3_MspInit 1 */
1169:Core/Src/stm32f7xx_hal_msp.c ****   }
1170:Core/Src/stm32f7xx_hal_msp.c ****   else if(htim_base->Instance==TIM5)
1171:Core/Src/stm32f7xx_hal_msp.c ****   {
1172:Core/Src/stm32f7xx_hal_msp.c ****   /* USER CODE BEGIN TIM5_MspInit 0 */
ARM GAS  /tmp/ccJDgDyU.s 			page 22


1173:Core/Src/stm32f7xx_hal_msp.c **** 
1174:Core/Src/stm32f7xx_hal_msp.c ****   /* USER CODE END TIM5_MspInit 0 */
1175:Core/Src/stm32f7xx_hal_msp.c ****     /* Peripheral clock enable */
1176:Core/Src/stm32f7xx_hal_msp.c ****     __HAL_RCC_TIM5_CLK_ENABLE();
1177:Core/Src/stm32f7xx_hal_msp.c ****   /* USER CODE BEGIN TIM5_MspInit 1 */
1178:Core/Src/stm32f7xx_hal_msp.c **** 
1179:Core/Src/stm32f7xx_hal_msp.c ****   /* USER CODE END TIM5_MspInit 1 */
1180:Core/Src/stm32f7xx_hal_msp.c ****   }
1181:Core/Src/stm32f7xx_hal_msp.c ****   else if(htim_base->Instance==TIM8)
1182:Core/Src/stm32f7xx_hal_msp.c ****   {
1183:Core/Src/stm32f7xx_hal_msp.c ****   /* USER CODE BEGIN TIM8_MspInit 0 */
1184:Core/Src/stm32f7xx_hal_msp.c **** 
1185:Core/Src/stm32f7xx_hal_msp.c ****   /* USER CODE END TIM8_MspInit 0 */
1186:Core/Src/stm32f7xx_hal_msp.c ****     /* Peripheral clock enable */
1187:Core/Src/stm32f7xx_hal_msp.c ****     __HAL_RCC_TIM8_CLK_ENABLE();
1188:Core/Src/stm32f7xx_hal_msp.c ****   /* USER CODE BEGIN TIM8_MspInit 1 */
1189:Core/Src/stm32f7xx_hal_msp.c **** 
1190:Core/Src/stm32f7xx_hal_msp.c ****   /* USER CODE END TIM8_MspInit 1 */
1191:Core/Src/stm32f7xx_hal_msp.c ****   }
1192:Core/Src/stm32f7xx_hal_msp.c **** 
1193:Core/Src/stm32f7xx_hal_msp.c **** }
1194:Core/Src/stm32f7xx_hal_msp.c **** 
1195:Core/Src/stm32f7xx_hal_msp.c **** /**
1196:Core/Src/stm32f7xx_hal_msp.c **** * @brief TIM_PWM MSP Initialization
1197:Core/Src/stm32f7xx_hal_msp.c **** * This function configures the hardware resources used in this example
1198:Core/Src/stm32f7xx_hal_msp.c **** * @param htim_pwm: TIM_PWM handle pointer
1199:Core/Src/stm32f7xx_hal_msp.c **** * @retval None
1200:Core/Src/stm32f7xx_hal_msp.c **** */
1201:Core/Src/stm32f7xx_hal_msp.c **** void HAL_TIM_PWM_MspInit(TIM_HandleTypeDef* htim_pwm)
1202:Core/Src/stm32f7xx_hal_msp.c **** {
1203:Core/Src/stm32f7xx_hal_msp.c ****   if(htim_pwm->Instance==TIM12)
1204:Core/Src/stm32f7xx_hal_msp.c ****   {
1205:Core/Src/stm32f7xx_hal_msp.c ****   /* USER CODE BEGIN TIM12_MspInit 0 */
1206:Core/Src/stm32f7xx_hal_msp.c **** 
1207:Core/Src/stm32f7xx_hal_msp.c ****   /* USER CODE END TIM12_MspInit 0 */
1208:Core/Src/stm32f7xx_hal_msp.c ****     /* Peripheral clock enable */
1209:Core/Src/stm32f7xx_hal_msp.c ****     __HAL_RCC_TIM12_CLK_ENABLE();
1210:Core/Src/stm32f7xx_hal_msp.c ****   /* USER CODE BEGIN TIM12_MspInit 1 */
1211:Core/Src/stm32f7xx_hal_msp.c **** 
1212:Core/Src/stm32f7xx_hal_msp.c ****   /* USER CODE END TIM12_MspInit 1 */
1213:Core/Src/stm32f7xx_hal_msp.c ****   }
1214:Core/Src/stm32f7xx_hal_msp.c **** 
1215:Core/Src/stm32f7xx_hal_msp.c **** }
1216:Core/Src/stm32f7xx_hal_msp.c **** 
1217:Core/Src/stm32f7xx_hal_msp.c **** void HAL_TIM_MspPostInit(TIM_HandleTypeDef* htim)
1218:Core/Src/stm32f7xx_hal_msp.c **** {
1219:Core/Src/stm32f7xx_hal_msp.c ****   GPIO_InitTypeDef GPIO_InitStruct = {0};
1220:Core/Src/stm32f7xx_hal_msp.c ****   if(htim->Instance==TIM1)
1221:Core/Src/stm32f7xx_hal_msp.c ****   {
1222:Core/Src/stm32f7xx_hal_msp.c ****   /* USER CODE BEGIN TIM1_MspPostInit 0 */
1223:Core/Src/stm32f7xx_hal_msp.c **** 
1224:Core/Src/stm32f7xx_hal_msp.c ****   /* USER CODE END TIM1_MspPostInit 0 */
1225:Core/Src/stm32f7xx_hal_msp.c ****     __HAL_RCC_GPIOA_CLK_ENABLE();
1226:Core/Src/stm32f7xx_hal_msp.c ****     /**TIM1 GPIO Configuration    
1227:Core/Src/stm32f7xx_hal_msp.c ****     PA8     ------> TIM1_CH1 
1228:Core/Src/stm32f7xx_hal_msp.c ****     */
1229:Core/Src/stm32f7xx_hal_msp.c ****     GPIO_InitStruct.Pin = ARDUINO_PWM_D10_Pin;
ARM GAS  /tmp/ccJDgDyU.s 			page 23


1230:Core/Src/stm32f7xx_hal_msp.c ****     GPIO_InitStruct.Mode = GPIO_MODE_AF_PP;
1231:Core/Src/stm32f7xx_hal_msp.c ****     GPIO_InitStruct.Pull = GPIO_NOPULL;
1232:Core/Src/stm32f7xx_hal_msp.c ****     GPIO_InitStruct.Speed = GPIO_SPEED_FREQ_LOW;
1233:Core/Src/stm32f7xx_hal_msp.c ****     GPIO_InitStruct.Alternate = GPIO_AF1_TIM1;
1234:Core/Src/stm32f7xx_hal_msp.c ****     HAL_GPIO_Init(ARDUINO_PWM_D10_GPIO_Port, &GPIO_InitStruct);
1235:Core/Src/stm32f7xx_hal_msp.c **** 
1236:Core/Src/stm32f7xx_hal_msp.c ****   /* USER CODE BEGIN TIM1_MspPostInit 1 */
1237:Core/Src/stm32f7xx_hal_msp.c **** 
1238:Core/Src/stm32f7xx_hal_msp.c ****   /* USER CODE END TIM1_MspPostInit 1 */
1239:Core/Src/stm32f7xx_hal_msp.c ****   }
1240:Core/Src/stm32f7xx_hal_msp.c ****   else if(htim->Instance==TIM2)
1241:Core/Src/stm32f7xx_hal_msp.c ****   {
1242:Core/Src/stm32f7xx_hal_msp.c ****   /* USER CODE BEGIN TIM2_MspPostInit 0 */
1243:Core/Src/stm32f7xx_hal_msp.c **** 
1244:Core/Src/stm32f7xx_hal_msp.c ****   /* USER CODE END TIM2_MspPostInit 0 */
1245:Core/Src/stm32f7xx_hal_msp.c ****   
1246:Core/Src/stm32f7xx_hal_msp.c ****     __HAL_RCC_GPIOA_CLK_ENABLE();
1247:Core/Src/stm32f7xx_hal_msp.c ****     /**TIM2 GPIO Configuration    
1248:Core/Src/stm32f7xx_hal_msp.c ****     PA15     ------> TIM2_CH1 
1249:Core/Src/stm32f7xx_hal_msp.c ****     */
1250:Core/Src/stm32f7xx_hal_msp.c ****     GPIO_InitStruct.Pin = ARDUINO_PWM_D9_Pin;
1251:Core/Src/stm32f7xx_hal_msp.c ****     GPIO_InitStruct.Mode = GPIO_MODE_AF_PP;
1252:Core/Src/stm32f7xx_hal_msp.c ****     GPIO_InitStruct.Pull = GPIO_NOPULL;
1253:Core/Src/stm32f7xx_hal_msp.c ****     GPIO_InitStruct.Speed = GPIO_SPEED_FREQ_LOW;
1254:Core/Src/stm32f7xx_hal_msp.c ****     GPIO_InitStruct.Alternate = GPIO_AF1_TIM2;
1255:Core/Src/stm32f7xx_hal_msp.c ****     HAL_GPIO_Init(ARDUINO_PWM_D9_GPIO_Port, &GPIO_InitStruct);
1256:Core/Src/stm32f7xx_hal_msp.c **** 
1257:Core/Src/stm32f7xx_hal_msp.c ****   /* USER CODE BEGIN TIM2_MspPostInit 1 */
1258:Core/Src/stm32f7xx_hal_msp.c **** 
1259:Core/Src/stm32f7xx_hal_msp.c ****   /* USER CODE END TIM2_MspPostInit 1 */
1260:Core/Src/stm32f7xx_hal_msp.c ****   }
1261:Core/Src/stm32f7xx_hal_msp.c ****   else if(htim->Instance==TIM3)
1262:Core/Src/stm32f7xx_hal_msp.c ****   {
1263:Core/Src/stm32f7xx_hal_msp.c ****   /* USER CODE BEGIN TIM3_MspPostInit 0 */
1264:Core/Src/stm32f7xx_hal_msp.c **** 
1265:Core/Src/stm32f7xx_hal_msp.c ****   /* USER CODE END TIM3_MspPostInit 0 */
1266:Core/Src/stm32f7xx_hal_msp.c ****   
1267:Core/Src/stm32f7xx_hal_msp.c ****     __HAL_RCC_GPIOB_CLK_ENABLE();
1268:Core/Src/stm32f7xx_hal_msp.c ****     /**TIM3 GPIO Configuration    
1269:Core/Src/stm32f7xx_hal_msp.c ****     PB4     ------> TIM3_CH1 
1270:Core/Src/stm32f7xx_hal_msp.c ****     */
1271:Core/Src/stm32f7xx_hal_msp.c ****     GPIO_InitStruct.Pin = ARDUINO_PWM_D3_Pin;
1272:Core/Src/stm32f7xx_hal_msp.c ****     GPIO_InitStruct.Mode = GPIO_MODE_AF_PP;
1273:Core/Src/stm32f7xx_hal_msp.c ****     GPIO_InitStruct.Pull = GPIO_NOPULL;
1274:Core/Src/stm32f7xx_hal_msp.c ****     GPIO_InitStruct.Speed = GPIO_SPEED_FREQ_LOW;
1275:Core/Src/stm32f7xx_hal_msp.c ****     GPIO_InitStruct.Alternate = GPIO_AF2_TIM3;
1276:Core/Src/stm32f7xx_hal_msp.c ****     HAL_GPIO_Init(ARDUINO_PWM_D3_GPIO_Port, &GPIO_InitStruct);
1277:Core/Src/stm32f7xx_hal_msp.c **** 
1278:Core/Src/stm32f7xx_hal_msp.c ****   /* USER CODE BEGIN TIM3_MspPostInit 1 */
1279:Core/Src/stm32f7xx_hal_msp.c **** 
1280:Core/Src/stm32f7xx_hal_msp.c ****   /* USER CODE END TIM3_MspPostInit 1 */
1281:Core/Src/stm32f7xx_hal_msp.c ****   }
1282:Core/Src/stm32f7xx_hal_msp.c ****   else if(htim->Instance==TIM5)
1283:Core/Src/stm32f7xx_hal_msp.c ****   {
1284:Core/Src/stm32f7xx_hal_msp.c ****   /* USER CODE BEGIN TIM5_MspPostInit 0 */
1285:Core/Src/stm32f7xx_hal_msp.c **** 
1286:Core/Src/stm32f7xx_hal_msp.c ****   /* USER CODE END TIM5_MspPostInit 0 */
ARM GAS  /tmp/ccJDgDyU.s 			page 24


1287:Core/Src/stm32f7xx_hal_msp.c ****   
1288:Core/Src/stm32f7xx_hal_msp.c ****     __HAL_RCC_GPIOI_CLK_ENABLE();
1289:Core/Src/stm32f7xx_hal_msp.c ****     /**TIM5 GPIO Configuration    
1290:Core/Src/stm32f7xx_hal_msp.c ****     PI0     ------> TIM5_CH4 
1291:Core/Src/stm32f7xx_hal_msp.c ****     */
1292:Core/Src/stm32f7xx_hal_msp.c ****     GPIO_InitStruct.Pin = ARDUINO_PWM_CS_D5_Pin;
1293:Core/Src/stm32f7xx_hal_msp.c ****     GPIO_InitStruct.Mode = GPIO_MODE_AF_PP;
1294:Core/Src/stm32f7xx_hal_msp.c ****     GPIO_InitStruct.Pull = GPIO_NOPULL;
1295:Core/Src/stm32f7xx_hal_msp.c ****     GPIO_InitStruct.Speed = GPIO_SPEED_FREQ_LOW;
1296:Core/Src/stm32f7xx_hal_msp.c ****     GPIO_InitStruct.Alternate = GPIO_AF2_TIM5;
1297:Core/Src/stm32f7xx_hal_msp.c ****     HAL_GPIO_Init(ARDUINO_PWM_CS_D5_GPIO_Port, &GPIO_InitStruct);
1298:Core/Src/stm32f7xx_hal_msp.c **** 
1299:Core/Src/stm32f7xx_hal_msp.c ****   /* USER CODE BEGIN TIM5_MspPostInit 1 */
1300:Core/Src/stm32f7xx_hal_msp.c **** 
1301:Core/Src/stm32f7xx_hal_msp.c ****   /* USER CODE END TIM5_MspPostInit 1 */
1302:Core/Src/stm32f7xx_hal_msp.c ****   }
1303:Core/Src/stm32f7xx_hal_msp.c ****   else if(htim->Instance==TIM12)
1304:Core/Src/stm32f7xx_hal_msp.c ****   {
1305:Core/Src/stm32f7xx_hal_msp.c ****   /* USER CODE BEGIN TIM12_MspPostInit 0 */
1306:Core/Src/stm32f7xx_hal_msp.c **** 
1307:Core/Src/stm32f7xx_hal_msp.c ****   /* USER CODE END TIM12_MspPostInit 0 */
1308:Core/Src/stm32f7xx_hal_msp.c ****   
1309:Core/Src/stm32f7xx_hal_msp.c ****     __HAL_RCC_GPIOH_CLK_ENABLE();
1310:Core/Src/stm32f7xx_hal_msp.c ****     /**TIM12 GPIO Configuration    
1311:Core/Src/stm32f7xx_hal_msp.c ****     PH6     ------> TIM12_CH1 
1312:Core/Src/stm32f7xx_hal_msp.c ****     */
1313:Core/Src/stm32f7xx_hal_msp.c ****     GPIO_InitStruct.Pin = ARDUINO_PWM_D6_Pin;
1314:Core/Src/stm32f7xx_hal_msp.c ****     GPIO_InitStruct.Mode = GPIO_MODE_AF_PP;
1315:Core/Src/stm32f7xx_hal_msp.c ****     GPIO_InitStruct.Pull = GPIO_NOPULL;
1316:Core/Src/stm32f7xx_hal_msp.c ****     GPIO_InitStruct.Speed = GPIO_SPEED_FREQ_LOW;
1317:Core/Src/stm32f7xx_hal_msp.c ****     GPIO_InitStruct.Alternate = GPIO_AF9_TIM12;
1318:Core/Src/stm32f7xx_hal_msp.c ****     HAL_GPIO_Init(ARDUINO_PWM_D6_GPIO_Port, &GPIO_InitStruct);
1319:Core/Src/stm32f7xx_hal_msp.c **** 
1320:Core/Src/stm32f7xx_hal_msp.c ****   /* USER CODE BEGIN TIM12_MspPostInit 1 */
1321:Core/Src/stm32f7xx_hal_msp.c **** 
1322:Core/Src/stm32f7xx_hal_msp.c ****   /* USER CODE END TIM12_MspPostInit 1 */
1323:Core/Src/stm32f7xx_hal_msp.c ****   }
1324:Core/Src/stm32f7xx_hal_msp.c **** 
1325:Core/Src/stm32f7xx_hal_msp.c **** }
1326:Core/Src/stm32f7xx_hal_msp.c **** /**
1327:Core/Src/stm32f7xx_hal_msp.c **** * @brief TIM_Base MSP De-Initialization
1328:Core/Src/stm32f7xx_hal_msp.c **** * This function freeze the hardware resources used in this example
1329:Core/Src/stm32f7xx_hal_msp.c **** * @param htim_base: TIM_Base handle pointer
1330:Core/Src/stm32f7xx_hal_msp.c **** * @retval None
1331:Core/Src/stm32f7xx_hal_msp.c **** */
1332:Core/Src/stm32f7xx_hal_msp.c **** void HAL_TIM_Base_MspDeInit(TIM_HandleTypeDef* htim_base)
1333:Core/Src/stm32f7xx_hal_msp.c **** {
1334:Core/Src/stm32f7xx_hal_msp.c ****   if(htim_base->Instance==TIM1)
1335:Core/Src/stm32f7xx_hal_msp.c ****   {
1336:Core/Src/stm32f7xx_hal_msp.c ****   /* USER CODE BEGIN TIM1_MspDeInit 0 */
1337:Core/Src/stm32f7xx_hal_msp.c **** 
1338:Core/Src/stm32f7xx_hal_msp.c ****   /* USER CODE END TIM1_MspDeInit 0 */
1339:Core/Src/stm32f7xx_hal_msp.c ****     /* Peripheral clock disable */
1340:Core/Src/stm32f7xx_hal_msp.c ****     __HAL_RCC_TIM1_CLK_DISABLE();
1341:Core/Src/stm32f7xx_hal_msp.c ****   /* USER CODE BEGIN TIM1_MspDeInit 1 */
1342:Core/Src/stm32f7xx_hal_msp.c **** 
1343:Core/Src/stm32f7xx_hal_msp.c ****   /* USER CODE END TIM1_MspDeInit 1 */
ARM GAS  /tmp/ccJDgDyU.s 			page 25


1344:Core/Src/stm32f7xx_hal_msp.c ****   }
1345:Core/Src/stm32f7xx_hal_msp.c ****   else if(htim_base->Instance==TIM2)
1346:Core/Src/stm32f7xx_hal_msp.c ****   {
1347:Core/Src/stm32f7xx_hal_msp.c ****   /* USER CODE BEGIN TIM2_MspDeInit 0 */
1348:Core/Src/stm32f7xx_hal_msp.c **** 
1349:Core/Src/stm32f7xx_hal_msp.c ****   /* USER CODE END TIM2_MspDeInit 0 */
1350:Core/Src/stm32f7xx_hal_msp.c ****     /* Peripheral clock disable */
1351:Core/Src/stm32f7xx_hal_msp.c ****     __HAL_RCC_TIM2_CLK_DISABLE();
1352:Core/Src/stm32f7xx_hal_msp.c ****   /* USER CODE BEGIN TIM2_MspDeInit 1 */
1353:Core/Src/stm32f7xx_hal_msp.c **** 
1354:Core/Src/stm32f7xx_hal_msp.c ****   /* USER CODE END TIM2_MspDeInit 1 */
1355:Core/Src/stm32f7xx_hal_msp.c ****   }
1356:Core/Src/stm32f7xx_hal_msp.c ****   else if(htim_base->Instance==TIM3)
1357:Core/Src/stm32f7xx_hal_msp.c ****   {
1358:Core/Src/stm32f7xx_hal_msp.c ****   /* USER CODE BEGIN TIM3_MspDeInit 0 */
1359:Core/Src/stm32f7xx_hal_msp.c **** 
1360:Core/Src/stm32f7xx_hal_msp.c ****   /* USER CODE END TIM3_MspDeInit 0 */
1361:Core/Src/stm32f7xx_hal_msp.c ****     /* Peripheral clock disable */
1362:Core/Src/stm32f7xx_hal_msp.c ****     __HAL_RCC_TIM3_CLK_DISABLE();
1363:Core/Src/stm32f7xx_hal_msp.c ****   /* USER CODE BEGIN TIM3_MspDeInit 1 */
1364:Core/Src/stm32f7xx_hal_msp.c **** 
1365:Core/Src/stm32f7xx_hal_msp.c ****   /* USER CODE END TIM3_MspDeInit 1 */
1366:Core/Src/stm32f7xx_hal_msp.c ****   }
1367:Core/Src/stm32f7xx_hal_msp.c ****   else if(htim_base->Instance==TIM5)
1368:Core/Src/stm32f7xx_hal_msp.c ****   {
1369:Core/Src/stm32f7xx_hal_msp.c ****   /* USER CODE BEGIN TIM5_MspDeInit 0 */
1370:Core/Src/stm32f7xx_hal_msp.c **** 
1371:Core/Src/stm32f7xx_hal_msp.c ****   /* USER CODE END TIM5_MspDeInit 0 */
1372:Core/Src/stm32f7xx_hal_msp.c ****     /* Peripheral clock disable */
1373:Core/Src/stm32f7xx_hal_msp.c ****     __HAL_RCC_TIM5_CLK_DISABLE();
1374:Core/Src/stm32f7xx_hal_msp.c ****   /* USER CODE BEGIN TIM5_MspDeInit 1 */
1375:Core/Src/stm32f7xx_hal_msp.c **** 
1376:Core/Src/stm32f7xx_hal_msp.c ****   /* USER CODE END TIM5_MspDeInit 1 */
1377:Core/Src/stm32f7xx_hal_msp.c ****   }
1378:Core/Src/stm32f7xx_hal_msp.c ****   else if(htim_base->Instance==TIM8)
1379:Core/Src/stm32f7xx_hal_msp.c ****   {
1380:Core/Src/stm32f7xx_hal_msp.c ****   /* USER CODE BEGIN TIM8_MspDeInit 0 */
1381:Core/Src/stm32f7xx_hal_msp.c **** 
1382:Core/Src/stm32f7xx_hal_msp.c ****   /* USER CODE END TIM8_MspDeInit 0 */
1383:Core/Src/stm32f7xx_hal_msp.c ****     /* Peripheral clock disable */
1384:Core/Src/stm32f7xx_hal_msp.c ****     __HAL_RCC_TIM8_CLK_DISABLE();
1385:Core/Src/stm32f7xx_hal_msp.c ****   /* USER CODE BEGIN TIM8_MspDeInit 1 */
1386:Core/Src/stm32f7xx_hal_msp.c **** 
1387:Core/Src/stm32f7xx_hal_msp.c ****   /* USER CODE END TIM8_MspDeInit 1 */
1388:Core/Src/stm32f7xx_hal_msp.c ****   }
1389:Core/Src/stm32f7xx_hal_msp.c **** 
1390:Core/Src/stm32f7xx_hal_msp.c **** }
1391:Core/Src/stm32f7xx_hal_msp.c **** 
1392:Core/Src/stm32f7xx_hal_msp.c **** /**
1393:Core/Src/stm32f7xx_hal_msp.c **** * @brief TIM_PWM MSP De-Initialization
1394:Core/Src/stm32f7xx_hal_msp.c **** * This function freeze the hardware resources used in this example
1395:Core/Src/stm32f7xx_hal_msp.c **** * @param htim_pwm: TIM_PWM handle pointer
1396:Core/Src/stm32f7xx_hal_msp.c **** * @retval None
1397:Core/Src/stm32f7xx_hal_msp.c **** */
1398:Core/Src/stm32f7xx_hal_msp.c **** void HAL_TIM_PWM_MspDeInit(TIM_HandleTypeDef* htim_pwm)
1399:Core/Src/stm32f7xx_hal_msp.c **** {
1400:Core/Src/stm32f7xx_hal_msp.c ****   if(htim_pwm->Instance==TIM12)
ARM GAS  /tmp/ccJDgDyU.s 			page 26


1401:Core/Src/stm32f7xx_hal_msp.c ****   {
1402:Core/Src/stm32f7xx_hal_msp.c ****   /* USER CODE BEGIN TIM12_MspDeInit 0 */
1403:Core/Src/stm32f7xx_hal_msp.c **** 
1404:Core/Src/stm32f7xx_hal_msp.c ****   /* USER CODE END TIM12_MspDeInit 0 */
1405:Core/Src/stm32f7xx_hal_msp.c ****     /* Peripheral clock disable */
1406:Core/Src/stm32f7xx_hal_msp.c ****     __HAL_RCC_TIM12_CLK_DISABLE();
1407:Core/Src/stm32f7xx_hal_msp.c ****   /* USER CODE BEGIN TIM12_MspDeInit 1 */
1408:Core/Src/stm32f7xx_hal_msp.c **** 
1409:Core/Src/stm32f7xx_hal_msp.c ****   /* USER CODE END TIM12_MspDeInit 1 */
1410:Core/Src/stm32f7xx_hal_msp.c ****   }
1411:Core/Src/stm32f7xx_hal_msp.c **** 
1412:Core/Src/stm32f7xx_hal_msp.c **** }
1413:Core/Src/stm32f7xx_hal_msp.c **** 
1414:Core/Src/stm32f7xx_hal_msp.c **** /**
1415:Core/Src/stm32f7xx_hal_msp.c **** * @brief UART MSP Initialization
1416:Core/Src/stm32f7xx_hal_msp.c **** * This function configures the hardware resources used in this example
1417:Core/Src/stm32f7xx_hal_msp.c **** * @param huart: UART handle pointer
1418:Core/Src/stm32f7xx_hal_msp.c **** * @retval None
1419:Core/Src/stm32f7xx_hal_msp.c **** */
1420:Core/Src/stm32f7xx_hal_msp.c **** void HAL_UART_MspInit(UART_HandleTypeDef* huart)
1421:Core/Src/stm32f7xx_hal_msp.c **** {
1422:Core/Src/stm32f7xx_hal_msp.c ****   GPIO_InitTypeDef GPIO_InitStruct = {0};
1423:Core/Src/stm32f7xx_hal_msp.c ****   if(huart->Instance==USART1)
1424:Core/Src/stm32f7xx_hal_msp.c ****   {
1425:Core/Src/stm32f7xx_hal_msp.c ****   /* USER CODE BEGIN USART1_MspInit 0 */
1426:Core/Src/stm32f7xx_hal_msp.c **** 
1427:Core/Src/stm32f7xx_hal_msp.c ****   /* USER CODE END USART1_MspInit 0 */
1428:Core/Src/stm32f7xx_hal_msp.c ****     /* Peripheral clock enable */
1429:Core/Src/stm32f7xx_hal_msp.c ****     __HAL_RCC_USART1_CLK_ENABLE();
1430:Core/Src/stm32f7xx_hal_msp.c ****   
1431:Core/Src/stm32f7xx_hal_msp.c ****     __HAL_RCC_GPIOB_CLK_ENABLE();
1432:Core/Src/stm32f7xx_hal_msp.c ****     __HAL_RCC_GPIOA_CLK_ENABLE();
1433:Core/Src/stm32f7xx_hal_msp.c ****     /**USART1 GPIO Configuration    
1434:Core/Src/stm32f7xx_hal_msp.c ****     PB7     ------> USART1_RX
1435:Core/Src/stm32f7xx_hal_msp.c ****     PA9     ------> USART1_TX 
1436:Core/Src/stm32f7xx_hal_msp.c ****     */
1437:Core/Src/stm32f7xx_hal_msp.c ****     GPIO_InitStruct.Pin = VCP_RX_Pin;
1438:Core/Src/stm32f7xx_hal_msp.c ****     GPIO_InitStruct.Mode = GPIO_MODE_AF_PP;
1439:Core/Src/stm32f7xx_hal_msp.c ****     GPIO_InitStruct.Pull = GPIO_NOPULL;
1440:Core/Src/stm32f7xx_hal_msp.c ****     GPIO_InitStruct.Speed = GPIO_SPEED_FREQ_LOW;
1441:Core/Src/stm32f7xx_hal_msp.c ****     GPIO_InitStruct.Alternate = GPIO_AF7_USART1;
1442:Core/Src/stm32f7xx_hal_msp.c ****     HAL_GPIO_Init(VCP_RX_GPIO_Port, &GPIO_InitStruct);
1443:Core/Src/stm32f7xx_hal_msp.c **** 
1444:Core/Src/stm32f7xx_hal_msp.c ****     GPIO_InitStruct.Pin = VCP_TX_Pin;
1445:Core/Src/stm32f7xx_hal_msp.c ****     GPIO_InitStruct.Mode = GPIO_MODE_AF_PP;
1446:Core/Src/stm32f7xx_hal_msp.c ****     GPIO_InitStruct.Pull = GPIO_NOPULL;
1447:Core/Src/stm32f7xx_hal_msp.c ****     GPIO_InitStruct.Speed = GPIO_SPEED_FREQ_LOW;
1448:Core/Src/stm32f7xx_hal_msp.c ****     GPIO_InitStruct.Alternate = GPIO_AF7_USART1;
1449:Core/Src/stm32f7xx_hal_msp.c ****     HAL_GPIO_Init(VCP_TX_GPIO_Port, &GPIO_InitStruct);
1450:Core/Src/stm32f7xx_hal_msp.c **** 
1451:Core/Src/stm32f7xx_hal_msp.c ****   /* USER CODE BEGIN USART1_MspInit 1 */
1452:Core/Src/stm32f7xx_hal_msp.c **** 
1453:Core/Src/stm32f7xx_hal_msp.c ****   /* USER CODE END USART1_MspInit 1 */
1454:Core/Src/stm32f7xx_hal_msp.c ****   }
1455:Core/Src/stm32f7xx_hal_msp.c ****   else if(huart->Instance==USART6)
1456:Core/Src/stm32f7xx_hal_msp.c ****   {
1457:Core/Src/stm32f7xx_hal_msp.c ****   /* USER CODE BEGIN USART6_MspInit 0 */
ARM GAS  /tmp/ccJDgDyU.s 			page 27


1458:Core/Src/stm32f7xx_hal_msp.c **** 
1459:Core/Src/stm32f7xx_hal_msp.c ****   /* USER CODE END USART6_MspInit 0 */
1460:Core/Src/stm32f7xx_hal_msp.c ****     /* Peripheral clock enable */
1461:Core/Src/stm32f7xx_hal_msp.c ****     __HAL_RCC_USART6_CLK_ENABLE();
1462:Core/Src/stm32f7xx_hal_msp.c ****   
1463:Core/Src/stm32f7xx_hal_msp.c ****     __HAL_RCC_GPIOC_CLK_ENABLE();
1464:Core/Src/stm32f7xx_hal_msp.c ****     /**USART6 GPIO Configuration    
1465:Core/Src/stm32f7xx_hal_msp.c ****     PC7     ------> USART6_RX
1466:Core/Src/stm32f7xx_hal_msp.c ****     PC6     ------> USART6_TX 
1467:Core/Src/stm32f7xx_hal_msp.c ****     */
1468:Core/Src/stm32f7xx_hal_msp.c ****     GPIO_InitStruct.Pin = ARDUINO_RX_D0_Pin|ARDUINO_TX_D1_Pin;
1469:Core/Src/stm32f7xx_hal_msp.c ****     GPIO_InitStruct.Mode = GPIO_MODE_AF_PP;
1470:Core/Src/stm32f7xx_hal_msp.c ****     GPIO_InitStruct.Pull = GPIO_NOPULL;
1471:Core/Src/stm32f7xx_hal_msp.c ****     GPIO_InitStruct.Speed = GPIO_SPEED_FREQ_VERY_HIGH;
1472:Core/Src/stm32f7xx_hal_msp.c ****     GPIO_InitStruct.Alternate = GPIO_AF8_USART6;
1473:Core/Src/stm32f7xx_hal_msp.c ****     HAL_GPIO_Init(GPIOC, &GPIO_InitStruct);
1474:Core/Src/stm32f7xx_hal_msp.c **** 
1475:Core/Src/stm32f7xx_hal_msp.c ****   /* USER CODE BEGIN USART6_MspInit 1 */
1476:Core/Src/stm32f7xx_hal_msp.c **** 
1477:Core/Src/stm32f7xx_hal_msp.c ****   /* USER CODE END USART6_MspInit 1 */
1478:Core/Src/stm32f7xx_hal_msp.c ****   }
1479:Core/Src/stm32f7xx_hal_msp.c **** 
1480:Core/Src/stm32f7xx_hal_msp.c **** }
1481:Core/Src/stm32f7xx_hal_msp.c **** 
1482:Core/Src/stm32f7xx_hal_msp.c **** /**
1483:Core/Src/stm32f7xx_hal_msp.c **** * @brief UART MSP De-Initialization
1484:Core/Src/stm32f7xx_hal_msp.c **** * This function freeze the hardware resources used in this example
1485:Core/Src/stm32f7xx_hal_msp.c **** * @param huart: UART handle pointer
1486:Core/Src/stm32f7xx_hal_msp.c **** * @retval None
1487:Core/Src/stm32f7xx_hal_msp.c **** */
1488:Core/Src/stm32f7xx_hal_msp.c **** void HAL_UART_MspDeInit(UART_HandleTypeDef* huart)
1489:Core/Src/stm32f7xx_hal_msp.c **** {
1490:Core/Src/stm32f7xx_hal_msp.c ****   if(huart->Instance==USART1)
1491:Core/Src/stm32f7xx_hal_msp.c ****   {
1492:Core/Src/stm32f7xx_hal_msp.c ****   /* USER CODE BEGIN USART1_MspDeInit 0 */
1493:Core/Src/stm32f7xx_hal_msp.c **** 
1494:Core/Src/stm32f7xx_hal_msp.c ****   /* USER CODE END USART1_MspDeInit 0 */
1495:Core/Src/stm32f7xx_hal_msp.c ****     /* Peripheral clock disable */
1496:Core/Src/stm32f7xx_hal_msp.c ****     __HAL_RCC_USART1_CLK_DISABLE();
1497:Core/Src/stm32f7xx_hal_msp.c ****   
1498:Core/Src/stm32f7xx_hal_msp.c ****     /**USART1 GPIO Configuration    
1499:Core/Src/stm32f7xx_hal_msp.c ****     PB7     ------> USART1_RX
1500:Core/Src/stm32f7xx_hal_msp.c ****     PA9     ------> USART1_TX 
1501:Core/Src/stm32f7xx_hal_msp.c ****     */
1502:Core/Src/stm32f7xx_hal_msp.c ****     HAL_GPIO_DeInit(VCP_RX_GPIO_Port, VCP_RX_Pin);
1503:Core/Src/stm32f7xx_hal_msp.c **** 
1504:Core/Src/stm32f7xx_hal_msp.c ****     HAL_GPIO_DeInit(VCP_TX_GPIO_Port, VCP_TX_Pin);
1505:Core/Src/stm32f7xx_hal_msp.c **** 
1506:Core/Src/stm32f7xx_hal_msp.c ****   /* USER CODE BEGIN USART1_MspDeInit 1 */
1507:Core/Src/stm32f7xx_hal_msp.c **** 
1508:Core/Src/stm32f7xx_hal_msp.c ****   /* USER CODE END USART1_MspDeInit 1 */
1509:Core/Src/stm32f7xx_hal_msp.c ****   }
1510:Core/Src/stm32f7xx_hal_msp.c ****   else if(huart->Instance==USART6)
1511:Core/Src/stm32f7xx_hal_msp.c ****   {
1512:Core/Src/stm32f7xx_hal_msp.c ****   /* USER CODE BEGIN USART6_MspDeInit 0 */
1513:Core/Src/stm32f7xx_hal_msp.c **** 
1514:Core/Src/stm32f7xx_hal_msp.c ****   /* USER CODE END USART6_MspDeInit 0 */
ARM GAS  /tmp/ccJDgDyU.s 			page 28


1515:Core/Src/stm32f7xx_hal_msp.c ****     /* Peripheral clock disable */
1516:Core/Src/stm32f7xx_hal_msp.c ****     __HAL_RCC_USART6_CLK_DISABLE();
1517:Core/Src/stm32f7xx_hal_msp.c ****   
1518:Core/Src/stm32f7xx_hal_msp.c ****     /**USART6 GPIO Configuration    
1519:Core/Src/stm32f7xx_hal_msp.c ****     PC7     ------> USART6_RX
1520:Core/Src/stm32f7xx_hal_msp.c ****     PC6     ------> USART6_TX 
1521:Core/Src/stm32f7xx_hal_msp.c ****     */
1522:Core/Src/stm32f7xx_hal_msp.c ****     HAL_GPIO_DeInit(GPIOC, ARDUINO_RX_D0_Pin|ARDUINO_TX_D1_Pin);
1523:Core/Src/stm32f7xx_hal_msp.c **** 
1524:Core/Src/stm32f7xx_hal_msp.c ****   /* USER CODE BEGIN USART6_MspDeInit 1 */
1525:Core/Src/stm32f7xx_hal_msp.c **** 
1526:Core/Src/stm32f7xx_hal_msp.c ****   /* USER CODE END USART6_MspDeInit 1 */
1527:Core/Src/stm32f7xx_hal_msp.c ****   }
1528:Core/Src/stm32f7xx_hal_msp.c **** 
1529:Core/Src/stm32f7xx_hal_msp.c **** }
1530:Core/Src/stm32f7xx_hal_msp.c **** 
1531:Core/Src/stm32f7xx_hal_msp.c **** static uint32_t FMC_Initialized = 0;
1532:Core/Src/stm32f7xx_hal_msp.c **** 
1533:Core/Src/stm32f7xx_hal_msp.c **** static void HAL_FMC_MspInit(void){
  27              		.loc 1 1533 0
  28              		.cfi_startproc
  29              		@ args = 0, pretend = 0, frame = 24
  30              		@ frame_needed = 0, uses_anonymous_args = 0
  31 0000 F0B5     		push	{r4, r5, r6, r7, lr}
  32              	.LCFI0:
  33              		.cfi_def_cfa_offset 20
  34              		.cfi_offset 4, -20
  35              		.cfi_offset 5, -16
  36              		.cfi_offset 6, -12
  37              		.cfi_offset 7, -8
  38              		.cfi_offset 14, -4
  39 0002 87B0     		sub	sp, sp, #28
  40              	.LCFI1:
  41              		.cfi_def_cfa_offset 48
1534:Core/Src/stm32f7xx_hal_msp.c ****   /* USER CODE BEGIN FMC_MspInit 0 */
1535:Core/Src/stm32f7xx_hal_msp.c **** 
1536:Core/Src/stm32f7xx_hal_msp.c ****   /* USER CODE END FMC_MspInit 0 */
1537:Core/Src/stm32f7xx_hal_msp.c ****   GPIO_InitTypeDef GPIO_InitStruct ={0};
  42              		.loc 1 1537 0
  43 0004 0023     		movs	r3, #0
  44 0006 0193     		str	r3, [sp, #4]
  45 0008 0293     		str	r3, [sp, #8]
  46 000a 0393     		str	r3, [sp, #12]
  47 000c 0493     		str	r3, [sp, #16]
  48 000e 0593     		str	r3, [sp, #20]
1538:Core/Src/stm32f7xx_hal_msp.c ****   if (FMC_Initialized) {
  49              		.loc 1 1538 0
  50 0010 2A4B     		ldr	r3, .L6
  51 0012 1B68     		ldr	r3, [r3]
  52 0014 0BB1     		cbz	r3, .L5
  53              	.L1:
1539:Core/Src/stm32f7xx_hal_msp.c ****     return;
1540:Core/Src/stm32f7xx_hal_msp.c ****   }
1541:Core/Src/stm32f7xx_hal_msp.c ****   FMC_Initialized = 1;
1542:Core/Src/stm32f7xx_hal_msp.c **** 
1543:Core/Src/stm32f7xx_hal_msp.c ****   /* Peripheral clock enable */
1544:Core/Src/stm32f7xx_hal_msp.c ****   __HAL_RCC_FMC_CLK_ENABLE();
ARM GAS  /tmp/ccJDgDyU.s 			page 29


1545:Core/Src/stm32f7xx_hal_msp.c ****   
1546:Core/Src/stm32f7xx_hal_msp.c ****   /** FMC GPIO Configuration  
1547:Core/Src/stm32f7xx_hal_msp.c ****   PE1   ------> FMC_NBL1
1548:Core/Src/stm32f7xx_hal_msp.c ****   PE0   ------> FMC_NBL0
1549:Core/Src/stm32f7xx_hal_msp.c ****   PG15   ------> FMC_SDNCAS
1550:Core/Src/stm32f7xx_hal_msp.c ****   PD0   ------> FMC_D2
1551:Core/Src/stm32f7xx_hal_msp.c ****   PD1   ------> FMC_D3
1552:Core/Src/stm32f7xx_hal_msp.c ****   PF0   ------> FMC_A0
1553:Core/Src/stm32f7xx_hal_msp.c ****   PF1   ------> FMC_A1
1554:Core/Src/stm32f7xx_hal_msp.c ****   PF2   ------> FMC_A2
1555:Core/Src/stm32f7xx_hal_msp.c ****   PF3   ------> FMC_A3
1556:Core/Src/stm32f7xx_hal_msp.c ****   PG8   ------> FMC_SDCLK
1557:Core/Src/stm32f7xx_hal_msp.c ****   PF4   ------> FMC_A4
1558:Core/Src/stm32f7xx_hal_msp.c ****   PH5   ------> FMC_SDNWE
1559:Core/Src/stm32f7xx_hal_msp.c ****   PH3   ------> FMC_SDNE0
1560:Core/Src/stm32f7xx_hal_msp.c ****   PF5   ------> FMC_A5
1561:Core/Src/stm32f7xx_hal_msp.c ****   PD15   ------> FMC_D1
1562:Core/Src/stm32f7xx_hal_msp.c ****   PD10   ------> FMC_D15
1563:Core/Src/stm32f7xx_hal_msp.c ****   PC3   ------> FMC_SDCKE0
1564:Core/Src/stm32f7xx_hal_msp.c ****   PD14   ------> FMC_D0
1565:Core/Src/stm32f7xx_hal_msp.c ****   PD9   ------> FMC_D14
1566:Core/Src/stm32f7xx_hal_msp.c ****   PD8   ------> FMC_D13
1567:Core/Src/stm32f7xx_hal_msp.c ****   PF12   ------> FMC_A6
1568:Core/Src/stm32f7xx_hal_msp.c ****   PG1   ------> FMC_A11
1569:Core/Src/stm32f7xx_hal_msp.c ****   PF15   ------> FMC_A9
1570:Core/Src/stm32f7xx_hal_msp.c ****   PF13   ------> FMC_A7
1571:Core/Src/stm32f7xx_hal_msp.c ****   PG0   ------> FMC_A10
1572:Core/Src/stm32f7xx_hal_msp.c ****   PE8   ------> FMC_D5
1573:Core/Src/stm32f7xx_hal_msp.c ****   PG5   ------> FMC_BA1
1574:Core/Src/stm32f7xx_hal_msp.c ****   PG4   ------> FMC_BA0
1575:Core/Src/stm32f7xx_hal_msp.c ****   PF14   ------> FMC_A8
1576:Core/Src/stm32f7xx_hal_msp.c ****   PF11   ------> FMC_SDNRAS
1577:Core/Src/stm32f7xx_hal_msp.c ****   PE9   ------> FMC_D6
1578:Core/Src/stm32f7xx_hal_msp.c ****   PE11   ------> FMC_D8
1579:Core/Src/stm32f7xx_hal_msp.c ****   PE14   ------> FMC_D11
1580:Core/Src/stm32f7xx_hal_msp.c ****   PE7   ------> FMC_D4
1581:Core/Src/stm32f7xx_hal_msp.c ****   PE10   ------> FMC_D7
1582:Core/Src/stm32f7xx_hal_msp.c ****   PE12   ------> FMC_D9
1583:Core/Src/stm32f7xx_hal_msp.c ****   PE15   ------> FMC_D12
1584:Core/Src/stm32f7xx_hal_msp.c ****   PE13   ------> FMC_D10
1585:Core/Src/stm32f7xx_hal_msp.c ****   */
1586:Core/Src/stm32f7xx_hal_msp.c ****   GPIO_InitStruct.Pin = FMC_NBL1_Pin|FMC_NBL0_Pin|FMC_D5_Pin|FMC_D6_Pin 
1587:Core/Src/stm32f7xx_hal_msp.c ****                           |FMC_D8_Pin|FMC_D11_Pin|FMC_D4_Pin|FMC_D7_Pin 
1588:Core/Src/stm32f7xx_hal_msp.c ****                           |FMC_D9_Pin|FMC_D12_Pin|FMC_D10_Pin;
1589:Core/Src/stm32f7xx_hal_msp.c ****   GPIO_InitStruct.Mode = GPIO_MODE_AF_PP;
1590:Core/Src/stm32f7xx_hal_msp.c ****   GPIO_InitStruct.Pull = GPIO_NOPULL;
1591:Core/Src/stm32f7xx_hal_msp.c ****   GPIO_InitStruct.Speed = GPIO_SPEED_FREQ_VERY_HIGH;
1592:Core/Src/stm32f7xx_hal_msp.c ****   GPIO_InitStruct.Alternate = GPIO_AF12_FMC;
1593:Core/Src/stm32f7xx_hal_msp.c ****   HAL_GPIO_Init(GPIOE, &GPIO_InitStruct);
1594:Core/Src/stm32f7xx_hal_msp.c **** 
1595:Core/Src/stm32f7xx_hal_msp.c ****   GPIO_InitStruct.Pin = FMC_SDNCAS_Pin|FMC_SDCLK_Pin|FMC_A11_Pin|FMC_A10_Pin 
1596:Core/Src/stm32f7xx_hal_msp.c ****                           |FMC_BA1_Pin|FMC_BA0_Pin;
1597:Core/Src/stm32f7xx_hal_msp.c ****   GPIO_InitStruct.Mode = GPIO_MODE_AF_PP;
1598:Core/Src/stm32f7xx_hal_msp.c ****   GPIO_InitStruct.Pull = GPIO_NOPULL;
1599:Core/Src/stm32f7xx_hal_msp.c ****   GPIO_InitStruct.Speed = GPIO_SPEED_FREQ_VERY_HIGH;
1600:Core/Src/stm32f7xx_hal_msp.c ****   GPIO_InitStruct.Alternate = GPIO_AF12_FMC;
1601:Core/Src/stm32f7xx_hal_msp.c ****   HAL_GPIO_Init(GPIOG, &GPIO_InitStruct);
ARM GAS  /tmp/ccJDgDyU.s 			page 30


1602:Core/Src/stm32f7xx_hal_msp.c **** 
1603:Core/Src/stm32f7xx_hal_msp.c ****   GPIO_InitStruct.Pin = FMC_D2_Pin|FMC_D3_Pin|FMC_D1_Pin|FMC_D15_Pin 
1604:Core/Src/stm32f7xx_hal_msp.c ****                           |FMC_D0_Pin|FMC_D14_Pin|FMC_D13_Pin;
1605:Core/Src/stm32f7xx_hal_msp.c ****   GPIO_InitStruct.Mode = GPIO_MODE_AF_PP;
1606:Core/Src/stm32f7xx_hal_msp.c ****   GPIO_InitStruct.Pull = GPIO_NOPULL;
1607:Core/Src/stm32f7xx_hal_msp.c ****   GPIO_InitStruct.Speed = GPIO_SPEED_FREQ_VERY_HIGH;
1608:Core/Src/stm32f7xx_hal_msp.c ****   GPIO_InitStruct.Alternate = GPIO_AF12_FMC;
1609:Core/Src/stm32f7xx_hal_msp.c ****   HAL_GPIO_Init(GPIOD, &GPIO_InitStruct);
1610:Core/Src/stm32f7xx_hal_msp.c **** 
1611:Core/Src/stm32f7xx_hal_msp.c ****   GPIO_InitStruct.Pin = FMC_A0_Pin|FMC_A1_Pin|FMC_A2_Pin|FMC_A3_Pin 
1612:Core/Src/stm32f7xx_hal_msp.c ****                           |FMC_A4_Pin|FMC_A5_Pin|FMC_A6_Pin|FMC_A9_Pin 
1613:Core/Src/stm32f7xx_hal_msp.c ****                           |FMC_A7_Pin|FMC_A8_Pin|FMC_SDNRAS_Pin;
1614:Core/Src/stm32f7xx_hal_msp.c ****   GPIO_InitStruct.Mode = GPIO_MODE_AF_PP;
1615:Core/Src/stm32f7xx_hal_msp.c ****   GPIO_InitStruct.Pull = GPIO_NOPULL;
1616:Core/Src/stm32f7xx_hal_msp.c ****   GPIO_InitStruct.Speed = GPIO_SPEED_FREQ_VERY_HIGH;
1617:Core/Src/stm32f7xx_hal_msp.c ****   GPIO_InitStruct.Alternate = GPIO_AF12_FMC;
1618:Core/Src/stm32f7xx_hal_msp.c ****   HAL_GPIO_Init(GPIOF, &GPIO_InitStruct);
1619:Core/Src/stm32f7xx_hal_msp.c **** 
1620:Core/Src/stm32f7xx_hal_msp.c ****   GPIO_InitStruct.Pin = FMC_SDNME_Pin|FMC_SDNE0_Pin;
1621:Core/Src/stm32f7xx_hal_msp.c ****   GPIO_InitStruct.Mode = GPIO_MODE_AF_PP;
1622:Core/Src/stm32f7xx_hal_msp.c ****   GPIO_InitStruct.Pull = GPIO_NOPULL;
1623:Core/Src/stm32f7xx_hal_msp.c ****   GPIO_InitStruct.Speed = GPIO_SPEED_FREQ_VERY_HIGH;
1624:Core/Src/stm32f7xx_hal_msp.c ****   GPIO_InitStruct.Alternate = GPIO_AF12_FMC;
1625:Core/Src/stm32f7xx_hal_msp.c ****   HAL_GPIO_Init(GPIOH, &GPIO_InitStruct);
1626:Core/Src/stm32f7xx_hal_msp.c **** 
1627:Core/Src/stm32f7xx_hal_msp.c ****   GPIO_InitStruct.Pin = FMC_SDCKE0_Pin;
1628:Core/Src/stm32f7xx_hal_msp.c ****   GPIO_InitStruct.Mode = GPIO_MODE_AF_PP;
1629:Core/Src/stm32f7xx_hal_msp.c ****   GPIO_InitStruct.Pull = GPIO_NOPULL;
1630:Core/Src/stm32f7xx_hal_msp.c ****   GPIO_InitStruct.Speed = GPIO_SPEED_FREQ_VERY_HIGH;
1631:Core/Src/stm32f7xx_hal_msp.c ****   GPIO_InitStruct.Alternate = GPIO_AF12_FMC;
1632:Core/Src/stm32f7xx_hal_msp.c ****   HAL_GPIO_Init(FMC_SDCKE0_GPIO_Port, &GPIO_InitStruct);
1633:Core/Src/stm32f7xx_hal_msp.c **** 
1634:Core/Src/stm32f7xx_hal_msp.c ****   /* USER CODE BEGIN FMC_MspInit 1 */
1635:Core/Src/stm32f7xx_hal_msp.c **** 
1636:Core/Src/stm32f7xx_hal_msp.c ****   /* USER CODE END FMC_MspInit 1 */
1637:Core/Src/stm32f7xx_hal_msp.c **** }
  54              		.loc 1 1637 0
  55 0016 07B0     		add	sp, sp, #28
  56              	.LCFI2:
  57              		.cfi_remember_state
  58              		.cfi_def_cfa_offset 20
  59              		@ sp needed
  60 0018 F0BD     		pop	{r4, r5, r6, r7, pc}
  61              	.L5:
  62              	.LCFI3:
  63              		.cfi_restore_state
1541:Core/Src/stm32f7xx_hal_msp.c **** 
  64              		.loc 1 1541 0
  65 001a 284B     		ldr	r3, .L6
  66 001c 0122     		movs	r2, #1
  67 001e 1A60     		str	r2, [r3]
  68              	.LBB2:
1544:Core/Src/stm32f7xx_hal_msp.c ****   
  69              		.loc 1 1544 0
  70 0020 274B     		ldr	r3, .L6+4
  71 0022 9A6B     		ldr	r2, [r3, #56]
  72 0024 42F00102 		orr	r2, r2, #1
ARM GAS  /tmp/ccJDgDyU.s 			page 31


  73 0028 9A63     		str	r2, [r3, #56]
  74 002a 9B6B     		ldr	r3, [r3, #56]
  75 002c 03F00103 		and	r3, r3, #1
  76 0030 0093     		str	r3, [sp]
  77 0032 009B     		ldr	r3, [sp]
  78              	.LBE2:
1586:Core/Src/stm32f7xx_hal_msp.c ****                           |FMC_D8_Pin|FMC_D11_Pin|FMC_D4_Pin|FMC_D7_Pin 
  79              		.loc 1 1586 0
  80 0034 4FF68373 		movw	r3, #65411
  81 0038 0193     		str	r3, [sp, #4]
1589:Core/Src/stm32f7xx_hal_msp.c ****   GPIO_InitStruct.Pull = GPIO_NOPULL;
  82              		.loc 1 1589 0
  83 003a 0226     		movs	r6, #2
  84 003c 0296     		str	r6, [sp, #8]
1591:Core/Src/stm32f7xx_hal_msp.c ****   GPIO_InitStruct.Alternate = GPIO_AF12_FMC;
  85              		.loc 1 1591 0
  86 003e 0325     		movs	r5, #3
  87 0040 0495     		str	r5, [sp, #16]
1592:Core/Src/stm32f7xx_hal_msp.c ****   HAL_GPIO_Init(GPIOE, &GPIO_InitStruct);
  88              		.loc 1 1592 0
  89 0042 0C24     		movs	r4, #12
  90 0044 0594     		str	r4, [sp, #20]
1593:Core/Src/stm32f7xx_hal_msp.c **** 
  91              		.loc 1 1593 0
  92 0046 01A9     		add	r1, sp, #4
  93 0048 1E48     		ldr	r0, .L6+8
  94 004a FFF7FEFF 		bl	HAL_GPIO_Init
  95              	.LVL0:
1595:Core/Src/stm32f7xx_hal_msp.c ****                           |FMC_BA1_Pin|FMC_BA0_Pin;
  96              		.loc 1 1595 0
  97 004e 48F23313 		movw	r3, #33075
  98 0052 0193     		str	r3, [sp, #4]
1597:Core/Src/stm32f7xx_hal_msp.c ****   GPIO_InitStruct.Pull = GPIO_NOPULL;
  99              		.loc 1 1597 0
 100 0054 0296     		str	r6, [sp, #8]
1598:Core/Src/stm32f7xx_hal_msp.c ****   GPIO_InitStruct.Speed = GPIO_SPEED_FREQ_VERY_HIGH;
 101              		.loc 1 1598 0
 102 0056 0027     		movs	r7, #0
 103 0058 0397     		str	r7, [sp, #12]
1599:Core/Src/stm32f7xx_hal_msp.c ****   GPIO_InitStruct.Alternate = GPIO_AF12_FMC;
 104              		.loc 1 1599 0
 105 005a 0495     		str	r5, [sp, #16]
1600:Core/Src/stm32f7xx_hal_msp.c ****   HAL_GPIO_Init(GPIOG, &GPIO_InitStruct);
 106              		.loc 1 1600 0
 107 005c 0594     		str	r4, [sp, #20]
1601:Core/Src/stm32f7xx_hal_msp.c **** 
 108              		.loc 1 1601 0
 109 005e 01A9     		add	r1, sp, #4
 110 0060 1948     		ldr	r0, .L6+12
 111 0062 FFF7FEFF 		bl	HAL_GPIO_Init
 112              	.LVL1:
1603:Core/Src/stm32f7xx_hal_msp.c ****                           |FMC_D0_Pin|FMC_D14_Pin|FMC_D13_Pin;
 113              		.loc 1 1603 0
 114 0066 4CF20373 		movw	r3, #50947
 115 006a 0193     		str	r3, [sp, #4]
1605:Core/Src/stm32f7xx_hal_msp.c ****   GPIO_InitStruct.Pull = GPIO_NOPULL;
 116              		.loc 1 1605 0
ARM GAS  /tmp/ccJDgDyU.s 			page 32


 117 006c 0296     		str	r6, [sp, #8]
1606:Core/Src/stm32f7xx_hal_msp.c ****   GPIO_InitStruct.Speed = GPIO_SPEED_FREQ_VERY_HIGH;
 118              		.loc 1 1606 0
 119 006e 0397     		str	r7, [sp, #12]
1607:Core/Src/stm32f7xx_hal_msp.c ****   GPIO_InitStruct.Alternate = GPIO_AF12_FMC;
 120              		.loc 1 1607 0
 121 0070 0495     		str	r5, [sp, #16]
1608:Core/Src/stm32f7xx_hal_msp.c ****   HAL_GPIO_Init(GPIOD, &GPIO_InitStruct);
 122              		.loc 1 1608 0
 123 0072 0594     		str	r4, [sp, #20]
1609:Core/Src/stm32f7xx_hal_msp.c **** 
 124              		.loc 1 1609 0
 125 0074 01A9     		add	r1, sp, #4
 126 0076 1548     		ldr	r0, .L6+16
 127 0078 FFF7FEFF 		bl	HAL_GPIO_Init
 128              	.LVL2:
1611:Core/Src/stm32f7xx_hal_msp.c ****                           |FMC_A4_Pin|FMC_A5_Pin|FMC_A6_Pin|FMC_A9_Pin 
 129              		.loc 1 1611 0
 130 007c 4FF63F03 		movw	r3, #63551
 131 0080 0193     		str	r3, [sp, #4]
1614:Core/Src/stm32f7xx_hal_msp.c ****   GPIO_InitStruct.Pull = GPIO_NOPULL;
 132              		.loc 1 1614 0
 133 0082 0296     		str	r6, [sp, #8]
1615:Core/Src/stm32f7xx_hal_msp.c ****   GPIO_InitStruct.Speed = GPIO_SPEED_FREQ_VERY_HIGH;
 134              		.loc 1 1615 0
 135 0084 0397     		str	r7, [sp, #12]
1616:Core/Src/stm32f7xx_hal_msp.c ****   GPIO_InitStruct.Alternate = GPIO_AF12_FMC;
 136              		.loc 1 1616 0
 137 0086 0495     		str	r5, [sp, #16]
1617:Core/Src/stm32f7xx_hal_msp.c ****   HAL_GPIO_Init(GPIOF, &GPIO_InitStruct);
 138              		.loc 1 1617 0
 139 0088 0594     		str	r4, [sp, #20]
1618:Core/Src/stm32f7xx_hal_msp.c **** 
 140              		.loc 1 1618 0
 141 008a 01A9     		add	r1, sp, #4
 142 008c 1048     		ldr	r0, .L6+20
 143 008e FFF7FEFF 		bl	HAL_GPIO_Init
 144              	.LVL3:
1620:Core/Src/stm32f7xx_hal_msp.c ****   GPIO_InitStruct.Mode = GPIO_MODE_AF_PP;
 145              		.loc 1 1620 0
 146 0092 2823     		movs	r3, #40
 147 0094 0193     		str	r3, [sp, #4]
1621:Core/Src/stm32f7xx_hal_msp.c ****   GPIO_InitStruct.Pull = GPIO_NOPULL;
 148              		.loc 1 1621 0
 149 0096 0296     		str	r6, [sp, #8]
1622:Core/Src/stm32f7xx_hal_msp.c ****   GPIO_InitStruct.Speed = GPIO_SPEED_FREQ_VERY_HIGH;
 150              		.loc 1 1622 0
 151 0098 0397     		str	r7, [sp, #12]
1623:Core/Src/stm32f7xx_hal_msp.c ****   GPIO_InitStruct.Alternate = GPIO_AF12_FMC;
 152              		.loc 1 1623 0
 153 009a 0495     		str	r5, [sp, #16]
1624:Core/Src/stm32f7xx_hal_msp.c ****   HAL_GPIO_Init(GPIOH, &GPIO_InitStruct);
 154              		.loc 1 1624 0
 155 009c 0594     		str	r4, [sp, #20]
1625:Core/Src/stm32f7xx_hal_msp.c **** 
 156              		.loc 1 1625 0
 157 009e 01A9     		add	r1, sp, #4
ARM GAS  /tmp/ccJDgDyU.s 			page 33


 158 00a0 0C48     		ldr	r0, .L6+24
 159 00a2 FFF7FEFF 		bl	HAL_GPIO_Init
 160              	.LVL4:
1627:Core/Src/stm32f7xx_hal_msp.c ****   GPIO_InitStruct.Mode = GPIO_MODE_AF_PP;
 161              		.loc 1 1627 0
 162 00a6 0823     		movs	r3, #8
 163 00a8 0193     		str	r3, [sp, #4]
1628:Core/Src/stm32f7xx_hal_msp.c ****   GPIO_InitStruct.Pull = GPIO_NOPULL;
 164              		.loc 1 1628 0
 165 00aa 0296     		str	r6, [sp, #8]
1629:Core/Src/stm32f7xx_hal_msp.c ****   GPIO_InitStruct.Speed = GPIO_SPEED_FREQ_VERY_HIGH;
 166              		.loc 1 1629 0
 167 00ac 0397     		str	r7, [sp, #12]
1630:Core/Src/stm32f7xx_hal_msp.c ****   GPIO_InitStruct.Alternate = GPIO_AF12_FMC;
 168              		.loc 1 1630 0
 169 00ae 0495     		str	r5, [sp, #16]
1631:Core/Src/stm32f7xx_hal_msp.c ****   HAL_GPIO_Init(FMC_SDCKE0_GPIO_Port, &GPIO_InitStruct);
 170              		.loc 1 1631 0
 171 00b0 0594     		str	r4, [sp, #20]
1632:Core/Src/stm32f7xx_hal_msp.c **** 
 172              		.loc 1 1632 0
 173 00b2 01A9     		add	r1, sp, #4
 174 00b4 0848     		ldr	r0, .L6+28
 175 00b6 FFF7FEFF 		bl	HAL_GPIO_Init
 176              	.LVL5:
 177 00ba ACE7     		b	.L1
 178              	.L7:
 179              		.align	2
 180              	.L6:
 181 00bc 00000000 		.word	.LANCHOR0
 182 00c0 00380240 		.word	1073887232
 183 00c4 00100240 		.word	1073876992
 184 00c8 00180240 		.word	1073879040
 185 00cc 000C0240 		.word	1073875968
 186 00d0 00140240 		.word	1073878016
 187 00d4 001C0240 		.word	1073880064
 188 00d8 00080240 		.word	1073874944
 189              		.cfi_endproc
 190              	.LFE173:
 192              		.section	.text.HAL_FMC_MspDeInit,"ax",%progbits
 193              		.align	1
 194              		.syntax unified
 195              		.thumb
 196              		.thumb_func
 197              		.fpu fpv5-sp-d16
 199              	HAL_FMC_MspDeInit:
 200              	.LFB175:
1638:Core/Src/stm32f7xx_hal_msp.c **** 
1639:Core/Src/stm32f7xx_hal_msp.c **** void HAL_SDRAM_MspInit(SDRAM_HandleTypeDef* hsdram){
1640:Core/Src/stm32f7xx_hal_msp.c ****   /* USER CODE BEGIN SDRAM_MspInit 0 */
1641:Core/Src/stm32f7xx_hal_msp.c **** 
1642:Core/Src/stm32f7xx_hal_msp.c ****   /* USER CODE END SDRAM_MspInit 0 */
1643:Core/Src/stm32f7xx_hal_msp.c ****   HAL_FMC_MspInit();
1644:Core/Src/stm32f7xx_hal_msp.c ****   /* USER CODE BEGIN SDRAM_MspInit 1 */
1645:Core/Src/stm32f7xx_hal_msp.c **** 
1646:Core/Src/stm32f7xx_hal_msp.c ****   /* USER CODE END SDRAM_MspInit 1 */
1647:Core/Src/stm32f7xx_hal_msp.c **** }
ARM GAS  /tmp/ccJDgDyU.s 			page 34


1648:Core/Src/stm32f7xx_hal_msp.c **** 
1649:Core/Src/stm32f7xx_hal_msp.c **** static uint32_t FMC_DeInitialized = 0;
1650:Core/Src/stm32f7xx_hal_msp.c **** 
1651:Core/Src/stm32f7xx_hal_msp.c **** static void HAL_FMC_MspDeInit(void){
 201              		.loc 1 1651 0
 202              		.cfi_startproc
 203              		@ args = 0, pretend = 0, frame = 0
 204              		@ frame_needed = 0, uses_anonymous_args = 0
 205 0000 08B5     		push	{r3, lr}
 206              	.LCFI4:
 207              		.cfi_def_cfa_offset 8
 208              		.cfi_offset 3, -8
 209              		.cfi_offset 14, -4
1652:Core/Src/stm32f7xx_hal_msp.c ****   /* USER CODE BEGIN FMC_MspDeInit 0 */
1653:Core/Src/stm32f7xx_hal_msp.c **** 
1654:Core/Src/stm32f7xx_hal_msp.c ****   /* USER CODE END FMC_MspDeInit 0 */
1655:Core/Src/stm32f7xx_hal_msp.c ****   if (FMC_DeInitialized) {
 210              		.loc 1 1655 0
 211 0002 144B     		ldr	r3, .L12
 212 0004 1B68     		ldr	r3, [r3]
 213 0006 03B1     		cbz	r3, .L11
 214              	.L8:
1656:Core/Src/stm32f7xx_hal_msp.c ****     return;
1657:Core/Src/stm32f7xx_hal_msp.c ****   }
1658:Core/Src/stm32f7xx_hal_msp.c ****   FMC_DeInitialized = 1;
1659:Core/Src/stm32f7xx_hal_msp.c ****   /* Peripheral clock enable */
1660:Core/Src/stm32f7xx_hal_msp.c ****   __HAL_RCC_FMC_CLK_DISABLE();
1661:Core/Src/stm32f7xx_hal_msp.c ****   
1662:Core/Src/stm32f7xx_hal_msp.c ****   /** FMC GPIO Configuration  
1663:Core/Src/stm32f7xx_hal_msp.c ****   PE1   ------> FMC_NBL1
1664:Core/Src/stm32f7xx_hal_msp.c ****   PE0   ------> FMC_NBL0
1665:Core/Src/stm32f7xx_hal_msp.c ****   PG15   ------> FMC_SDNCAS
1666:Core/Src/stm32f7xx_hal_msp.c ****   PD0   ------> FMC_D2
1667:Core/Src/stm32f7xx_hal_msp.c ****   PD1   ------> FMC_D3
1668:Core/Src/stm32f7xx_hal_msp.c ****   PF0   ------> FMC_A0
1669:Core/Src/stm32f7xx_hal_msp.c ****   PF1   ------> FMC_A1
1670:Core/Src/stm32f7xx_hal_msp.c ****   PF2   ------> FMC_A2
1671:Core/Src/stm32f7xx_hal_msp.c ****   PF3   ------> FMC_A3
1672:Core/Src/stm32f7xx_hal_msp.c ****   PG8   ------> FMC_SDCLK
1673:Core/Src/stm32f7xx_hal_msp.c ****   PF4   ------> FMC_A4
1674:Core/Src/stm32f7xx_hal_msp.c ****   PH5   ------> FMC_SDNWE
1675:Core/Src/stm32f7xx_hal_msp.c ****   PH3   ------> FMC_SDNE0
1676:Core/Src/stm32f7xx_hal_msp.c ****   PF5   ------> FMC_A5
1677:Core/Src/stm32f7xx_hal_msp.c ****   PD15   ------> FMC_D1
1678:Core/Src/stm32f7xx_hal_msp.c ****   PD10   ------> FMC_D15
1679:Core/Src/stm32f7xx_hal_msp.c ****   PC3   ------> FMC_SDCKE0
1680:Core/Src/stm32f7xx_hal_msp.c ****   PD14   ------> FMC_D0
1681:Core/Src/stm32f7xx_hal_msp.c ****   PD9   ------> FMC_D14
1682:Core/Src/stm32f7xx_hal_msp.c ****   PD8   ------> FMC_D13
1683:Core/Src/stm32f7xx_hal_msp.c ****   PF12   ------> FMC_A6
1684:Core/Src/stm32f7xx_hal_msp.c ****   PG1   ------> FMC_A11
1685:Core/Src/stm32f7xx_hal_msp.c ****   PF15   ------> FMC_A9
1686:Core/Src/stm32f7xx_hal_msp.c ****   PF13   ------> FMC_A7
1687:Core/Src/stm32f7xx_hal_msp.c ****   PG0   ------> FMC_A10
1688:Core/Src/stm32f7xx_hal_msp.c ****   PE8   ------> FMC_D5
1689:Core/Src/stm32f7xx_hal_msp.c ****   PG5   ------> FMC_BA1
1690:Core/Src/stm32f7xx_hal_msp.c ****   PG4   ------> FMC_BA0
ARM GAS  /tmp/ccJDgDyU.s 			page 35


1691:Core/Src/stm32f7xx_hal_msp.c ****   PF14   ------> FMC_A8
1692:Core/Src/stm32f7xx_hal_msp.c ****   PF11   ------> FMC_SDNRAS
1693:Core/Src/stm32f7xx_hal_msp.c ****   PE9   ------> FMC_D6
1694:Core/Src/stm32f7xx_hal_msp.c ****   PE11   ------> FMC_D8
1695:Core/Src/stm32f7xx_hal_msp.c ****   PE14   ------> FMC_D11
1696:Core/Src/stm32f7xx_hal_msp.c ****   PE7   ------> FMC_D4
1697:Core/Src/stm32f7xx_hal_msp.c ****   PE10   ------> FMC_D7
1698:Core/Src/stm32f7xx_hal_msp.c ****   PE12   ------> FMC_D9
1699:Core/Src/stm32f7xx_hal_msp.c ****   PE15   ------> FMC_D12
1700:Core/Src/stm32f7xx_hal_msp.c ****   PE13   ------> FMC_D10
1701:Core/Src/stm32f7xx_hal_msp.c ****   */
1702:Core/Src/stm32f7xx_hal_msp.c ****   HAL_GPIO_DeInit(GPIOE, FMC_NBL1_Pin|FMC_NBL0_Pin|FMC_D5_Pin|FMC_D6_Pin 
1703:Core/Src/stm32f7xx_hal_msp.c ****                           |FMC_D8_Pin|FMC_D11_Pin|FMC_D4_Pin|FMC_D7_Pin 
1704:Core/Src/stm32f7xx_hal_msp.c ****                           |FMC_D9_Pin|FMC_D12_Pin|FMC_D10_Pin);
1705:Core/Src/stm32f7xx_hal_msp.c **** 
1706:Core/Src/stm32f7xx_hal_msp.c ****   HAL_GPIO_DeInit(GPIOG, FMC_SDNCAS_Pin|FMC_SDCLK_Pin|FMC_A11_Pin|FMC_A10_Pin 
1707:Core/Src/stm32f7xx_hal_msp.c ****                           |FMC_BA1_Pin|FMC_BA0_Pin);
1708:Core/Src/stm32f7xx_hal_msp.c **** 
1709:Core/Src/stm32f7xx_hal_msp.c ****   HAL_GPIO_DeInit(GPIOD, FMC_D2_Pin|FMC_D3_Pin|FMC_D1_Pin|FMC_D15_Pin 
1710:Core/Src/stm32f7xx_hal_msp.c ****                           |FMC_D0_Pin|FMC_D14_Pin|FMC_D13_Pin);
1711:Core/Src/stm32f7xx_hal_msp.c **** 
1712:Core/Src/stm32f7xx_hal_msp.c ****   HAL_GPIO_DeInit(GPIOF, FMC_A0_Pin|FMC_A1_Pin|FMC_A2_Pin|FMC_A3_Pin 
1713:Core/Src/stm32f7xx_hal_msp.c ****                           |FMC_A4_Pin|FMC_A5_Pin|FMC_A6_Pin|FMC_A9_Pin 
1714:Core/Src/stm32f7xx_hal_msp.c ****                           |FMC_A7_Pin|FMC_A8_Pin|FMC_SDNRAS_Pin);
1715:Core/Src/stm32f7xx_hal_msp.c **** 
1716:Core/Src/stm32f7xx_hal_msp.c ****   HAL_GPIO_DeInit(GPIOH, FMC_SDNME_Pin|FMC_SDNE0_Pin);
1717:Core/Src/stm32f7xx_hal_msp.c **** 
1718:Core/Src/stm32f7xx_hal_msp.c ****   HAL_GPIO_DeInit(FMC_SDCKE0_GPIO_Port, FMC_SDCKE0_Pin);
1719:Core/Src/stm32f7xx_hal_msp.c **** 
1720:Core/Src/stm32f7xx_hal_msp.c ****   /* USER CODE BEGIN FMC_MspDeInit 1 */
1721:Core/Src/stm32f7xx_hal_msp.c **** 
1722:Core/Src/stm32f7xx_hal_msp.c ****   /* USER CODE END FMC_MspDeInit 1 */
1723:Core/Src/stm32f7xx_hal_msp.c **** }
 215              		.loc 1 1723 0
 216 0008 08BD     		pop	{r3, pc}
 217              	.L11:
1658:Core/Src/stm32f7xx_hal_msp.c ****   /* Peripheral clock enable */
 218              		.loc 1 1658 0
 219 000a 124B     		ldr	r3, .L12
 220 000c 0122     		movs	r2, #1
 221 000e 1A60     		str	r2, [r3]
1660:Core/Src/stm32f7xx_hal_msp.c ****   
 222              		.loc 1 1660 0
 223 0010 114A     		ldr	r2, .L12+4
 224 0012 936B     		ldr	r3, [r2, #56]
 225 0014 23F00103 		bic	r3, r3, #1
 226 0018 9363     		str	r3, [r2, #56]
1702:Core/Src/stm32f7xx_hal_msp.c ****                           |FMC_D8_Pin|FMC_D11_Pin|FMC_D4_Pin|FMC_D7_Pin 
 227              		.loc 1 1702 0
 228 001a 4FF68371 		movw	r1, #65411
 229 001e 0F48     		ldr	r0, .L12+8
 230 0020 FFF7FEFF 		bl	HAL_GPIO_DeInit
 231              	.LVL6:
1706:Core/Src/stm32f7xx_hal_msp.c ****                           |FMC_BA1_Pin|FMC_BA0_Pin);
 232              		.loc 1 1706 0
 233 0024 48F23311 		movw	r1, #33075
 234 0028 0D48     		ldr	r0, .L12+12
ARM GAS  /tmp/ccJDgDyU.s 			page 36


 235 002a FFF7FEFF 		bl	HAL_GPIO_DeInit
 236              	.LVL7:
1709:Core/Src/stm32f7xx_hal_msp.c ****                           |FMC_D0_Pin|FMC_D14_Pin|FMC_D13_Pin);
 237              		.loc 1 1709 0
 238 002e 4CF20371 		movw	r1, #50947
 239 0032 0C48     		ldr	r0, .L12+16
 240 0034 FFF7FEFF 		bl	HAL_GPIO_DeInit
 241              	.LVL8:
1712:Core/Src/stm32f7xx_hal_msp.c ****                           |FMC_A4_Pin|FMC_A5_Pin|FMC_A6_Pin|FMC_A9_Pin 
 242              		.loc 1 1712 0
 243 0038 4FF63F01 		movw	r1, #63551
 244 003c 0A48     		ldr	r0, .L12+20
 245 003e FFF7FEFF 		bl	HAL_GPIO_DeInit
 246              	.LVL9:
1716:Core/Src/stm32f7xx_hal_msp.c **** 
 247              		.loc 1 1716 0
 248 0042 2821     		movs	r1, #40
 249 0044 0948     		ldr	r0, .L12+24
 250 0046 FFF7FEFF 		bl	HAL_GPIO_DeInit
 251              	.LVL10:
1718:Core/Src/stm32f7xx_hal_msp.c **** 
 252              		.loc 1 1718 0
 253 004a 0821     		movs	r1, #8
 254 004c 0848     		ldr	r0, .L12+28
 255 004e FFF7FEFF 		bl	HAL_GPIO_DeInit
 256              	.LVL11:
 257 0052 D9E7     		b	.L8
 258              	.L13:
 259              		.align	2
 260              	.L12:
 261 0054 00000000 		.word	.LANCHOR1
 262 0058 00380240 		.word	1073887232
 263 005c 00100240 		.word	1073876992
 264 0060 00180240 		.word	1073879040
 265 0064 000C0240 		.word	1073875968
 266 0068 00140240 		.word	1073878016
 267 006c 001C0240 		.word	1073880064
 268 0070 00080240 		.word	1073874944
 269              		.cfi_endproc
 270              	.LFE175:
 272              		.section	.text.HAL_MspInit,"ax",%progbits
 273              		.align	1
 274              		.global	HAL_MspInit
 275              		.syntax unified
 276              		.thumb
 277              		.thumb_func
 278              		.fpu fpv5-sp-d16
 280              	HAL_MspInit:
 281              	.LFB141:
  67:Core/Src/stm32f7xx_hal_msp.c ****   /* USER CODE BEGIN MspInit 0 */
 282              		.loc 1 67 0
 283              		.cfi_startproc
 284              		@ args = 0, pretend = 0, frame = 8
 285              		@ frame_needed = 0, uses_anonymous_args = 0
 286 0000 00B5     		push	{lr}
 287              	.LCFI5:
 288              		.cfi_def_cfa_offset 4
ARM GAS  /tmp/ccJDgDyU.s 			page 37


 289              		.cfi_offset 14, -4
 290 0002 83B0     		sub	sp, sp, #12
 291              	.LCFI6:
 292              		.cfi_def_cfa_offset 16
 293              	.LBB3:
  72:Core/Src/stm32f7xx_hal_msp.c ****   __HAL_RCC_SYSCFG_CLK_ENABLE();
 294              		.loc 1 72 0
 295 0004 0D4B     		ldr	r3, .L16
 296 0006 1A6C     		ldr	r2, [r3, #64]
 297 0008 42F08052 		orr	r2, r2, #268435456
 298 000c 1A64     		str	r2, [r3, #64]
 299 000e 1A6C     		ldr	r2, [r3, #64]
 300 0010 02F08052 		and	r2, r2, #268435456
 301 0014 0092     		str	r2, [sp]
 302 0016 009A     		ldr	r2, [sp]
 303              	.LBE3:
 304              	.LBB4:
  73:Core/Src/stm32f7xx_hal_msp.c **** 
 305              		.loc 1 73 0
 306 0018 5A6C     		ldr	r2, [r3, #68]
 307 001a 42F48042 		orr	r2, r2, #16384
 308 001e 5A64     		str	r2, [r3, #68]
 309 0020 5B6C     		ldr	r3, [r3, #68]
 310 0022 03F48043 		and	r3, r3, #16384
 311 0026 0193     		str	r3, [sp, #4]
 312 0028 019B     		ldr	r3, [sp, #4]
 313              	.LBE4:
  77:Core/Src/stm32f7xx_hal_msp.c **** 
 314              		.loc 1 77 0
 315 002a 0022     		movs	r2, #0
 316 002c 0F21     		movs	r1, #15
 317 002e 6FF00100 		mvn	r0, #1
 318 0032 FFF7FEFF 		bl	HAL_NVIC_SetPriority
 319              	.LVL12:
  82:Core/Src/stm32f7xx_hal_msp.c **** 
 320              		.loc 1 82 0
 321 0036 03B0     		add	sp, sp, #12
 322              	.LCFI7:
 323              		.cfi_def_cfa_offset 4
 324              		@ sp needed
 325 0038 5DF804FB 		ldr	pc, [sp], #4
 326              	.L17:
 327              		.align	2
 328              	.L16:
 329 003c 00380240 		.word	1073887232
 330              		.cfi_endproc
 331              	.LFE141:
 333              		.section	.text.HAL_ADC_MspInit,"ax",%progbits
 334              		.align	1
 335              		.global	HAL_ADC_MspInit
 336              		.syntax unified
 337              		.thumb
 338              		.thumb_func
 339              		.fpu fpv5-sp-d16
 341              	HAL_ADC_MspInit:
 342              	.LFB142:
  91:Core/Src/stm32f7xx_hal_msp.c ****   GPIO_InitTypeDef GPIO_InitStruct = {0};
ARM GAS  /tmp/ccJDgDyU.s 			page 38


 343              		.loc 1 91 0
 344              		.cfi_startproc
 345              		@ args = 0, pretend = 0, frame = 32
 346              		@ frame_needed = 0, uses_anonymous_args = 0
 347              	.LVL13:
 348 0000 10B5     		push	{r4, lr}
 349              	.LCFI8:
 350              		.cfi_def_cfa_offset 8
 351              		.cfi_offset 4, -8
 352              		.cfi_offset 14, -4
 353 0002 88B0     		sub	sp, sp, #32
 354              	.LCFI9:
 355              		.cfi_def_cfa_offset 40
  92:Core/Src/stm32f7xx_hal_msp.c ****   if(hadc->Instance==ADC3)
 356              		.loc 1 92 0
 357 0004 0023     		movs	r3, #0
 358 0006 0393     		str	r3, [sp, #12]
 359 0008 0493     		str	r3, [sp, #16]
 360 000a 0593     		str	r3, [sp, #20]
 361 000c 0693     		str	r3, [sp, #24]
 362 000e 0793     		str	r3, [sp, #28]
  93:Core/Src/stm32f7xx_hal_msp.c ****   {
 363              		.loc 1 93 0
 364 0010 0268     		ldr	r2, [r0]
 365 0012 1A4B     		ldr	r3, .L22
 366 0014 9A42     		cmp	r2, r3
 367 0016 01D0     		beq	.L21
 368              	.LVL14:
 369              	.L18:
 127:Core/Src/stm32f7xx_hal_msp.c **** 
 370              		.loc 1 127 0
 371 0018 08B0     		add	sp, sp, #32
 372              	.LCFI10:
 373              		.cfi_remember_state
 374              		.cfi_def_cfa_offset 8
 375              		@ sp needed
 376 001a 10BD     		pop	{r4, pc}
 377              	.LVL15:
 378              	.L21:
 379              	.LCFI11:
 380              		.cfi_restore_state
 381              	.LBB5:
  99:Core/Src/stm32f7xx_hal_msp.c ****   
 382              		.loc 1 99 0
 383 001c 03F58B33 		add	r3, r3, #71168
 384 0020 5A6C     		ldr	r2, [r3, #68]
 385 0022 42F48062 		orr	r2, r2, #1024
 386 0026 5A64     		str	r2, [r3, #68]
 387 0028 5A6C     		ldr	r2, [r3, #68]
 388 002a 02F48062 		and	r2, r2, #1024
 389 002e 0092     		str	r2, [sp]
 390 0030 009A     		ldr	r2, [sp]
 391              	.LBE5:
 392              	.LBB6:
 101:Core/Src/stm32f7xx_hal_msp.c ****     __HAL_RCC_GPIOA_CLK_ENABLE();
 393              		.loc 1 101 0
 394 0032 1A6B     		ldr	r2, [r3, #48]
ARM GAS  /tmp/ccJDgDyU.s 			page 39


 395 0034 42F02002 		orr	r2, r2, #32
 396 0038 1A63     		str	r2, [r3, #48]
 397 003a 1A6B     		ldr	r2, [r3, #48]
 398 003c 02F02002 		and	r2, r2, #32
 399 0040 0192     		str	r2, [sp, #4]
 400 0042 019A     		ldr	r2, [sp, #4]
 401              	.LBE6:
 402              	.LBB7:
 102:Core/Src/stm32f7xx_hal_msp.c ****     /**ADC3 GPIO Configuration    
 403              		.loc 1 102 0
 404 0044 1A6B     		ldr	r2, [r3, #48]
 405 0046 42F00102 		orr	r2, r2, #1
 406 004a 1A63     		str	r2, [r3, #48]
 407 004c 1B6B     		ldr	r3, [r3, #48]
 408 004e 03F00103 		and	r3, r3, #1
 409 0052 0293     		str	r3, [sp, #8]
 410 0054 029B     		ldr	r3, [sp, #8]
 411              	.LBE7:
 111:Core/Src/stm32f7xx_hal_msp.c ****                           |ARDUINO_A3_Pin;
 412              		.loc 1 111 0
 413 0056 4FF4F863 		mov	r3, #1984
 414 005a 0393     		str	r3, [sp, #12]
 113:Core/Src/stm32f7xx_hal_msp.c ****     GPIO_InitStruct.Pull = GPIO_NOPULL;
 415              		.loc 1 113 0
 416 005c 0324     		movs	r4, #3
 417 005e 0494     		str	r4, [sp, #16]
 115:Core/Src/stm32f7xx_hal_msp.c **** 
 418              		.loc 1 115 0
 419 0060 03A9     		add	r1, sp, #12
 420 0062 0748     		ldr	r0, .L22+4
 421              	.LVL16:
 422 0064 FFF7FEFF 		bl	HAL_GPIO_Init
 423              	.LVL17:
 117:Core/Src/stm32f7xx_hal_msp.c ****     GPIO_InitStruct.Mode = GPIO_MODE_ANALOG;
 424              		.loc 1 117 0
 425 0068 0123     		movs	r3, #1
 426 006a 0393     		str	r3, [sp, #12]
 118:Core/Src/stm32f7xx_hal_msp.c ****     GPIO_InitStruct.Pull = GPIO_NOPULL;
 427              		.loc 1 118 0
 428 006c 0494     		str	r4, [sp, #16]
 119:Core/Src/stm32f7xx_hal_msp.c ****     HAL_GPIO_Init(ARDUINO_A0_GPIO_Port, &GPIO_InitStruct);
 429              		.loc 1 119 0
 430 006e 0023     		movs	r3, #0
 431 0070 0593     		str	r3, [sp, #20]
 120:Core/Src/stm32f7xx_hal_msp.c **** 
 432              		.loc 1 120 0
 433 0072 03A9     		add	r1, sp, #12
 434 0074 0348     		ldr	r0, .L22+8
 435 0076 FFF7FEFF 		bl	HAL_GPIO_Init
 436              	.LVL18:
 127:Core/Src/stm32f7xx_hal_msp.c **** 
 437              		.loc 1 127 0
 438 007a CDE7     		b	.L18
 439              	.L23:
 440              		.align	2
 441              	.L22:
 442 007c 00220140 		.word	1073816064
ARM GAS  /tmp/ccJDgDyU.s 			page 40


 443 0080 00140240 		.word	1073878016
 444 0084 00000240 		.word	1073872896
 445              		.cfi_endproc
 446              	.LFE142:
 448              		.section	.text.HAL_ADC_MspDeInit,"ax",%progbits
 449              		.align	1
 450              		.global	HAL_ADC_MspDeInit
 451              		.syntax unified
 452              		.thumb
 453              		.thumb_func
 454              		.fpu fpv5-sp-d16
 456              	HAL_ADC_MspDeInit:
 457              	.LFB143:
 136:Core/Src/stm32f7xx_hal_msp.c ****   if(hadc->Instance==ADC3)
 458              		.loc 1 136 0
 459              		.cfi_startproc
 460              		@ args = 0, pretend = 0, frame = 0
 461              		@ frame_needed = 0, uses_anonymous_args = 0
 462              	.LVL19:
 463 0000 08B5     		push	{r3, lr}
 464              	.LCFI12:
 465              		.cfi_def_cfa_offset 8
 466              		.cfi_offset 3, -8
 467              		.cfi_offset 14, -4
 137:Core/Src/stm32f7xx_hal_msp.c ****   {
 468              		.loc 1 137 0
 469 0002 0268     		ldr	r2, [r0]
 470 0004 094B     		ldr	r3, .L28
 471 0006 9A42     		cmp	r2, r3
 472 0008 00D0     		beq	.L27
 473              	.LVL20:
 474              	.L24:
 163:Core/Src/stm32f7xx_hal_msp.c **** 
 475              		.loc 1 163 0
 476 000a 08BD     		pop	{r3, pc}
 477              	.LVL21:
 478              	.L27:
 143:Core/Src/stm32f7xx_hal_msp.c ****   
 479              		.loc 1 143 0
 480 000c 084A     		ldr	r2, .L28+4
 481 000e 536C     		ldr	r3, [r2, #68]
 482 0010 23F48063 		bic	r3, r3, #1024
 483 0014 5364     		str	r3, [r2, #68]
 153:Core/Src/stm32f7xx_hal_msp.c ****                           |ARDUINO_A3_Pin);
 484              		.loc 1 153 0
 485 0016 4FF4F861 		mov	r1, #1984
 486 001a 0648     		ldr	r0, .L28+8
 487              	.LVL22:
 488 001c FFF7FEFF 		bl	HAL_GPIO_DeInit
 489              	.LVL23:
 156:Core/Src/stm32f7xx_hal_msp.c **** 
 490              		.loc 1 156 0
 491 0020 0121     		movs	r1, #1
 492 0022 0548     		ldr	r0, .L28+12
 493 0024 FFF7FEFF 		bl	HAL_GPIO_DeInit
 494              	.LVL24:
 163:Core/Src/stm32f7xx_hal_msp.c **** 
ARM GAS  /tmp/ccJDgDyU.s 			page 41


 495              		.loc 1 163 0
 496 0028 EFE7     		b	.L24
 497              	.L29:
 498 002a 00BF     		.align	2
 499              	.L28:
 500 002c 00220140 		.word	1073816064
 501 0030 00380240 		.word	1073887232
 502 0034 00140240 		.word	1073878016
 503 0038 00000240 		.word	1073872896
 504              		.cfi_endproc
 505              	.LFE143:
 507              		.section	.text.HAL_CRC_MspInit,"ax",%progbits
 508              		.align	1
 509              		.global	HAL_CRC_MspInit
 510              		.syntax unified
 511              		.thumb
 512              		.thumb_func
 513              		.fpu fpv5-sp-d16
 515              	HAL_CRC_MspInit:
 516              	.LFB144:
 172:Core/Src/stm32f7xx_hal_msp.c ****   if(hcrc->Instance==CRC)
 517              		.loc 1 172 0
 518              		.cfi_startproc
 519              		@ args = 0, pretend = 0, frame = 8
 520              		@ frame_needed = 0, uses_anonymous_args = 0
 521              		@ link register save eliminated.
 522              	.LVL25:
 173:Core/Src/stm32f7xx_hal_msp.c ****   {
 523              		.loc 1 173 0
 524 0000 0268     		ldr	r2, [r0]
 525 0002 094B     		ldr	r3, .L37
 526 0004 9A42     		cmp	r2, r3
 527 0006 00D0     		beq	.L36
 528 0008 7047     		bx	lr
 529              	.L36:
 172:Core/Src/stm32f7xx_hal_msp.c ****   if(hcrc->Instance==CRC)
 530              		.loc 1 172 0
 531 000a 82B0     		sub	sp, sp, #8
 532              	.LCFI13:
 533              		.cfi_def_cfa_offset 8
 534              	.LBB8:
 179:Core/Src/stm32f7xx_hal_msp.c ****   /* USER CODE BEGIN CRC_MspInit 1 */
 535              		.loc 1 179 0
 536 000c 03F50063 		add	r3, r3, #2048
 537 0010 1A6B     		ldr	r2, [r3, #48]
 538 0012 42F48052 		orr	r2, r2, #4096
 539 0016 1A63     		str	r2, [r3, #48]
 540 0018 1B6B     		ldr	r3, [r3, #48]
 541 001a 03F48053 		and	r3, r3, #4096
 542 001e 0193     		str	r3, [sp, #4]
 543 0020 019B     		ldr	r3, [sp, #4]
 544              	.LBE8:
 185:Core/Src/stm32f7xx_hal_msp.c **** 
 545              		.loc 1 185 0
 546 0022 02B0     		add	sp, sp, #8
 547              	.LCFI14:
 548              		.cfi_def_cfa_offset 0
ARM GAS  /tmp/ccJDgDyU.s 			page 42


 549              		@ sp needed
 550 0024 7047     		bx	lr
 551              	.L38:
 552 0026 00BF     		.align	2
 553              	.L37:
 554 0028 00300240 		.word	1073885184
 555              		.cfi_endproc
 556              	.LFE144:
 558              		.section	.text.HAL_CRC_MspDeInit,"ax",%progbits
 559              		.align	1
 560              		.global	HAL_CRC_MspDeInit
 561              		.syntax unified
 562              		.thumb
 563              		.thumb_func
 564              		.fpu fpv5-sp-d16
 566              	HAL_CRC_MspDeInit:
 567              	.LFB145:
 194:Core/Src/stm32f7xx_hal_msp.c ****   if(hcrc->Instance==CRC)
 568              		.loc 1 194 0
 569              		.cfi_startproc
 570              		@ args = 0, pretend = 0, frame = 0
 571              		@ frame_needed = 0, uses_anonymous_args = 0
 572              		@ link register save eliminated.
 573              	.LVL26:
 195:Core/Src/stm32f7xx_hal_msp.c ****   {
 574              		.loc 1 195 0
 575 0000 0268     		ldr	r2, [r0]
 576 0002 054B     		ldr	r3, .L42
 577 0004 9A42     		cmp	r2, r3
 578 0006 00D0     		beq	.L41
 579              	.L39:
 207:Core/Src/stm32f7xx_hal_msp.c **** 
 580              		.loc 1 207 0
 581 0008 7047     		bx	lr
 582              	.L41:
 201:Core/Src/stm32f7xx_hal_msp.c ****   /* USER CODE BEGIN CRC_MspDeInit 1 */
 583              		.loc 1 201 0
 584 000a 044A     		ldr	r2, .L42+4
 585 000c 136B     		ldr	r3, [r2, #48]
 586 000e 23F48053 		bic	r3, r3, #4096
 587 0012 1363     		str	r3, [r2, #48]
 207:Core/Src/stm32f7xx_hal_msp.c **** 
 588              		.loc 1 207 0
 589 0014 F8E7     		b	.L39
 590              	.L43:
 591 0016 00BF     		.align	2
 592              	.L42:
 593 0018 00300240 		.word	1073885184
 594 001c 00380240 		.word	1073887232
 595              		.cfi_endproc
 596              	.LFE145:
 598              		.section	.text.HAL_DCMI_MspInit,"ax",%progbits
 599              		.align	1
 600              		.global	HAL_DCMI_MspInit
 601              		.syntax unified
 602              		.thumb
 603              		.thumb_func
ARM GAS  /tmp/ccJDgDyU.s 			page 43


 604              		.fpu fpv5-sp-d16
 606              	HAL_DCMI_MspInit:
 607              	.LFB146:
 216:Core/Src/stm32f7xx_hal_msp.c ****   GPIO_InitTypeDef GPIO_InitStruct = {0};
 608              		.loc 1 216 0
 609              		.cfi_startproc
 610              		@ args = 0, pretend = 0, frame = 48
 611              		@ frame_needed = 0, uses_anonymous_args = 0
 612              	.LVL27:
 613 0000 70B5     		push	{r4, r5, r6, lr}
 614              	.LCFI15:
 615              		.cfi_def_cfa_offset 16
 616              		.cfi_offset 4, -16
 617              		.cfi_offset 5, -12
 618              		.cfi_offset 6, -8
 619              		.cfi_offset 14, -4
 620 0002 8CB0     		sub	sp, sp, #48
 621              	.LCFI16:
 622              		.cfi_def_cfa_offset 64
 217:Core/Src/stm32f7xx_hal_msp.c ****   if(hdcmi->Instance==DCMI)
 623              		.loc 1 217 0
 624 0004 0023     		movs	r3, #0
 625 0006 0793     		str	r3, [sp, #28]
 626 0008 0893     		str	r3, [sp, #32]
 627 000a 0993     		str	r3, [sp, #36]
 628 000c 0A93     		str	r3, [sp, #40]
 629 000e 0B93     		str	r3, [sp, #44]
 218:Core/Src/stm32f7xx_hal_msp.c ****   {
 630              		.loc 1 218 0
 631 0010 0268     		ldr	r2, [r0]
 632 0012 394B     		ldr	r3, .L48
 633 0014 9A42     		cmp	r2, r3
 634 0016 01D0     		beq	.L47
 635              	.LVL28:
 636              	.L44:
 285:Core/Src/stm32f7xx_hal_msp.c **** 
 637              		.loc 1 285 0
 638 0018 0CB0     		add	sp, sp, #48
 639              	.LCFI17:
 640              		.cfi_remember_state
 641              		.cfi_def_cfa_offset 16
 642              		@ sp needed
 643 001a 70BD     		pop	{r4, r5, r6, pc}
 644              	.LVL29:
 645              	.L47:
 646              	.LCFI18:
 647              		.cfi_restore_state
 648              	.LBB9:
 224:Core/Src/stm32f7xx_hal_msp.c ****   
 649              		.loc 1 224 0
 650 001c 374B     		ldr	r3, .L48+4
 651 001e 5A6B     		ldr	r2, [r3, #52]
 652 0020 42F00102 		orr	r2, r2, #1
 653 0024 5A63     		str	r2, [r3, #52]
 654 0026 5A6B     		ldr	r2, [r3, #52]
 655 0028 02F00102 		and	r2, r2, #1
 656 002c 0192     		str	r2, [sp, #4]
ARM GAS  /tmp/ccJDgDyU.s 			page 44


 657 002e 019A     		ldr	r2, [sp, #4]
 658              	.LBE9:
 659              	.LBB10:
 226:Core/Src/stm32f7xx_hal_msp.c ****     __HAL_RCC_GPIOD_CLK_ENABLE();
 660              		.loc 1 226 0
 661 0030 1A6B     		ldr	r2, [r3, #48]
 662 0032 42F01002 		orr	r2, r2, #16
 663 0036 1A63     		str	r2, [r3, #48]
 664 0038 1A6B     		ldr	r2, [r3, #48]
 665 003a 02F01002 		and	r2, r2, #16
 666 003e 0292     		str	r2, [sp, #8]
 667 0040 029A     		ldr	r2, [sp, #8]
 668              	.LBE10:
 669              	.LBB11:
 227:Core/Src/stm32f7xx_hal_msp.c ****     __HAL_RCC_GPIOG_CLK_ENABLE();
 670              		.loc 1 227 0
 671 0042 1A6B     		ldr	r2, [r3, #48]
 672 0044 42F00802 		orr	r2, r2, #8
 673 0048 1A63     		str	r2, [r3, #48]
 674 004a 1A6B     		ldr	r2, [r3, #48]
 675 004c 02F00802 		and	r2, r2, #8
 676 0050 0392     		str	r2, [sp, #12]
 677 0052 039A     		ldr	r2, [sp, #12]
 678              	.LBE11:
 679              	.LBB12:
 228:Core/Src/stm32f7xx_hal_msp.c ****     __HAL_RCC_GPIOH_CLK_ENABLE();
 680              		.loc 1 228 0
 681 0054 1A6B     		ldr	r2, [r3, #48]
 682 0056 42F04002 		orr	r2, r2, #64
 683 005a 1A63     		str	r2, [r3, #48]
 684 005c 1A6B     		ldr	r2, [r3, #48]
 685 005e 02F04002 		and	r2, r2, #64
 686 0062 0492     		str	r2, [sp, #16]
 687 0064 049A     		ldr	r2, [sp, #16]
 688              	.LBE12:
 689              	.LBB13:
 229:Core/Src/stm32f7xx_hal_msp.c ****     __HAL_RCC_GPIOA_CLK_ENABLE();
 690              		.loc 1 229 0
 691 0066 1A6B     		ldr	r2, [r3, #48]
 692 0068 42F08002 		orr	r2, r2, #128
 693 006c 1A63     		str	r2, [r3, #48]
 694 006e 1A6B     		ldr	r2, [r3, #48]
 695 0070 02F08002 		and	r2, r2, #128
 696 0074 0592     		str	r2, [sp, #20]
 697 0076 059A     		ldr	r2, [sp, #20]
 698              	.LBE13:
 699              	.LBB14:
 230:Core/Src/stm32f7xx_hal_msp.c ****     /**DCMI GPIO Configuration    
 700              		.loc 1 230 0
 701 0078 1A6B     		ldr	r2, [r3, #48]
 702 007a 42F00102 		orr	r2, r2, #1
 703 007e 1A63     		str	r2, [r3, #48]
 704 0080 1B6B     		ldr	r3, [r3, #48]
 705 0082 03F00103 		and	r3, r3, #1
 706 0086 0693     		str	r3, [sp, #24]
 707 0088 069B     		ldr	r3, [sp, #24]
 708              	.LBE14:
ARM GAS  /tmp/ccJDgDyU.s 			page 45


 244:Core/Src/stm32f7xx_hal_msp.c ****     GPIO_InitStruct.Mode = GPIO_MODE_AF_PP;
 709              		.loc 1 244 0
 710 008a 6023     		movs	r3, #96
 711 008c 0793     		str	r3, [sp, #28]
 245:Core/Src/stm32f7xx_hal_msp.c ****     GPIO_InitStruct.Pull = GPIO_NOPULL;
 712              		.loc 1 245 0
 713 008e 0226     		movs	r6, #2
 714 0090 0896     		str	r6, [sp, #32]
 248:Core/Src/stm32f7xx_hal_msp.c ****     HAL_GPIO_Init(GPIOE, &GPIO_InitStruct);
 715              		.loc 1 248 0
 716 0092 0D25     		movs	r5, #13
 717 0094 0B95     		str	r5, [sp, #44]
 249:Core/Src/stm32f7xx_hal_msp.c **** 
 718              		.loc 1 249 0
 719 0096 07A9     		add	r1, sp, #28
 720 0098 1948     		ldr	r0, .L48+8
 721              	.LVL30:
 722 009a FFF7FEFF 		bl	HAL_GPIO_Init
 723              	.LVL31:
 251:Core/Src/stm32f7xx_hal_msp.c ****     GPIO_InitStruct.Mode = GPIO_MODE_AF_PP;
 724              		.loc 1 251 0
 725 009e 0823     		movs	r3, #8
 726 00a0 0793     		str	r3, [sp, #28]
 252:Core/Src/stm32f7xx_hal_msp.c ****     GPIO_InitStruct.Pull = GPIO_NOPULL;
 727              		.loc 1 252 0
 728 00a2 0896     		str	r6, [sp, #32]
 253:Core/Src/stm32f7xx_hal_msp.c ****     GPIO_InitStruct.Speed = GPIO_SPEED_FREQ_LOW;
 729              		.loc 1 253 0
 730 00a4 0024     		movs	r4, #0
 731 00a6 0994     		str	r4, [sp, #36]
 254:Core/Src/stm32f7xx_hal_msp.c ****     GPIO_InitStruct.Alternate = GPIO_AF13_DCMI;
 732              		.loc 1 254 0
 733 00a8 0A94     		str	r4, [sp, #40]
 255:Core/Src/stm32f7xx_hal_msp.c ****     HAL_GPIO_Init(DCMI_D5_GPIO_Port, &GPIO_InitStruct);
 734              		.loc 1 255 0
 735 00aa 0B95     		str	r5, [sp, #44]
 256:Core/Src/stm32f7xx_hal_msp.c **** 
 736              		.loc 1 256 0
 737 00ac 07A9     		add	r1, sp, #28
 738 00ae 1548     		ldr	r0, .L48+12
 739 00b0 FFF7FEFF 		bl	HAL_GPIO_Init
 740              	.LVL32:
 258:Core/Src/stm32f7xx_hal_msp.c ****     GPIO_InitStruct.Mode = GPIO_MODE_AF_PP;
 741              		.loc 1 258 0
 742 00b4 4FF40073 		mov	r3, #512
 743 00b8 0793     		str	r3, [sp, #28]
 259:Core/Src/stm32f7xx_hal_msp.c ****     GPIO_InitStruct.Pull = GPIO_NOPULL;
 744              		.loc 1 259 0
 745 00ba 0896     		str	r6, [sp, #32]
 260:Core/Src/stm32f7xx_hal_msp.c ****     GPIO_InitStruct.Speed = GPIO_SPEED_FREQ_LOW;
 746              		.loc 1 260 0
 747 00bc 0994     		str	r4, [sp, #36]
 261:Core/Src/stm32f7xx_hal_msp.c ****     GPIO_InitStruct.Alternate = GPIO_AF13_DCMI;
 748              		.loc 1 261 0
 749 00be 0A94     		str	r4, [sp, #40]
 262:Core/Src/stm32f7xx_hal_msp.c ****     HAL_GPIO_Init(DCMI_VSYNC_GPIO_Port, &GPIO_InitStruct);
 750              		.loc 1 262 0
ARM GAS  /tmp/ccJDgDyU.s 			page 46


 751 00c0 0B95     		str	r5, [sp, #44]
 263:Core/Src/stm32f7xx_hal_msp.c **** 
 752              		.loc 1 263 0
 753 00c2 07A9     		add	r1, sp, #28
 754 00c4 1048     		ldr	r0, .L48+16
 755 00c6 FFF7FEFF 		bl	HAL_GPIO_Init
 756              	.LVL33:
 265:Core/Src/stm32f7xx_hal_msp.c ****                           |DCMI_D1_Pin;
 757              		.loc 1 265 0
 758 00ca 4FF4BC43 		mov	r3, #24064
 759 00ce 0793     		str	r3, [sp, #28]
 267:Core/Src/stm32f7xx_hal_msp.c ****     GPIO_InitStruct.Pull = GPIO_NOPULL;
 760              		.loc 1 267 0
 761 00d0 0896     		str	r6, [sp, #32]
 268:Core/Src/stm32f7xx_hal_msp.c ****     GPIO_InitStruct.Speed = GPIO_SPEED_FREQ_LOW;
 762              		.loc 1 268 0
 763 00d2 0994     		str	r4, [sp, #36]
 269:Core/Src/stm32f7xx_hal_msp.c ****     GPIO_InitStruct.Alternate = GPIO_AF13_DCMI;
 764              		.loc 1 269 0
 765 00d4 0A94     		str	r4, [sp, #40]
 270:Core/Src/stm32f7xx_hal_msp.c ****     HAL_GPIO_Init(GPIOH, &GPIO_InitStruct);
 766              		.loc 1 270 0
 767 00d6 0B95     		str	r5, [sp, #44]
 271:Core/Src/stm32f7xx_hal_msp.c **** 
 768              		.loc 1 271 0
 769 00d8 07A9     		add	r1, sp, #28
 770 00da 0C48     		ldr	r0, .L48+20
 771 00dc FFF7FEFF 		bl	HAL_GPIO_Init
 772              	.LVL34:
 273:Core/Src/stm32f7xx_hal_msp.c ****     GPIO_InitStruct.Mode = GPIO_MODE_AF_PP;
 773              		.loc 1 273 0
 774 00e0 5023     		movs	r3, #80
 775 00e2 0793     		str	r3, [sp, #28]
 274:Core/Src/stm32f7xx_hal_msp.c ****     GPIO_InitStruct.Pull = GPIO_NOPULL;
 776              		.loc 1 274 0
 777 00e4 0896     		str	r6, [sp, #32]
 275:Core/Src/stm32f7xx_hal_msp.c ****     GPIO_InitStruct.Speed = GPIO_SPEED_FREQ_LOW;
 778              		.loc 1 275 0
 779 00e6 0994     		str	r4, [sp, #36]
 276:Core/Src/stm32f7xx_hal_msp.c ****     GPIO_InitStruct.Alternate = GPIO_AF13_DCMI;
 780              		.loc 1 276 0
 781 00e8 0A94     		str	r4, [sp, #40]
 277:Core/Src/stm32f7xx_hal_msp.c ****     HAL_GPIO_Init(GPIOA, &GPIO_InitStruct);
 782              		.loc 1 277 0
 783 00ea 0B95     		str	r5, [sp, #44]
 278:Core/Src/stm32f7xx_hal_msp.c **** 
 784              		.loc 1 278 0
 785 00ec 07A9     		add	r1, sp, #28
 786 00ee 0848     		ldr	r0, .L48+24
 787 00f0 FFF7FEFF 		bl	HAL_GPIO_Init
 788              	.LVL35:
 285:Core/Src/stm32f7xx_hal_msp.c **** 
 789              		.loc 1 285 0
 790 00f4 90E7     		b	.L44
 791              	.L49:
 792 00f6 00BF     		.align	2
 793              	.L48:
ARM GAS  /tmp/ccJDgDyU.s 			page 47


 794 00f8 00000550 		.word	1342504960
 795 00fc 00380240 		.word	1073887232
 796 0100 00100240 		.word	1073876992
 797 0104 000C0240 		.word	1073875968
 798 0108 00180240 		.word	1073879040
 799 010c 001C0240 		.word	1073880064
 800 0110 00000240 		.word	1073872896
 801              		.cfi_endproc
 802              	.LFE146:
 804              		.section	.text.HAL_DCMI_MspDeInit,"ax",%progbits
 805              		.align	1
 806              		.global	HAL_DCMI_MspDeInit
 807              		.syntax unified
 808              		.thumb
 809              		.thumb_func
 810              		.fpu fpv5-sp-d16
 812              	HAL_DCMI_MspDeInit:
 813              	.LFB147:
 294:Core/Src/stm32f7xx_hal_msp.c ****   if(hdcmi->Instance==DCMI)
 814              		.loc 1 294 0
 815              		.cfi_startproc
 816              		@ args = 0, pretend = 0, frame = 0
 817              		@ frame_needed = 0, uses_anonymous_args = 0
 818              	.LVL36:
 819 0000 08B5     		push	{r3, lr}
 820              	.LCFI19:
 821              		.cfi_def_cfa_offset 8
 822              		.cfi_offset 3, -8
 823              		.cfi_offset 14, -4
 295:Core/Src/stm32f7xx_hal_msp.c ****   {
 824              		.loc 1 295 0
 825 0002 0268     		ldr	r2, [r0]
 826 0004 0F4B     		ldr	r3, .L54
 827 0006 9A42     		cmp	r2, r3
 828 0008 00D0     		beq	.L53
 829              	.LVL37:
 830              	.L50:
 332:Core/Src/stm32f7xx_hal_msp.c **** 
 831              		.loc 1 332 0
 832 000a 08BD     		pop	{r3, pc}
 833              	.LVL38:
 834              	.L53:
 301:Core/Src/stm32f7xx_hal_msp.c ****   
 835              		.loc 1 301 0
 836 000c 0E4A     		ldr	r2, .L54+4
 837 000e 536B     		ldr	r3, [r2, #52]
 838 0010 23F00103 		bic	r3, r3, #1
 839 0014 5363     		str	r3, [r2, #52]
 316:Core/Src/stm32f7xx_hal_msp.c **** 
 840              		.loc 1 316 0
 841 0016 6021     		movs	r1, #96
 842 0018 0C48     		ldr	r0, .L54+8
 843              	.LVL39:
 844 001a FFF7FEFF 		bl	HAL_GPIO_DeInit
 845              	.LVL40:
 318:Core/Src/stm32f7xx_hal_msp.c **** 
 846              		.loc 1 318 0
ARM GAS  /tmp/ccJDgDyU.s 			page 48


 847 001e 0821     		movs	r1, #8
 848 0020 0B48     		ldr	r0, .L54+12
 849 0022 FFF7FEFF 		bl	HAL_GPIO_DeInit
 850              	.LVL41:
 320:Core/Src/stm32f7xx_hal_msp.c **** 
 851              		.loc 1 320 0
 852 0026 4FF40071 		mov	r1, #512
 853 002a 0A48     		ldr	r0, .L54+16
 854 002c FFF7FEFF 		bl	HAL_GPIO_DeInit
 855              	.LVL42:
 322:Core/Src/stm32f7xx_hal_msp.c ****                           |DCMI_D1_Pin);
 856              		.loc 1 322 0
 857 0030 4FF4BC41 		mov	r1, #24064
 858 0034 0848     		ldr	r0, .L54+20
 859 0036 FFF7FEFF 		bl	HAL_GPIO_DeInit
 860              	.LVL43:
 325:Core/Src/stm32f7xx_hal_msp.c **** 
 861              		.loc 1 325 0
 862 003a 5021     		movs	r1, #80
 863 003c 0748     		ldr	r0, .L54+24
 864 003e FFF7FEFF 		bl	HAL_GPIO_DeInit
 865              	.LVL44:
 332:Core/Src/stm32f7xx_hal_msp.c **** 
 866              		.loc 1 332 0
 867 0042 E2E7     		b	.L50
 868              	.L55:
 869              		.align	2
 870              	.L54:
 871 0044 00000550 		.word	1342504960
 872 0048 00380240 		.word	1073887232
 873 004c 00100240 		.word	1073876992
 874 0050 000C0240 		.word	1073875968
 875 0054 00180240 		.word	1073879040
 876 0058 001C0240 		.word	1073880064
 877 005c 00000240 		.word	1073872896
 878              		.cfi_endproc
 879              	.LFE147:
 881              		.section	.text.HAL_DMA2D_MspInit,"ax",%progbits
 882              		.align	1
 883              		.global	HAL_DMA2D_MspInit
 884              		.syntax unified
 885              		.thumb
 886              		.thumb_func
 887              		.fpu fpv5-sp-d16
 889              	HAL_DMA2D_MspInit:
 890              	.LFB148:
 341:Core/Src/stm32f7xx_hal_msp.c ****   if(hdma2d->Instance==DMA2D)
 891              		.loc 1 341 0
 892              		.cfi_startproc
 893              		@ args = 0, pretend = 0, frame = 8
 894              		@ frame_needed = 0, uses_anonymous_args = 0
 895              	.LVL45:
 342:Core/Src/stm32f7xx_hal_msp.c ****   {
 896              		.loc 1 342 0
 897 0000 0268     		ldr	r2, [r0]
 898 0002 0E4B     		ldr	r3, .L63
 899 0004 9A42     		cmp	r2, r3
ARM GAS  /tmp/ccJDgDyU.s 			page 49


 900 0006 00D0     		beq	.L62
 901 0008 7047     		bx	lr
 902              	.L62:
 341:Core/Src/stm32f7xx_hal_msp.c ****   if(hdma2d->Instance==DMA2D)
 903              		.loc 1 341 0
 904 000a 00B5     		push	{lr}
 905              	.LCFI20:
 906              		.cfi_def_cfa_offset 4
 907              		.cfi_offset 14, -4
 908 000c 83B0     		sub	sp, sp, #12
 909              	.LCFI21:
 910              		.cfi_def_cfa_offset 16
 911              	.LBB15:
 348:Core/Src/stm32f7xx_hal_msp.c ****     /* DMA2D interrupt Init */
 912              		.loc 1 348 0
 913 000e A3F5F043 		sub	r3, r3, #30720
 914 0012 1A6B     		ldr	r2, [r3, #48]
 915 0014 42F40002 		orr	r2, r2, #8388608
 916 0018 1A63     		str	r2, [r3, #48]
 917 001a 1B6B     		ldr	r3, [r3, #48]
 918 001c 03F40003 		and	r3, r3, #8388608
 919 0020 0193     		str	r3, [sp, #4]
 920 0022 019B     		ldr	r3, [sp, #4]
 921              	.LBE15:
 350:Core/Src/stm32f7xx_hal_msp.c ****     HAL_NVIC_EnableIRQ(DMA2D_IRQn);
 922              		.loc 1 350 0
 923 0024 0022     		movs	r2, #0
 924 0026 0521     		movs	r1, #5
 925 0028 5A20     		movs	r0, #90
 926              	.LVL46:
 927 002a FFF7FEFF 		bl	HAL_NVIC_SetPriority
 928              	.LVL47:
 351:Core/Src/stm32f7xx_hal_msp.c ****   /* USER CODE BEGIN DMA2D_MspInit 1 */
 929              		.loc 1 351 0
 930 002e 5A20     		movs	r0, #90
 931 0030 FFF7FEFF 		bl	HAL_NVIC_EnableIRQ
 932              	.LVL48:
 357:Core/Src/stm32f7xx_hal_msp.c **** 
 933              		.loc 1 357 0
 934 0034 03B0     		add	sp, sp, #12
 935              	.LCFI22:
 936              		.cfi_def_cfa_offset 4
 937              		@ sp needed
 938 0036 5DF804FB 		ldr	pc, [sp], #4
 939              	.L64:
 940 003a 00BF     		.align	2
 941              	.L63:
 942 003c 00B00240 		.word	1073917952
 943              		.cfi_endproc
 944              	.LFE148:
 946              		.section	.text.HAL_DMA2D_MspDeInit,"ax",%progbits
 947              		.align	1
 948              		.global	HAL_DMA2D_MspDeInit
 949              		.syntax unified
 950              		.thumb
 951              		.thumb_func
 952              		.fpu fpv5-sp-d16
ARM GAS  /tmp/ccJDgDyU.s 			page 50


 954              	HAL_DMA2D_MspDeInit:
 955              	.LFB149:
 366:Core/Src/stm32f7xx_hal_msp.c ****   if(hdma2d->Instance==DMA2D)
 956              		.loc 1 366 0
 957              		.cfi_startproc
 958              		@ args = 0, pretend = 0, frame = 0
 959              		@ frame_needed = 0, uses_anonymous_args = 0
 960              	.LVL49:
 961 0000 08B5     		push	{r3, lr}
 962              	.LCFI23:
 963              		.cfi_def_cfa_offset 8
 964              		.cfi_offset 3, -8
 965              		.cfi_offset 14, -4
 367:Core/Src/stm32f7xx_hal_msp.c ****   {
 966              		.loc 1 367 0
 967 0002 0268     		ldr	r2, [r0]
 968 0004 064B     		ldr	r3, .L69
 969 0006 9A42     		cmp	r2, r3
 970 0008 00D0     		beq	.L68
 971              	.LVL50:
 972              	.L65:
 382:Core/Src/stm32f7xx_hal_msp.c **** 
 973              		.loc 1 382 0
 974 000a 08BD     		pop	{r3, pc}
 975              	.LVL51:
 976              	.L68:
 373:Core/Src/stm32f7xx_hal_msp.c **** 
 977              		.loc 1 373 0
 978 000c 054A     		ldr	r2, .L69+4
 979 000e 136B     		ldr	r3, [r2, #48]
 980 0010 23F40003 		bic	r3, r3, #8388608
 981 0014 1363     		str	r3, [r2, #48]
 376:Core/Src/stm32f7xx_hal_msp.c ****   /* USER CODE BEGIN DMA2D_MspDeInit 1 */
 982              		.loc 1 376 0
 983 0016 5A20     		movs	r0, #90
 984              	.LVL52:
 985 0018 FFF7FEFF 		bl	HAL_NVIC_DisableIRQ
 986              	.LVL53:
 382:Core/Src/stm32f7xx_hal_msp.c **** 
 987              		.loc 1 382 0
 988 001c F5E7     		b	.L65
 989              	.L70:
 990 001e 00BF     		.align	2
 991              	.L69:
 992 0020 00B00240 		.word	1073917952
 993 0024 00380240 		.word	1073887232
 994              		.cfi_endproc
 995              	.LFE149:
 997              		.section	.text.HAL_ETH_MspInit,"ax",%progbits
 998              		.align	1
 999              		.global	HAL_ETH_MspInit
 1000              		.syntax unified
 1001              		.thumb
 1002              		.thumb_func
 1003              		.fpu fpv5-sp-d16
 1005              	HAL_ETH_MspInit:
 1006              	.LFB150:
ARM GAS  /tmp/ccJDgDyU.s 			page 51


 391:Core/Src/stm32f7xx_hal_msp.c ****   GPIO_InitTypeDef GPIO_InitStruct = {0};
 1007              		.loc 1 391 0
 1008              		.cfi_startproc
 1009              		@ args = 0, pretend = 0, frame = 48
 1010              		@ frame_needed = 0, uses_anonymous_args = 0
 1011              	.LVL54:
 1012 0000 F0B5     		push	{r4, r5, r6, r7, lr}
 1013              	.LCFI24:
 1014              		.cfi_def_cfa_offset 20
 1015              		.cfi_offset 4, -20
 1016              		.cfi_offset 5, -16
 1017              		.cfi_offset 6, -12
 1018              		.cfi_offset 7, -8
 1019              		.cfi_offset 14, -4
 1020 0002 8DB0     		sub	sp, sp, #52
 1021              	.LCFI25:
 1022              		.cfi_def_cfa_offset 72
 392:Core/Src/stm32f7xx_hal_msp.c ****   if(heth->Instance==ETH)
 1023              		.loc 1 392 0
 1024 0004 0023     		movs	r3, #0
 1025 0006 0793     		str	r3, [sp, #28]
 1026 0008 0893     		str	r3, [sp, #32]
 1027 000a 0993     		str	r3, [sp, #36]
 1028 000c 0A93     		str	r3, [sp, #40]
 1029 000e 0B93     		str	r3, [sp, #44]
 393:Core/Src/stm32f7xx_hal_msp.c ****   {
 1030              		.loc 1 393 0
 1031 0010 0268     		ldr	r2, [r0]
 1032 0012 304B     		ldr	r3, .L75
 1033 0014 9A42     		cmp	r2, r3
 1034 0016 01D0     		beq	.L74
 1035              	.LVL55:
 1036              	.L71:
 441:Core/Src/stm32f7xx_hal_msp.c **** 
 1037              		.loc 1 441 0
 1038 0018 0DB0     		add	sp, sp, #52
 1039              	.LCFI26:
 1040              		.cfi_remember_state
 1041              		.cfi_def_cfa_offset 20
 1042              		@ sp needed
 1043 001a F0BD     		pop	{r4, r5, r6, r7, pc}
 1044              	.LVL56:
 1045              	.L74:
 1046              	.LCFI27:
 1047              		.cfi_restore_state
 1048              	.LBB16:
 399:Core/Src/stm32f7xx_hal_msp.c ****   
 1049              		.loc 1 399 0
 1050 001c A3F59043 		sub	r3, r3, #18432
 1051 0020 1A6B     		ldr	r2, [r3, #48]
 1052 0022 42F00072 		orr	r2, r2, #33554432
 1053 0026 1A63     		str	r2, [r3, #48]
 1054 0028 1A6B     		ldr	r2, [r3, #48]
 1055 002a 02F00072 		and	r2, r2, #33554432
 1056 002e 0192     		str	r2, [sp, #4]
 1057 0030 019A     		ldr	r2, [sp, #4]
 1058              	.LBE16:
ARM GAS  /tmp/ccJDgDyU.s 			page 52


 1059              	.LBB17:
 1060 0032 1A6B     		ldr	r2, [r3, #48]
 1061 0034 42F08062 		orr	r2, r2, #67108864
 1062 0038 1A63     		str	r2, [r3, #48]
 1063 003a 1A6B     		ldr	r2, [r3, #48]
 1064 003c 02F08062 		and	r2, r2, #67108864
 1065 0040 0292     		str	r2, [sp, #8]
 1066 0042 029A     		ldr	r2, [sp, #8]
 1067              	.LBE17:
 1068              	.LBB18:
 1069 0044 1A6B     		ldr	r2, [r3, #48]
 1070 0046 42F00062 		orr	r2, r2, #134217728
 1071 004a 1A63     		str	r2, [r3, #48]
 1072 004c 1A6B     		ldr	r2, [r3, #48]
 1073 004e 02F00062 		and	r2, r2, #134217728
 1074 0052 0392     		str	r2, [sp, #12]
 1075 0054 039A     		ldr	r2, [sp, #12]
 1076              	.LBE18:
 1077              	.LBB19:
 401:Core/Src/stm32f7xx_hal_msp.c ****     __HAL_RCC_GPIOC_CLK_ENABLE();
 1078              		.loc 1 401 0
 1079 0056 1A6B     		ldr	r2, [r3, #48]
 1080 0058 42F04002 		orr	r2, r2, #64
 1081 005c 1A63     		str	r2, [r3, #48]
 1082 005e 1A6B     		ldr	r2, [r3, #48]
 1083 0060 02F04002 		and	r2, r2, #64
 1084 0064 0492     		str	r2, [sp, #16]
 1085 0066 049A     		ldr	r2, [sp, #16]
 1086              	.LBE19:
 1087              	.LBB20:
 402:Core/Src/stm32f7xx_hal_msp.c ****     __HAL_RCC_GPIOA_CLK_ENABLE();
 1088              		.loc 1 402 0
 1089 0068 1A6B     		ldr	r2, [r3, #48]
 1090 006a 42F00402 		orr	r2, r2, #4
 1091 006e 1A63     		str	r2, [r3, #48]
 1092 0070 1A6B     		ldr	r2, [r3, #48]
 1093 0072 02F00402 		and	r2, r2, #4
 1094 0076 0592     		str	r2, [sp, #20]
 1095 0078 059A     		ldr	r2, [sp, #20]
 1096              	.LBE20:
 1097              	.LBB21:
 403:Core/Src/stm32f7xx_hal_msp.c ****     /**ETH GPIO Configuration    
 1098              		.loc 1 403 0
 1099 007a 1A6B     		ldr	r2, [r3, #48]
 1100 007c 42F00102 		orr	r2, r2, #1
 1101 0080 1A63     		str	r2, [r3, #48]
 1102 0082 1B6B     		ldr	r3, [r3, #48]
 1103 0084 03F00103 		and	r3, r3, #1
 1104 0088 0693     		str	r3, [sp, #24]
 1105 008a 069B     		ldr	r3, [sp, #24]
 1106              	.LBE21:
 415:Core/Src/stm32f7xx_hal_msp.c ****     GPIO_InitStruct.Mode = GPIO_MODE_AF_PP;
 1107              		.loc 1 415 0
 1108 008c 4FF4D043 		mov	r3, #26624
 1109 0090 0793     		str	r3, [sp, #28]
 416:Core/Src/stm32f7xx_hal_msp.c ****     GPIO_InitStruct.Pull = GPIO_NOPULL;
 1110              		.loc 1 416 0
ARM GAS  /tmp/ccJDgDyU.s 			page 53


 1111 0092 0226     		movs	r6, #2
 1112 0094 0896     		str	r6, [sp, #32]
 418:Core/Src/stm32f7xx_hal_msp.c ****     GPIO_InitStruct.Alternate = GPIO_AF11_ETH;
 1113              		.loc 1 418 0
 1114 0096 0325     		movs	r5, #3
 1115 0098 0A95     		str	r5, [sp, #40]
 419:Core/Src/stm32f7xx_hal_msp.c ****     HAL_GPIO_Init(GPIOG, &GPIO_InitStruct);
 1116              		.loc 1 419 0
 1117 009a 0B24     		movs	r4, #11
 1118 009c 0B94     		str	r4, [sp, #44]
 420:Core/Src/stm32f7xx_hal_msp.c **** 
 1119              		.loc 1 420 0
 1120 009e 07A9     		add	r1, sp, #28
 1121 00a0 0D48     		ldr	r0, .L75+4
 1122              	.LVL57:
 1123 00a2 FFF7FEFF 		bl	HAL_GPIO_Init
 1124              	.LVL58:
 422:Core/Src/stm32f7xx_hal_msp.c ****     GPIO_InitStruct.Mode = GPIO_MODE_AF_PP;
 1125              		.loc 1 422 0
 1126 00a6 3223     		movs	r3, #50
 1127 00a8 0793     		str	r3, [sp, #28]
 423:Core/Src/stm32f7xx_hal_msp.c ****     GPIO_InitStruct.Pull = GPIO_NOPULL;
 1128              		.loc 1 423 0
 1129 00aa 0896     		str	r6, [sp, #32]
 424:Core/Src/stm32f7xx_hal_msp.c ****     GPIO_InitStruct.Speed = GPIO_SPEED_FREQ_VERY_HIGH;
 1130              		.loc 1 424 0
 1131 00ac 0027     		movs	r7, #0
 1132 00ae 0997     		str	r7, [sp, #36]
 425:Core/Src/stm32f7xx_hal_msp.c ****     GPIO_InitStruct.Alternate = GPIO_AF11_ETH;
 1133              		.loc 1 425 0
 1134 00b0 0A95     		str	r5, [sp, #40]
 426:Core/Src/stm32f7xx_hal_msp.c ****     HAL_GPIO_Init(GPIOC, &GPIO_InitStruct);
 1135              		.loc 1 426 0
 1136 00b2 0B94     		str	r4, [sp, #44]
 427:Core/Src/stm32f7xx_hal_msp.c **** 
 1137              		.loc 1 427 0
 1138 00b4 07A9     		add	r1, sp, #28
 1139 00b6 0948     		ldr	r0, .L75+8
 1140 00b8 FFF7FEFF 		bl	HAL_GPIO_Init
 1141              	.LVL59:
 429:Core/Src/stm32f7xx_hal_msp.c ****     GPIO_InitStruct.Mode = GPIO_MODE_AF_PP;
 1142              		.loc 1 429 0
 1143 00bc 8623     		movs	r3, #134
 1144 00be 0793     		str	r3, [sp, #28]
 430:Core/Src/stm32f7xx_hal_msp.c ****     GPIO_InitStruct.Pull = GPIO_NOPULL;
 1145              		.loc 1 430 0
 1146 00c0 0896     		str	r6, [sp, #32]
 431:Core/Src/stm32f7xx_hal_msp.c ****     GPIO_InitStruct.Speed = GPIO_SPEED_FREQ_VERY_HIGH;
 1147              		.loc 1 431 0
 1148 00c2 0997     		str	r7, [sp, #36]
 432:Core/Src/stm32f7xx_hal_msp.c ****     GPIO_InitStruct.Alternate = GPIO_AF11_ETH;
 1149              		.loc 1 432 0
 1150 00c4 0A95     		str	r5, [sp, #40]
 433:Core/Src/stm32f7xx_hal_msp.c ****     HAL_GPIO_Init(GPIOA, &GPIO_InitStruct);
 1151              		.loc 1 433 0
 1152 00c6 0B94     		str	r4, [sp, #44]
 434:Core/Src/stm32f7xx_hal_msp.c **** 
ARM GAS  /tmp/ccJDgDyU.s 			page 54


 1153              		.loc 1 434 0
 1154 00c8 07A9     		add	r1, sp, #28
 1155 00ca 0548     		ldr	r0, .L75+12
 1156 00cc FFF7FEFF 		bl	HAL_GPIO_Init
 1157              	.LVL60:
 441:Core/Src/stm32f7xx_hal_msp.c **** 
 1158              		.loc 1 441 0
 1159 00d0 A2E7     		b	.L71
 1160              	.L76:
 1161 00d2 00BF     		.align	2
 1162              	.L75:
 1163 00d4 00800240 		.word	1073905664
 1164 00d8 00180240 		.word	1073879040
 1165 00dc 00080240 		.word	1073874944
 1166 00e0 00000240 		.word	1073872896
 1167              		.cfi_endproc
 1168              	.LFE150:
 1170              		.section	.text.HAL_ETH_MspDeInit,"ax",%progbits
 1171              		.align	1
 1172              		.global	HAL_ETH_MspDeInit
 1173              		.syntax unified
 1174              		.thumb
 1175              		.thumb_func
 1176              		.fpu fpv5-sp-d16
 1178              	HAL_ETH_MspDeInit:
 1179              	.LFB151:
 450:Core/Src/stm32f7xx_hal_msp.c ****   if(heth->Instance==ETH)
 1180              		.loc 1 450 0
 1181              		.cfi_startproc
 1182              		@ args = 0, pretend = 0, frame = 0
 1183              		@ frame_needed = 0, uses_anonymous_args = 0
 1184              	.LVL61:
 1185 0000 08B5     		push	{r3, lr}
 1186              	.LCFI28:
 1187              		.cfi_def_cfa_offset 8
 1188              		.cfi_offset 3, -8
 1189              		.cfi_offset 14, -4
 451:Core/Src/stm32f7xx_hal_msp.c ****   {
 1190              		.loc 1 451 0
 1191 0002 0268     		ldr	r2, [r0]
 1192 0004 0F4B     		ldr	r3, .L81
 1193 0006 9A42     		cmp	r2, r3
 1194 0008 00D0     		beq	.L80
 1195              	.LVL62:
 1196              	.L77:
 481:Core/Src/stm32f7xx_hal_msp.c **** 
 1197              		.loc 1 481 0
 1198 000a 08BD     		pop	{r3, pc}
 1199              	.LVL63:
 1200              	.L80:
 457:Core/Src/stm32f7xx_hal_msp.c ****   
 1201              		.loc 1 457 0
 1202 000c A3F59043 		sub	r3, r3, #18432
 1203 0010 1A6B     		ldr	r2, [r3, #48]
 1204 0012 22F08062 		bic	r2, r2, #67108864
 1205 0016 1A63     		str	r2, [r3, #48]
 1206 0018 1A6B     		ldr	r2, [r3, #48]
ARM GAS  /tmp/ccJDgDyU.s 			page 55


 1207 001a 22F00062 		bic	r2, r2, #134217728
 1208 001e 1A63     		str	r2, [r3, #48]
 1209 0020 1A6B     		ldr	r2, [r3, #48]
 1210 0022 22F00072 		bic	r2, r2, #33554432
 1211 0026 1A63     		str	r2, [r3, #48]
 470:Core/Src/stm32f7xx_hal_msp.c **** 
 1212              		.loc 1 470 0
 1213 0028 4FF4D041 		mov	r1, #26624
 1214 002c 0648     		ldr	r0, .L81+4
 1215              	.LVL64:
 1216 002e FFF7FEFF 		bl	HAL_GPIO_DeInit
 1217              	.LVL65:
 472:Core/Src/stm32f7xx_hal_msp.c **** 
 1218              		.loc 1 472 0
 1219 0032 3221     		movs	r1, #50
 1220 0034 0548     		ldr	r0, .L81+8
 1221 0036 FFF7FEFF 		bl	HAL_GPIO_DeInit
 1222              	.LVL66:
 474:Core/Src/stm32f7xx_hal_msp.c **** 
 1223              		.loc 1 474 0
 1224 003a 8621     		movs	r1, #134
 1225 003c 0448     		ldr	r0, .L81+12
 1226 003e FFF7FEFF 		bl	HAL_GPIO_DeInit
 1227              	.LVL67:
 481:Core/Src/stm32f7xx_hal_msp.c **** 
 1228              		.loc 1 481 0
 1229 0042 E2E7     		b	.L77
 1230              	.L82:
 1231              		.align	2
 1232              	.L81:
 1233 0044 00800240 		.word	1073905664
 1234 0048 00180240 		.word	1073879040
 1235 004c 00080240 		.word	1073874944
 1236 0050 00000240 		.word	1073872896
 1237              		.cfi_endproc
 1238              	.LFE151:
 1240              		.section	.text.HAL_I2C_MspInit,"ax",%progbits
 1241              		.align	1
 1242              		.global	HAL_I2C_MspInit
 1243              		.syntax unified
 1244              		.thumb
 1245              		.thumb_func
 1246              		.fpu fpv5-sp-d16
 1248              	HAL_I2C_MspInit:
 1249              	.LFB152:
 490:Core/Src/stm32f7xx_hal_msp.c ****   GPIO_InitTypeDef GPIO_InitStruct = {0};
 1250              		.loc 1 490 0
 1251              		.cfi_startproc
 1252              		@ args = 0, pretend = 0, frame = 40
 1253              		@ frame_needed = 0, uses_anonymous_args = 0
 1254              	.LVL68:
 1255 0000 10B5     		push	{r4, lr}
 1256              	.LCFI29:
 1257              		.cfi_def_cfa_offset 8
 1258              		.cfi_offset 4, -8
 1259              		.cfi_offset 14, -4
 1260 0002 8AB0     		sub	sp, sp, #40
ARM GAS  /tmp/ccJDgDyU.s 			page 56


 1261              	.LCFI30:
 1262              		.cfi_def_cfa_offset 48
 491:Core/Src/stm32f7xx_hal_msp.c ****   if(hi2c->Instance==I2C1)
 1263              		.loc 1 491 0
 1264 0004 0023     		movs	r3, #0
 1265 0006 0593     		str	r3, [sp, #20]
 1266 0008 0693     		str	r3, [sp, #24]
 1267 000a 0793     		str	r3, [sp, #28]
 1268 000c 0893     		str	r3, [sp, #32]
 1269 000e 0993     		str	r3, [sp, #36]
 492:Core/Src/stm32f7xx_hal_msp.c ****   {
 1270              		.loc 1 492 0
 1271 0010 0368     		ldr	r3, [r0]
 1272 0012 264A     		ldr	r2, .L89
 1273 0014 9342     		cmp	r3, r2
 1274 0016 04D0     		beq	.L87
 516:Core/Src/stm32f7xx_hal_msp.c ****   {
 1275              		.loc 1 516 0
 1276 0018 254A     		ldr	r2, .L89+4
 1277 001a 9342     		cmp	r3, r2
 1278 001c 22D0     		beq	.L88
 1279              	.LVL69:
 1280              	.L83:
 541:Core/Src/stm32f7xx_hal_msp.c **** 
 1281              		.loc 1 541 0
 1282 001e 0AB0     		add	sp, sp, #40
 1283              	.LCFI31:
 1284              		.cfi_remember_state
 1285              		.cfi_def_cfa_offset 8
 1286              		@ sp needed
 1287 0020 10BD     		pop	{r4, pc}
 1288              	.LVL70:
 1289              	.L87:
 1290              	.LCFI32:
 1291              		.cfi_restore_state
 1292              	.LBB22:
 498:Core/Src/stm32f7xx_hal_msp.c ****     /**I2C1 GPIO Configuration    
 1293              		.loc 1 498 0
 1294 0022 244C     		ldr	r4, .L89+8
 1295 0024 236B     		ldr	r3, [r4, #48]
 1296 0026 43F00203 		orr	r3, r3, #2
 1297 002a 2363     		str	r3, [r4, #48]
 1298 002c 236B     		ldr	r3, [r4, #48]
 1299 002e 03F00203 		and	r3, r3, #2
 1300 0032 0193     		str	r3, [sp, #4]
 1301 0034 019B     		ldr	r3, [sp, #4]
 1302              	.LBE22:
 503:Core/Src/stm32f7xx_hal_msp.c ****     GPIO_InitStruct.Mode = GPIO_MODE_AF_OD;
 1303              		.loc 1 503 0
 1304 0036 4FF44073 		mov	r3, #768
 1305 003a 0593     		str	r3, [sp, #20]
 504:Core/Src/stm32f7xx_hal_msp.c ****     GPIO_InitStruct.Pull = GPIO_PULLUP;
 1306              		.loc 1 504 0
 1307 003c 1223     		movs	r3, #18
 1308 003e 0693     		str	r3, [sp, #24]
 505:Core/Src/stm32f7xx_hal_msp.c ****     GPIO_InitStruct.Speed = GPIO_SPEED_FREQ_LOW;
 1309              		.loc 1 505 0
ARM GAS  /tmp/ccJDgDyU.s 			page 57


 1310 0040 0123     		movs	r3, #1
 1311 0042 0793     		str	r3, [sp, #28]
 507:Core/Src/stm32f7xx_hal_msp.c ****     HAL_GPIO_Init(GPIOB, &GPIO_InitStruct);
 1312              		.loc 1 507 0
 1313 0044 0423     		movs	r3, #4
 1314 0046 0993     		str	r3, [sp, #36]
 508:Core/Src/stm32f7xx_hal_msp.c **** 
 1315              		.loc 1 508 0
 1316 0048 05A9     		add	r1, sp, #20
 1317 004a 1B48     		ldr	r0, .L89+12
 1318              	.LVL71:
 1319 004c FFF7FEFF 		bl	HAL_GPIO_Init
 1320              	.LVL72:
 1321              	.LBB23:
 511:Core/Src/stm32f7xx_hal_msp.c ****   /* USER CODE BEGIN I2C1_MspInit 1 */
 1322              		.loc 1 511 0
 1323 0050 236C     		ldr	r3, [r4, #64]
 1324 0052 43F40013 		orr	r3, r3, #2097152
 1325 0056 2364     		str	r3, [r4, #64]
 1326 0058 236C     		ldr	r3, [r4, #64]
 1327 005a 03F40013 		and	r3, r3, #2097152
 1328 005e 0293     		str	r3, [sp, #8]
 1329 0060 029B     		ldr	r3, [sp, #8]
 1330              	.LBE23:
 1331 0062 DCE7     		b	.L83
 1332              	.LVL73:
 1333              	.L88:
 1334              	.LBB24:
 522:Core/Src/stm32f7xx_hal_msp.c ****     /**I2C3 GPIO Configuration    
 1335              		.loc 1 522 0
 1336 0064 134C     		ldr	r4, .L89+8
 1337 0066 236B     		ldr	r3, [r4, #48]
 1338 0068 43F08003 		orr	r3, r3, #128
 1339 006c 2363     		str	r3, [r4, #48]
 1340 006e 236B     		ldr	r3, [r4, #48]
 1341 0070 03F08003 		and	r3, r3, #128
 1342 0074 0393     		str	r3, [sp, #12]
 1343 0076 039B     		ldr	r3, [sp, #12]
 1344              	.LBE24:
 527:Core/Src/stm32f7xx_hal_msp.c ****     GPIO_InitStruct.Mode = GPIO_MODE_AF_OD;
 1345              		.loc 1 527 0
 1346 0078 4FF4C073 		mov	r3, #384
 1347 007c 0593     		str	r3, [sp, #20]
 528:Core/Src/stm32f7xx_hal_msp.c ****     GPIO_InitStruct.Pull = GPIO_PULLUP;
 1348              		.loc 1 528 0
 1349 007e 1223     		movs	r3, #18
 1350 0080 0693     		str	r3, [sp, #24]
 529:Core/Src/stm32f7xx_hal_msp.c ****     GPIO_InitStruct.Speed = GPIO_SPEED_FREQ_VERY_HIGH;
 1351              		.loc 1 529 0
 1352 0082 0123     		movs	r3, #1
 1353 0084 0793     		str	r3, [sp, #28]
 530:Core/Src/stm32f7xx_hal_msp.c ****     GPIO_InitStruct.Alternate = GPIO_AF4_I2C3;
 1354              		.loc 1 530 0
 1355 0086 0323     		movs	r3, #3
 1356 0088 0893     		str	r3, [sp, #32]
 531:Core/Src/stm32f7xx_hal_msp.c ****     HAL_GPIO_Init(GPIOH, &GPIO_InitStruct);
 1357              		.loc 1 531 0
ARM GAS  /tmp/ccJDgDyU.s 			page 58


 1358 008a 0423     		movs	r3, #4
 1359 008c 0993     		str	r3, [sp, #36]
 532:Core/Src/stm32f7xx_hal_msp.c **** 
 1360              		.loc 1 532 0
 1361 008e 05A9     		add	r1, sp, #20
 1362 0090 0A48     		ldr	r0, .L89+16
 1363              	.LVL74:
 1364 0092 FFF7FEFF 		bl	HAL_GPIO_Init
 1365              	.LVL75:
 1366              	.LBB25:
 535:Core/Src/stm32f7xx_hal_msp.c ****   /* USER CODE BEGIN I2C3_MspInit 1 */
 1367              		.loc 1 535 0
 1368 0096 236C     		ldr	r3, [r4, #64]
 1369 0098 43F40003 		orr	r3, r3, #8388608
 1370 009c 2364     		str	r3, [r4, #64]
 1371 009e 236C     		ldr	r3, [r4, #64]
 1372 00a0 03F40003 		and	r3, r3, #8388608
 1373 00a4 0493     		str	r3, [sp, #16]
 1374 00a6 049B     		ldr	r3, [sp, #16]
 1375              	.LBE25:
 541:Core/Src/stm32f7xx_hal_msp.c **** 
 1376              		.loc 1 541 0
 1377 00a8 B9E7     		b	.L83
 1378              	.L90:
 1379 00aa 00BF     		.align	2
 1380              	.L89:
 1381 00ac 00540040 		.word	1073763328
 1382 00b0 005C0040 		.word	1073765376
 1383 00b4 00380240 		.word	1073887232
 1384 00b8 00040240 		.word	1073873920
 1385 00bc 001C0240 		.word	1073880064
 1386              		.cfi_endproc
 1387              	.LFE152:
 1389              		.section	.text.HAL_I2C_MspDeInit,"ax",%progbits
 1390              		.align	1
 1391              		.global	HAL_I2C_MspDeInit
 1392              		.syntax unified
 1393              		.thumb
 1394              		.thumb_func
 1395              		.fpu fpv5-sp-d16
 1397              	HAL_I2C_MspDeInit:
 1398              	.LFB153:
 550:Core/Src/stm32f7xx_hal_msp.c ****   if(hi2c->Instance==I2C1)
 1399              		.loc 1 550 0
 1400              		.cfi_startproc
 1401              		@ args = 0, pretend = 0, frame = 0
 1402              		@ frame_needed = 0, uses_anonymous_args = 0
 1403              	.LVL76:
 1404 0000 08B5     		push	{r3, lr}
 1405              	.LCFI33:
 1406              		.cfi_def_cfa_offset 8
 1407              		.cfi_offset 3, -8
 1408              		.cfi_offset 14, -4
 551:Core/Src/stm32f7xx_hal_msp.c ****   {
 1409              		.loc 1 551 0
 1410 0002 0368     		ldr	r3, [r0]
 1411 0004 0F4A     		ldr	r2, .L97
ARM GAS  /tmp/ccJDgDyU.s 			page 59


 1412 0006 9342     		cmp	r3, r2
 1413 0008 03D0     		beq	.L95
 569:Core/Src/stm32f7xx_hal_msp.c ****   {
 1414              		.loc 1 569 0
 1415 000a 0F4A     		ldr	r2, .L97+4
 1416 000c 9342     		cmp	r3, r2
 1417 000e 0CD0     		beq	.L96
 1418              	.LVL77:
 1419              	.L91:
 588:Core/Src/stm32f7xx_hal_msp.c **** 
 1420              		.loc 1 588 0
 1421 0010 08BD     		pop	{r3, pc}
 1422              	.LVL78:
 1423              	.L95:
 557:Core/Src/stm32f7xx_hal_msp.c ****   
 1424              		.loc 1 557 0
 1425 0012 02F5F232 		add	r2, r2, #123904
 1426 0016 136C     		ldr	r3, [r2, #64]
 1427 0018 23F40013 		bic	r3, r3, #2097152
 1428 001c 1364     		str	r3, [r2, #64]
 563:Core/Src/stm32f7xx_hal_msp.c **** 
 1429              		.loc 1 563 0
 1430 001e 4FF44071 		mov	r1, #768
 1431 0022 0A48     		ldr	r0, .L97+8
 1432              	.LVL79:
 1433 0024 FFF7FEFF 		bl	HAL_GPIO_DeInit
 1434              	.LVL80:
 1435 0028 F2E7     		b	.L91
 1436              	.LVL81:
 1437              	.L96:
 575:Core/Src/stm32f7xx_hal_msp.c ****   
 1438              		.loc 1 575 0
 1439 002a 02F5EE32 		add	r2, r2, #121856
 1440 002e 136C     		ldr	r3, [r2, #64]
 1441 0030 23F40003 		bic	r3, r3, #8388608
 1442 0034 1364     		str	r3, [r2, #64]
 581:Core/Src/stm32f7xx_hal_msp.c **** 
 1443              		.loc 1 581 0
 1444 0036 4FF4C071 		mov	r1, #384
 1445 003a 0548     		ldr	r0, .L97+12
 1446              	.LVL82:
 1447 003c FFF7FEFF 		bl	HAL_GPIO_DeInit
 1448              	.LVL83:
 588:Core/Src/stm32f7xx_hal_msp.c **** 
 1449              		.loc 1 588 0
 1450 0040 E6E7     		b	.L91
 1451              	.L98:
 1452 0042 00BF     		.align	2
 1453              	.L97:
 1454 0044 00540040 		.word	1073763328
 1455 0048 005C0040 		.word	1073765376
 1456 004c 00040240 		.word	1073873920
 1457 0050 001C0240 		.word	1073880064
 1458              		.cfi_endproc
 1459              	.LFE153:
 1461              		.section	.text.HAL_LTDC_MspInit,"ax",%progbits
 1462              		.align	1
ARM GAS  /tmp/ccJDgDyU.s 			page 60


 1463              		.global	HAL_LTDC_MspInit
 1464              		.syntax unified
 1465              		.thumb
 1466              		.thumb_func
 1467              		.fpu fpv5-sp-d16
 1469              	HAL_LTDC_MspInit:
 1470              	.LFB154:
 597:Core/Src/stm32f7xx_hal_msp.c ****   GPIO_InitTypeDef GPIO_InitStruct = {0};
 1471              		.loc 1 597 0
 1472              		.cfi_startproc
 1473              		@ args = 0, pretend = 0, frame = 48
 1474              		@ frame_needed = 0, uses_anonymous_args = 0
 1475              	.LVL84:
 1476 0000 70B5     		push	{r4, r5, r6, lr}
 1477              	.LCFI34:
 1478              		.cfi_def_cfa_offset 16
 1479              		.cfi_offset 4, -16
 1480              		.cfi_offset 5, -12
 1481              		.cfi_offset 6, -8
 1482              		.cfi_offset 14, -4
 1483 0002 8CB0     		sub	sp, sp, #48
 1484              	.LCFI35:
 1485              		.cfi_def_cfa_offset 64
 598:Core/Src/stm32f7xx_hal_msp.c ****   if(hltdc->Instance==LTDC)
 1486              		.loc 1 598 0
 1487 0004 0023     		movs	r3, #0
 1488 0006 0793     		str	r3, [sp, #28]
 1489 0008 0893     		str	r3, [sp, #32]
 1490 000a 0993     		str	r3, [sp, #36]
 1491 000c 0A93     		str	r3, [sp, #40]
 1492 000e 0B93     		str	r3, [sp, #44]
 599:Core/Src/stm32f7xx_hal_msp.c ****   {
 1493              		.loc 1 599 0
 1494 0010 0268     		ldr	r2, [r0]
 1495 0012 3E4B     		ldr	r3, .L103
 1496 0014 9A42     		cmp	r2, r3
 1497 0016 01D0     		beq	.L102
 1498              	.LVL85:
 1499              	.L99:
 689:Core/Src/stm32f7xx_hal_msp.c **** 
 1500              		.loc 1 689 0
 1501 0018 0CB0     		add	sp, sp, #48
 1502              	.LCFI36:
 1503              		.cfi_remember_state
 1504              		.cfi_def_cfa_offset 16
 1505              		@ sp needed
 1506 001a 70BD     		pop	{r4, r5, r6, pc}
 1507              	.LVL86:
 1508              	.L102:
 1509              	.LCFI37:
 1510              		.cfi_restore_state
 1511              	.LBB26:
 605:Core/Src/stm32f7xx_hal_msp.c ****   
 1512              		.loc 1 605 0
 1513 001c 03F55043 		add	r3, r3, #53248
 1514 0020 5A6C     		ldr	r2, [r3, #68]
 1515 0022 42F08062 		orr	r2, r2, #67108864
ARM GAS  /tmp/ccJDgDyU.s 			page 61


 1516 0026 5A64     		str	r2, [r3, #68]
 1517 0028 5A6C     		ldr	r2, [r3, #68]
 1518 002a 02F08062 		and	r2, r2, #67108864
 1519 002e 0192     		str	r2, [sp, #4]
 1520 0030 019A     		ldr	r2, [sp, #4]
 1521              	.LBE26:
 1522              	.LBB27:
 607:Core/Src/stm32f7xx_hal_msp.c ****     __HAL_RCC_GPIOJ_CLK_ENABLE();
 1523              		.loc 1 607 0
 1524 0032 1A6B     		ldr	r2, [r3, #48]
 1525 0034 42F01002 		orr	r2, r2, #16
 1526 0038 1A63     		str	r2, [r3, #48]
 1527 003a 1A6B     		ldr	r2, [r3, #48]
 1528 003c 02F01002 		and	r2, r2, #16
 1529 0040 0292     		str	r2, [sp, #8]
 1530 0042 029A     		ldr	r2, [sp, #8]
 1531              	.LBE27:
 1532              	.LBB28:
 608:Core/Src/stm32f7xx_hal_msp.c ****     __HAL_RCC_GPIOK_CLK_ENABLE();
 1533              		.loc 1 608 0
 1534 0044 1A6B     		ldr	r2, [r3, #48]
 1535 0046 42F40072 		orr	r2, r2, #512
 1536 004a 1A63     		str	r2, [r3, #48]
 1537 004c 1A6B     		ldr	r2, [r3, #48]
 1538 004e 02F40072 		and	r2, r2, #512
 1539 0052 0392     		str	r2, [sp, #12]
 1540 0054 039A     		ldr	r2, [sp, #12]
 1541              	.LBE28:
 1542              	.LBB29:
 609:Core/Src/stm32f7xx_hal_msp.c ****     __HAL_RCC_GPIOG_CLK_ENABLE();
 1543              		.loc 1 609 0
 1544 0056 1A6B     		ldr	r2, [r3, #48]
 1545 0058 42F48062 		orr	r2, r2, #1024
 1546 005c 1A63     		str	r2, [r3, #48]
 1547 005e 1A6B     		ldr	r2, [r3, #48]
 1548 0060 02F48062 		and	r2, r2, #1024
 1549 0064 0492     		str	r2, [sp, #16]
 1550 0066 049A     		ldr	r2, [sp, #16]
 1551              	.LBE29:
 1552              	.LBB30:
 610:Core/Src/stm32f7xx_hal_msp.c ****     __HAL_RCC_GPIOI_CLK_ENABLE();
 1553              		.loc 1 610 0
 1554 0068 1A6B     		ldr	r2, [r3, #48]
 1555 006a 42F04002 		orr	r2, r2, #64
 1556 006e 1A63     		str	r2, [r3, #48]
 1557 0070 1A6B     		ldr	r2, [r3, #48]
 1558 0072 02F04002 		and	r2, r2, #64
 1559 0076 0592     		str	r2, [sp, #20]
 1560 0078 059A     		ldr	r2, [sp, #20]
 1561              	.LBE30:
 1562              	.LBB31:
 611:Core/Src/stm32f7xx_hal_msp.c ****     /**LTDC GPIO Configuration    
 1563              		.loc 1 611 0
 1564 007a 1A6B     		ldr	r2, [r3, #48]
 1565 007c 42F48072 		orr	r2, r2, #256
 1566 0080 1A63     		str	r2, [r3, #48]
 1567 0082 1B6B     		ldr	r3, [r3, #48]
ARM GAS  /tmp/ccJDgDyU.s 			page 62


 1568 0084 03F48073 		and	r3, r3, #256
 1569 0088 0693     		str	r3, [sp, #24]
 1570 008a 069B     		ldr	r3, [sp, #24]
 1571              	.LBE31:
 642:Core/Src/stm32f7xx_hal_msp.c ****     GPIO_InitStruct.Mode = GPIO_MODE_AF_PP;
 1572              		.loc 1 642 0
 1573 008c 1023     		movs	r3, #16
 1574 008e 0793     		str	r3, [sp, #28]
 643:Core/Src/stm32f7xx_hal_msp.c ****     GPIO_InitStruct.Pull = GPIO_NOPULL;
 1575              		.loc 1 643 0
 1576 0090 0225     		movs	r5, #2
 1577 0092 0895     		str	r5, [sp, #32]
 646:Core/Src/stm32f7xx_hal_msp.c ****     HAL_GPIO_Init(LCD_B0_GPIO_Port, &GPIO_InitStruct);
 1578              		.loc 1 646 0
 1579 0094 0E26     		movs	r6, #14
 1580 0096 0B96     		str	r6, [sp, #44]
 647:Core/Src/stm32f7xx_hal_msp.c **** 
 1581              		.loc 1 647 0
 1582 0098 07A9     		add	r1, sp, #28
 1583 009a 1D48     		ldr	r0, .L103+4
 1584              	.LVL87:
 1585 009c FFF7FEFF 		bl	HAL_GPIO_Init
 1586              	.LVL88:
 649:Core/Src/stm32f7xx_hal_msp.c ****                           |LCD_G1_Pin|LCD_G3_Pin|LCD_G0_Pin|LCD_G2_Pin 
 1587              		.loc 1 649 0
 1588 00a0 4EF6FF73 		movw	r3, #61439
 1589 00a4 0793     		str	r3, [sp, #28]
 653:Core/Src/stm32f7xx_hal_msp.c ****     GPIO_InitStruct.Pull = GPIO_NOPULL;
 1590              		.loc 1 653 0
 1591 00a6 0895     		str	r5, [sp, #32]
 654:Core/Src/stm32f7xx_hal_msp.c ****     GPIO_InitStruct.Speed = GPIO_SPEED_FREQ_LOW;
 1592              		.loc 1 654 0
 1593 00a8 0024     		movs	r4, #0
 1594 00aa 0994     		str	r4, [sp, #36]
 655:Core/Src/stm32f7xx_hal_msp.c ****     GPIO_InitStruct.Alternate = GPIO_AF14_LTDC;
 1595              		.loc 1 655 0
 1596 00ac 0A94     		str	r4, [sp, #40]
 656:Core/Src/stm32f7xx_hal_msp.c ****     HAL_GPIO_Init(GPIOJ, &GPIO_InitStruct);
 1597              		.loc 1 656 0
 1598 00ae 0B96     		str	r6, [sp, #44]
 657:Core/Src/stm32f7xx_hal_msp.c **** 
 1599              		.loc 1 657 0
 1600 00b0 07A9     		add	r1, sp, #28
 1601 00b2 1848     		ldr	r0, .L103+8
 1602 00b4 FFF7FEFF 		bl	HAL_GPIO_Init
 1603              	.LVL89:
 659:Core/Src/stm32f7xx_hal_msp.c ****                           |LCD_G6_Pin|LCD_G7_Pin|LCD_G5_Pin;
 1604              		.loc 1 659 0
 1605 00b8 F723     		movs	r3, #247
 1606 00ba 0793     		str	r3, [sp, #28]
 661:Core/Src/stm32f7xx_hal_msp.c ****     GPIO_InitStruct.Pull = GPIO_NOPULL;
 1607              		.loc 1 661 0
 1608 00bc 0895     		str	r5, [sp, #32]
 662:Core/Src/stm32f7xx_hal_msp.c ****     GPIO_InitStruct.Speed = GPIO_SPEED_FREQ_LOW;
 1609              		.loc 1 662 0
 1610 00be 0994     		str	r4, [sp, #36]
 663:Core/Src/stm32f7xx_hal_msp.c ****     GPIO_InitStruct.Alternate = GPIO_AF14_LTDC;
ARM GAS  /tmp/ccJDgDyU.s 			page 63


 1611              		.loc 1 663 0
 1612 00c0 0A94     		str	r4, [sp, #40]
 664:Core/Src/stm32f7xx_hal_msp.c ****     HAL_GPIO_Init(GPIOK, &GPIO_InitStruct);
 1613              		.loc 1 664 0
 1614 00c2 0B96     		str	r6, [sp, #44]
 665:Core/Src/stm32f7xx_hal_msp.c **** 
 1615              		.loc 1 665 0
 1616 00c4 07A9     		add	r1, sp, #28
 1617 00c6 1448     		ldr	r0, .L103+12
 1618 00c8 FFF7FEFF 		bl	HAL_GPIO_Init
 1619              	.LVL90:
 667:Core/Src/stm32f7xx_hal_msp.c ****     GPIO_InitStruct.Mode = GPIO_MODE_AF_PP;
 1620              		.loc 1 667 0
 1621 00cc 4FF48053 		mov	r3, #4096
 1622 00d0 0793     		str	r3, [sp, #28]
 668:Core/Src/stm32f7xx_hal_msp.c ****     GPIO_InitStruct.Pull = GPIO_NOPULL;
 1623              		.loc 1 668 0
 1624 00d2 0895     		str	r5, [sp, #32]
 669:Core/Src/stm32f7xx_hal_msp.c ****     GPIO_InitStruct.Speed = GPIO_SPEED_FREQ_LOW;
 1625              		.loc 1 669 0
 1626 00d4 0994     		str	r4, [sp, #36]
 670:Core/Src/stm32f7xx_hal_msp.c ****     GPIO_InitStruct.Alternate = GPIO_AF9_LTDC;
 1627              		.loc 1 670 0
 1628 00d6 0A94     		str	r4, [sp, #40]
 671:Core/Src/stm32f7xx_hal_msp.c ****     HAL_GPIO_Init(LCD_B4_GPIO_Port, &GPIO_InitStruct);
 1629              		.loc 1 671 0
 1630 00d8 0923     		movs	r3, #9
 1631 00da 0B93     		str	r3, [sp, #44]
 672:Core/Src/stm32f7xx_hal_msp.c **** 
 1632              		.loc 1 672 0
 1633 00dc 07A9     		add	r1, sp, #28
 1634 00de 0F48     		ldr	r0, .L103+16
 1635 00e0 FFF7FEFF 		bl	HAL_GPIO_Init
 1636              	.LVL91:
 674:Core/Src/stm32f7xx_hal_msp.c ****     GPIO_InitStruct.Mode = GPIO_MODE_AF_PP;
 1637              		.loc 1 674 0
 1638 00e4 4FF44643 		mov	r3, #50688
 1639 00e8 0793     		str	r3, [sp, #28]
 675:Core/Src/stm32f7xx_hal_msp.c ****     GPIO_InitStruct.Pull = GPIO_NOPULL;
 1640              		.loc 1 675 0
 1641 00ea 0895     		str	r5, [sp, #32]
 676:Core/Src/stm32f7xx_hal_msp.c ****     GPIO_InitStruct.Speed = GPIO_SPEED_FREQ_LOW;
 1642              		.loc 1 676 0
 1643 00ec 0994     		str	r4, [sp, #36]
 677:Core/Src/stm32f7xx_hal_msp.c ****     GPIO_InitStruct.Alternate = GPIO_AF14_LTDC;
 1644              		.loc 1 677 0
 1645 00ee 0A94     		str	r4, [sp, #40]
 678:Core/Src/stm32f7xx_hal_msp.c ****     HAL_GPIO_Init(GPIOI, &GPIO_InitStruct);
 1646              		.loc 1 678 0
 1647 00f0 0B96     		str	r6, [sp, #44]
 679:Core/Src/stm32f7xx_hal_msp.c **** 
 1648              		.loc 1 679 0
 1649 00f2 07A9     		add	r1, sp, #28
 1650 00f4 0A48     		ldr	r0, .L103+20
 1651 00f6 FFF7FEFF 		bl	HAL_GPIO_Init
 1652              	.LVL92:
 682:Core/Src/stm32f7xx_hal_msp.c ****     HAL_NVIC_EnableIRQ(LTDC_IRQn);
ARM GAS  /tmp/ccJDgDyU.s 			page 64


 1653              		.loc 1 682 0
 1654 00fa 2246     		mov	r2, r4
 1655 00fc 0521     		movs	r1, #5
 1656 00fe 5820     		movs	r0, #88
 1657 0100 FFF7FEFF 		bl	HAL_NVIC_SetPriority
 1658              	.LVL93:
 683:Core/Src/stm32f7xx_hal_msp.c ****   /* USER CODE BEGIN LTDC_MspInit 1 */
 1659              		.loc 1 683 0
 1660 0104 5820     		movs	r0, #88
 1661 0106 FFF7FEFF 		bl	HAL_NVIC_EnableIRQ
 1662              	.LVL94:
 689:Core/Src/stm32f7xx_hal_msp.c **** 
 1663              		.loc 1 689 0
 1664 010a 85E7     		b	.L99
 1665              	.L104:
 1666              		.align	2
 1667              	.L103:
 1668 010c 00680140 		.word	1073833984
 1669 0110 00100240 		.word	1073876992
 1670 0114 00240240 		.word	1073882112
 1671 0118 00280240 		.word	1073883136
 1672 011c 00180240 		.word	1073879040
 1673 0120 00200240 		.word	1073881088
 1674              		.cfi_endproc
 1675              	.LFE154:
 1677              		.section	.text.HAL_LTDC_MspDeInit,"ax",%progbits
 1678              		.align	1
 1679              		.global	HAL_LTDC_MspDeInit
 1680              		.syntax unified
 1681              		.thumb
 1682              		.thumb_func
 1683              		.fpu fpv5-sp-d16
 1685              	HAL_LTDC_MspDeInit:
 1686              	.LFB155:
 698:Core/Src/stm32f7xx_hal_msp.c ****   if(hltdc->Instance==LTDC)
 1687              		.loc 1 698 0
 1688              		.cfi_startproc
 1689              		@ args = 0, pretend = 0, frame = 0
 1690              		@ frame_needed = 0, uses_anonymous_args = 0
 1691              	.LVL95:
 1692 0000 08B5     		push	{r3, lr}
 1693              	.LCFI38:
 1694              		.cfi_def_cfa_offset 8
 1695              		.cfi_offset 3, -8
 1696              		.cfi_offset 14, -4
 699:Core/Src/stm32f7xx_hal_msp.c ****   {
 1697              		.loc 1 699 0
 1698 0002 0268     		ldr	r2, [r0]
 1699 0004 114B     		ldr	r3, .L109
 1700 0006 9A42     		cmp	r2, r3
 1701 0008 00D0     		beq	.L108
 1702              	.LVL96:
 1703              	.L105:
 758:Core/Src/stm32f7xx_hal_msp.c **** 
 1704              		.loc 1 758 0
 1705 000a 08BD     		pop	{r3, pc}
 1706              	.LVL97:
ARM GAS  /tmp/ccJDgDyU.s 			page 65


 1707              	.L108:
 705:Core/Src/stm32f7xx_hal_msp.c ****   
 1708              		.loc 1 705 0
 1709 000c 104A     		ldr	r2, .L109+4
 1710 000e 536C     		ldr	r3, [r2, #68]
 1711 0010 23F08063 		bic	r3, r3, #67108864
 1712 0014 5364     		str	r3, [r2, #68]
 737:Core/Src/stm32f7xx_hal_msp.c **** 
 1713              		.loc 1 737 0
 1714 0016 1021     		movs	r1, #16
 1715 0018 0E48     		ldr	r0, .L109+8
 1716              	.LVL98:
 1717 001a FFF7FEFF 		bl	HAL_GPIO_DeInit
 1718              	.LVL99:
 739:Core/Src/stm32f7xx_hal_msp.c ****                           |LCD_G1_Pin|LCD_G3_Pin|LCD_G0_Pin|LCD_G2_Pin 
 1719              		.loc 1 739 0
 1720 001e 4EF6FF71 		movw	r1, #61439
 1721 0022 0D48     		ldr	r0, .L109+12
 1722 0024 FFF7FEFF 		bl	HAL_GPIO_DeInit
 1723              	.LVL100:
 744:Core/Src/stm32f7xx_hal_msp.c ****                           |LCD_G6_Pin|LCD_G7_Pin|LCD_G5_Pin);
 1724              		.loc 1 744 0
 1725 0028 F721     		movs	r1, #247
 1726 002a 0C48     		ldr	r0, .L109+16
 1727 002c FFF7FEFF 		bl	HAL_GPIO_DeInit
 1728              	.LVL101:
 747:Core/Src/stm32f7xx_hal_msp.c **** 
 1729              		.loc 1 747 0
 1730 0030 4FF48051 		mov	r1, #4096
 1731 0034 0A48     		ldr	r0, .L109+20
 1732 0036 FFF7FEFF 		bl	HAL_GPIO_DeInit
 1733              	.LVL102:
 749:Core/Src/stm32f7xx_hal_msp.c **** 
 1734              		.loc 1 749 0
 1735 003a 4FF44641 		mov	r1, #50688
 1736 003e 0948     		ldr	r0, .L109+24
 1737 0040 FFF7FEFF 		bl	HAL_GPIO_DeInit
 1738              	.LVL103:
 752:Core/Src/stm32f7xx_hal_msp.c ****   /* USER CODE BEGIN LTDC_MspDeInit 1 */
 1739              		.loc 1 752 0
 1740 0044 5820     		movs	r0, #88
 1741 0046 FFF7FEFF 		bl	HAL_NVIC_DisableIRQ
 1742              	.LVL104:
 758:Core/Src/stm32f7xx_hal_msp.c **** 
 1743              		.loc 1 758 0
 1744 004a DEE7     		b	.L105
 1745              	.L110:
 1746              		.align	2
 1747              	.L109:
 1748 004c 00680140 		.word	1073833984
 1749 0050 00380240 		.word	1073887232
 1750 0054 00100240 		.word	1073876992
 1751 0058 00240240 		.word	1073882112
 1752 005c 00280240 		.word	1073883136
 1753 0060 00180240 		.word	1073879040
 1754 0064 00200240 		.word	1073881088
 1755              		.cfi_endproc
ARM GAS  /tmp/ccJDgDyU.s 			page 66


 1756              	.LFE155:
 1758              		.section	.text.HAL_QSPI_MspInit,"ax",%progbits
 1759              		.align	1
 1760              		.global	HAL_QSPI_MspInit
 1761              		.syntax unified
 1762              		.thumb
 1763              		.thumb_func
 1764              		.fpu fpv5-sp-d16
 1766              	HAL_QSPI_MspInit:
 1767              	.LFB156:
 767:Core/Src/stm32f7xx_hal_msp.c ****   GPIO_InitTypeDef GPIO_InitStruct = {0};
 1768              		.loc 1 767 0
 1769              		.cfi_startproc
 1770              		@ args = 0, pretend = 0, frame = 40
 1771              		@ frame_needed = 0, uses_anonymous_args = 0
 1772              	.LVL105:
 1773 0000 2DE9F043 		push	{r4, r5, r6, r7, r8, r9, lr}
 1774              	.LCFI39:
 1775              		.cfi_def_cfa_offset 28
 1776              		.cfi_offset 4, -28
 1777              		.cfi_offset 5, -24
 1778              		.cfi_offset 6, -20
 1779              		.cfi_offset 7, -16
 1780              		.cfi_offset 8, -12
 1781              		.cfi_offset 9, -8
 1782              		.cfi_offset 14, -4
 1783 0004 8BB0     		sub	sp, sp, #44
 1784              	.LCFI40:
 1785              		.cfi_def_cfa_offset 72
 768:Core/Src/stm32f7xx_hal_msp.c ****   if(hqspi->Instance==QUADSPI)
 1786              		.loc 1 768 0
 1787 0006 0023     		movs	r3, #0
 1788 0008 0593     		str	r3, [sp, #20]
 1789 000a 0693     		str	r3, [sp, #24]
 1790 000c 0793     		str	r3, [sp, #28]
 1791 000e 0893     		str	r3, [sp, #32]
 1792 0010 0993     		str	r3, [sp, #36]
 769:Core/Src/stm32f7xx_hal_msp.c ****   {
 1793              		.loc 1 769 0
 1794 0012 0268     		ldr	r2, [r0]
 1795 0014 2E4B     		ldr	r3, .L115
 1796 0016 9A42     		cmp	r2, r3
 1797 0018 02D0     		beq	.L114
 1798              	.LVL106:
 1799              	.L111:
 821:Core/Src/stm32f7xx_hal_msp.c **** 
 1800              		.loc 1 821 0
 1801 001a 0BB0     		add	sp, sp, #44
 1802              	.LCFI41:
 1803              		.cfi_remember_state
 1804              		.cfi_def_cfa_offset 28
 1805              		@ sp needed
 1806 001c BDE8F083 		pop	{r4, r5, r6, r7, r8, r9, pc}
 1807              	.LVL107:
 1808              	.L114:
 1809              	.LCFI42:
 1810              		.cfi_restore_state
ARM GAS  /tmp/ccJDgDyU.s 			page 67


 1811              	.LBB32:
 775:Core/Src/stm32f7xx_hal_msp.c ****   
 1812              		.loc 1 775 0
 1813 0020 2C4B     		ldr	r3, .L115+4
 1814 0022 9A6B     		ldr	r2, [r3, #56]
 1815 0024 42F00202 		orr	r2, r2, #2
 1816 0028 9A63     		str	r2, [r3, #56]
 1817 002a 9A6B     		ldr	r2, [r3, #56]
 1818 002c 02F00202 		and	r2, r2, #2
 1819 0030 0192     		str	r2, [sp, #4]
 1820 0032 019A     		ldr	r2, [sp, #4]
 1821              	.LBE32:
 1822              	.LBB33:
 777:Core/Src/stm32f7xx_hal_msp.c ****     __HAL_RCC_GPIOB_CLK_ENABLE();
 1823              		.loc 1 777 0
 1824 0034 1A6B     		ldr	r2, [r3, #48]
 1825 0036 42F01002 		orr	r2, r2, #16
 1826 003a 1A63     		str	r2, [r3, #48]
 1827 003c 1A6B     		ldr	r2, [r3, #48]
 1828 003e 02F01002 		and	r2, r2, #16
 1829 0042 0292     		str	r2, [sp, #8]
 1830 0044 029A     		ldr	r2, [sp, #8]
 1831              	.LBE33:
 1832              	.LBB34:
 778:Core/Src/stm32f7xx_hal_msp.c ****     __HAL_RCC_GPIOD_CLK_ENABLE();
 1833              		.loc 1 778 0
 1834 0046 1A6B     		ldr	r2, [r3, #48]
 1835 0048 42F00202 		orr	r2, r2, #2
 1836 004c 1A63     		str	r2, [r3, #48]
 1837 004e 1A6B     		ldr	r2, [r3, #48]
 1838 0050 02F00202 		and	r2, r2, #2
 1839 0054 0392     		str	r2, [sp, #12]
 1840 0056 039A     		ldr	r2, [sp, #12]
 1841              	.LBE34:
 1842              	.LBB35:
 779:Core/Src/stm32f7xx_hal_msp.c ****     /**QUADSPI GPIO Configuration    
 1843              		.loc 1 779 0
 1844 0058 1A6B     		ldr	r2, [r3, #48]
 1845 005a 42F00802 		orr	r2, r2, #8
 1846 005e 1A63     		str	r2, [r3, #48]
 1847 0060 1B6B     		ldr	r3, [r3, #48]
 1848 0062 03F00803 		and	r3, r3, #8
 1849 0066 0493     		str	r3, [sp, #16]
 1850 0068 049B     		ldr	r3, [sp, #16]
 1851              	.LBE35:
 788:Core/Src/stm32f7xx_hal_msp.c ****     GPIO_InitStruct.Mode = GPIO_MODE_AF_PP;
 1852              		.loc 1 788 0
 1853 006a 4FF00409 		mov	r9, #4
 1854 006e CDF81490 		str	r9, [sp, #20]
 789:Core/Src/stm32f7xx_hal_msp.c ****     GPIO_InitStruct.Pull = GPIO_NOPULL;
 1855              		.loc 1 789 0
 1856 0072 0225     		movs	r5, #2
 1857 0074 0695     		str	r5, [sp, #24]
 791:Core/Src/stm32f7xx_hal_msp.c ****     GPIO_InitStruct.Alternate = GPIO_AF9_QUADSPI;
 1858              		.loc 1 791 0
 1859 0076 0324     		movs	r4, #3
 1860 0078 0894     		str	r4, [sp, #32]
ARM GAS  /tmp/ccJDgDyU.s 			page 68


 792:Core/Src/stm32f7xx_hal_msp.c ****     HAL_GPIO_Init(QSPI_D2_GPIO_Port, &GPIO_InitStruct);
 1861              		.loc 1 792 0
 1862 007a 0926     		movs	r6, #9
 1863 007c 0996     		str	r6, [sp, #36]
 793:Core/Src/stm32f7xx_hal_msp.c **** 
 1864              		.loc 1 793 0
 1865 007e 05A9     		add	r1, sp, #20
 1866 0080 1548     		ldr	r0, .L115+8
 1867              	.LVL108:
 1868 0082 FFF7FEFF 		bl	HAL_GPIO_Init
 1869              	.LVL109:
 795:Core/Src/stm32f7xx_hal_msp.c ****     GPIO_InitStruct.Mode = GPIO_MODE_AF_PP;
 1870              		.loc 1 795 0
 1871 0086 4023     		movs	r3, #64
 1872 0088 0593     		str	r3, [sp, #20]
 796:Core/Src/stm32f7xx_hal_msp.c ****     GPIO_InitStruct.Pull = GPIO_NOPULL;
 1873              		.loc 1 796 0
 1874 008a 0695     		str	r5, [sp, #24]
 797:Core/Src/stm32f7xx_hal_msp.c ****     GPIO_InitStruct.Speed = GPIO_SPEED_FREQ_VERY_HIGH;
 1875              		.loc 1 797 0
 1876 008c 0027     		movs	r7, #0
 1877 008e 0797     		str	r7, [sp, #28]
 798:Core/Src/stm32f7xx_hal_msp.c ****     GPIO_InitStruct.Alternate = GPIO_AF10_QUADSPI;
 1878              		.loc 1 798 0
 1879 0090 0894     		str	r4, [sp, #32]
 799:Core/Src/stm32f7xx_hal_msp.c ****     HAL_GPIO_Init(QSPI_NCS_GPIO_Port, &GPIO_InitStruct);
 1880              		.loc 1 799 0
 1881 0092 0A23     		movs	r3, #10
 1882 0094 0993     		str	r3, [sp, #36]
 800:Core/Src/stm32f7xx_hal_msp.c **** 
 1883              		.loc 1 800 0
 1884 0096 DFF84880 		ldr	r8, .L115+16
 1885 009a 05A9     		add	r1, sp, #20
 1886 009c 4046     		mov	r0, r8
 1887 009e FFF7FEFF 		bl	HAL_GPIO_Init
 1888              	.LVL110:
 802:Core/Src/stm32f7xx_hal_msp.c ****     GPIO_InitStruct.Mode = GPIO_MODE_AF_PP;
 1889              		.loc 1 802 0
 1890 00a2 CDF81490 		str	r9, [sp, #20]
 803:Core/Src/stm32f7xx_hal_msp.c ****     GPIO_InitStruct.Pull = GPIO_NOPULL;
 1891              		.loc 1 803 0
 1892 00a6 0695     		str	r5, [sp, #24]
 804:Core/Src/stm32f7xx_hal_msp.c ****     GPIO_InitStruct.Speed = GPIO_SPEED_FREQ_VERY_HIGH;
 1893              		.loc 1 804 0
 1894 00a8 0797     		str	r7, [sp, #28]
 805:Core/Src/stm32f7xx_hal_msp.c ****     GPIO_InitStruct.Alternate = GPIO_AF9_QUADSPI;
 1895              		.loc 1 805 0
 1896 00aa 0894     		str	r4, [sp, #32]
 806:Core/Src/stm32f7xx_hal_msp.c ****     HAL_GPIO_Init(GPIOB, &GPIO_InitStruct);
 1897              		.loc 1 806 0
 1898 00ac 0996     		str	r6, [sp, #36]
 807:Core/Src/stm32f7xx_hal_msp.c **** 
 1899              		.loc 1 807 0
 1900 00ae 05A9     		add	r1, sp, #20
 1901 00b0 4046     		mov	r0, r8
 1902 00b2 FFF7FEFF 		bl	HAL_GPIO_Init
 1903              	.LVL111:
ARM GAS  /tmp/ccJDgDyU.s 			page 69


 809:Core/Src/stm32f7xx_hal_msp.c ****     GPIO_InitStruct.Mode = GPIO_MODE_AF_PP;
 1904              		.loc 1 809 0
 1905 00b6 4FF46053 		mov	r3, #14336
 1906 00ba 0593     		str	r3, [sp, #20]
 810:Core/Src/stm32f7xx_hal_msp.c ****     GPIO_InitStruct.Pull = GPIO_NOPULL;
 1907              		.loc 1 810 0
 1908 00bc 0695     		str	r5, [sp, #24]
 811:Core/Src/stm32f7xx_hal_msp.c ****     GPIO_InitStruct.Speed = GPIO_SPEED_FREQ_VERY_HIGH;
 1909              		.loc 1 811 0
 1910 00be 0797     		str	r7, [sp, #28]
 812:Core/Src/stm32f7xx_hal_msp.c ****     GPIO_InitStruct.Alternate = GPIO_AF9_QUADSPI;
 1911              		.loc 1 812 0
 1912 00c0 0894     		str	r4, [sp, #32]
 813:Core/Src/stm32f7xx_hal_msp.c ****     HAL_GPIO_Init(GPIOD, &GPIO_InitStruct);
 1913              		.loc 1 813 0
 1914 00c2 0996     		str	r6, [sp, #36]
 814:Core/Src/stm32f7xx_hal_msp.c **** 
 1915              		.loc 1 814 0
 1916 00c4 05A9     		add	r1, sp, #20
 1917 00c6 0548     		ldr	r0, .L115+12
 1918 00c8 FFF7FEFF 		bl	HAL_GPIO_Init
 1919              	.LVL112:
 821:Core/Src/stm32f7xx_hal_msp.c **** 
 1920              		.loc 1 821 0
 1921 00cc A5E7     		b	.L111
 1922              	.L116:
 1923 00ce 00BF     		.align	2
 1924              	.L115:
 1925 00d0 001000A0 		.word	-1610608640
 1926 00d4 00380240 		.word	1073887232
 1927 00d8 00100240 		.word	1073876992
 1928 00dc 000C0240 		.word	1073875968
 1929 00e0 00040240 		.word	1073873920
 1930              		.cfi_endproc
 1931              	.LFE156:
 1933              		.section	.text.HAL_QSPI_MspDeInit,"ax",%progbits
 1934              		.align	1
 1935              		.global	HAL_QSPI_MspDeInit
 1936              		.syntax unified
 1937              		.thumb
 1938              		.thumb_func
 1939              		.fpu fpv5-sp-d16
 1941              	HAL_QSPI_MspDeInit:
 1942              	.LFB157:
 830:Core/Src/stm32f7xx_hal_msp.c ****   if(hqspi->Instance==QUADSPI)
 1943              		.loc 1 830 0
 1944              		.cfi_startproc
 1945              		@ args = 0, pretend = 0, frame = 0
 1946              		@ frame_needed = 0, uses_anonymous_args = 0
 1947              	.LVL113:
 1948 0000 08B5     		push	{r3, lr}
 1949              	.LCFI43:
 1950              		.cfi_def_cfa_offset 8
 1951              		.cfi_offset 3, -8
 1952              		.cfi_offset 14, -4
 831:Core/Src/stm32f7xx_hal_msp.c ****   {
 1953              		.loc 1 831 0
ARM GAS  /tmp/ccJDgDyU.s 			page 70


 1954 0002 0268     		ldr	r2, [r0]
 1955 0004 0B4B     		ldr	r3, .L121
 1956 0006 9A42     		cmp	r2, r3
 1957 0008 00D0     		beq	.L120
 1958              	.LVL114:
 1959              	.L117:
 858:Core/Src/stm32f7xx_hal_msp.c **** 
 1960              		.loc 1 858 0
 1961 000a 08BD     		pop	{r3, pc}
 1962              	.LVL115:
 1963              	.L120:
 837:Core/Src/stm32f7xx_hal_msp.c ****   
 1964              		.loc 1 837 0
 1965 000c 0A4A     		ldr	r2, .L121+4
 1966 000e 936B     		ldr	r3, [r2, #56]
 1967 0010 23F00203 		bic	r3, r3, #2
 1968 0014 9363     		str	r3, [r2, #56]
 847:Core/Src/stm32f7xx_hal_msp.c **** 
 1969              		.loc 1 847 0
 1970 0016 0421     		movs	r1, #4
 1971 0018 0848     		ldr	r0, .L121+8
 1972              	.LVL116:
 1973 001a FFF7FEFF 		bl	HAL_GPIO_DeInit
 1974              	.LVL117:
 849:Core/Src/stm32f7xx_hal_msp.c **** 
 1975              		.loc 1 849 0
 1976 001e 4421     		movs	r1, #68
 1977 0020 0748     		ldr	r0, .L121+12
 1978 0022 FFF7FEFF 		bl	HAL_GPIO_DeInit
 1979              	.LVL118:
 851:Core/Src/stm32f7xx_hal_msp.c **** 
 1980              		.loc 1 851 0
 1981 0026 4FF46051 		mov	r1, #14336
 1982 002a 0648     		ldr	r0, .L121+16
 1983 002c FFF7FEFF 		bl	HAL_GPIO_DeInit
 1984              	.LVL119:
 858:Core/Src/stm32f7xx_hal_msp.c **** 
 1985              		.loc 1 858 0
 1986 0030 EBE7     		b	.L117
 1987              	.L122:
 1988 0032 00BF     		.align	2
 1989              	.L121:
 1990 0034 001000A0 		.word	-1610608640
 1991 0038 00380240 		.word	1073887232
 1992 003c 00100240 		.word	1073876992
 1993 0040 00040240 		.word	1073873920
 1994 0044 000C0240 		.word	1073875968
 1995              		.cfi_endproc
 1996              	.LFE157:
 1998              		.section	.text.HAL_RTC_MspInit,"ax",%progbits
 1999              		.align	1
 2000              		.global	HAL_RTC_MspInit
 2001              		.syntax unified
 2002              		.thumb
 2003              		.thumb_func
 2004              		.fpu fpv5-sp-d16
 2006              	HAL_RTC_MspInit:
ARM GAS  /tmp/ccJDgDyU.s 			page 71


 2007              	.LFB158:
 867:Core/Src/stm32f7xx_hal_msp.c ****   if(hrtc->Instance==RTC)
 2008              		.loc 1 867 0
 2009              		.cfi_startproc
 2010              		@ args = 0, pretend = 0, frame = 0
 2011              		@ frame_needed = 0, uses_anonymous_args = 0
 2012              		@ link register save eliminated.
 2013              	.LVL120:
 868:Core/Src/stm32f7xx_hal_msp.c ****   {
 2014              		.loc 1 868 0
 2015 0000 0268     		ldr	r2, [r0]
 2016 0002 054B     		ldr	r3, .L126
 2017 0004 9A42     		cmp	r2, r3
 2018 0006 00D0     		beq	.L125
 2019              	.L123:
 880:Core/Src/stm32f7xx_hal_msp.c **** 
 2020              		.loc 1 880 0
 2021 0008 7047     		bx	lr
 2022              	.L125:
 874:Core/Src/stm32f7xx_hal_msp.c ****   /* USER CODE BEGIN RTC_MspInit 1 */
 2023              		.loc 1 874 0
 2024 000a 044A     		ldr	r2, .L126+4
 2025 000c 136F     		ldr	r3, [r2, #112]
 2026 000e 43F40043 		orr	r3, r3, #32768
 2027 0012 1367     		str	r3, [r2, #112]
 880:Core/Src/stm32f7xx_hal_msp.c **** 
 2028              		.loc 1 880 0
 2029 0014 F8E7     		b	.L123
 2030              	.L127:
 2031 0016 00BF     		.align	2
 2032              	.L126:
 2033 0018 00280040 		.word	1073752064
 2034 001c 00380240 		.word	1073887232
 2035              		.cfi_endproc
 2036              	.LFE158:
 2038              		.section	.text.HAL_RTC_MspDeInit,"ax",%progbits
 2039              		.align	1
 2040              		.global	HAL_RTC_MspDeInit
 2041              		.syntax unified
 2042              		.thumb
 2043              		.thumb_func
 2044              		.fpu fpv5-sp-d16
 2046              	HAL_RTC_MspDeInit:
 2047              	.LFB159:
 889:Core/Src/stm32f7xx_hal_msp.c ****   if(hrtc->Instance==RTC)
 2048              		.loc 1 889 0
 2049              		.cfi_startproc
 2050              		@ args = 0, pretend = 0, frame = 0
 2051              		@ frame_needed = 0, uses_anonymous_args = 0
 2052              		@ link register save eliminated.
 2053              	.LVL121:
 890:Core/Src/stm32f7xx_hal_msp.c ****   {
 2054              		.loc 1 890 0
 2055 0000 0268     		ldr	r2, [r0]
 2056 0002 054B     		ldr	r3, .L131
 2057 0004 9A42     		cmp	r2, r3
 2058 0006 00D0     		beq	.L130
ARM GAS  /tmp/ccJDgDyU.s 			page 72


 2059              	.L128:
 902:Core/Src/stm32f7xx_hal_msp.c **** 
 2060              		.loc 1 902 0
 2061 0008 7047     		bx	lr
 2062              	.L130:
 896:Core/Src/stm32f7xx_hal_msp.c ****   /* USER CODE BEGIN RTC_MspDeInit 1 */
 2063              		.loc 1 896 0
 2064 000a 044A     		ldr	r2, .L131+4
 2065 000c 136F     		ldr	r3, [r2, #112]
 2066 000e 23F40043 		bic	r3, r3, #32768
 2067 0012 1367     		str	r3, [r2, #112]
 902:Core/Src/stm32f7xx_hal_msp.c **** 
 2068              		.loc 1 902 0
 2069 0014 F8E7     		b	.L128
 2070              	.L132:
 2071 0016 00BF     		.align	2
 2072              	.L131:
 2073 0018 00280040 		.word	1073752064
 2074 001c 00380240 		.word	1073887232
 2075              		.cfi_endproc
 2076              	.LFE159:
 2078              		.section	.text.HAL_SD_MspInit,"ax",%progbits
 2079              		.align	1
 2080              		.global	HAL_SD_MspInit
 2081              		.syntax unified
 2082              		.thumb
 2083              		.thumb_func
 2084              		.fpu fpv5-sp-d16
 2086              	HAL_SD_MspInit:
 2087              	.LFB160:
 911:Core/Src/stm32f7xx_hal_msp.c ****   GPIO_InitTypeDef GPIO_InitStruct = {0};
 2088              		.loc 1 911 0
 2089              		.cfi_startproc
 2090              		@ args = 0, pretend = 0, frame = 32
 2091              		@ frame_needed = 0, uses_anonymous_args = 0
 2092              	.LVL122:
 2093 0000 70B5     		push	{r4, r5, r6, lr}
 2094              	.LCFI44:
 2095              		.cfi_def_cfa_offset 16
 2096              		.cfi_offset 4, -16
 2097              		.cfi_offset 5, -12
 2098              		.cfi_offset 6, -8
 2099              		.cfi_offset 14, -4
 2100 0002 88B0     		sub	sp, sp, #32
 2101              	.LCFI45:
 2102              		.cfi_def_cfa_offset 48
 912:Core/Src/stm32f7xx_hal_msp.c ****   if(hsd->Instance==SDMMC1)
 2103              		.loc 1 912 0
 2104 0004 0023     		movs	r3, #0
 2105 0006 0393     		str	r3, [sp, #12]
 2106 0008 0493     		str	r3, [sp, #16]
 2107 000a 0593     		str	r3, [sp, #20]
 2108 000c 0693     		str	r3, [sp, #24]
 2109 000e 0793     		str	r3, [sp, #28]
 913:Core/Src/stm32f7xx_hal_msp.c ****   {
 2110              		.loc 1 913 0
 2111 0010 0268     		ldr	r2, [r0]
ARM GAS  /tmp/ccJDgDyU.s 			page 73


 2112 0012 1E4B     		ldr	r3, .L137
 2113 0014 9A42     		cmp	r2, r3
 2114 0016 01D0     		beq	.L136
 2115              	.LVL123:
 2116              	.L133:
 951:Core/Src/stm32f7xx_hal_msp.c **** 
 2117              		.loc 1 951 0
 2118 0018 08B0     		add	sp, sp, #32
 2119              	.LCFI46:
 2120              		.cfi_remember_state
 2121              		.cfi_def_cfa_offset 16
 2122              		@ sp needed
 2123 001a 70BD     		pop	{r4, r5, r6, pc}
 2124              	.LVL124:
 2125              	.L136:
 2126              	.LCFI47:
 2127              		.cfi_restore_state
 2128              	.LBB36:
 919:Core/Src/stm32f7xx_hal_msp.c ****   
 2129              		.loc 1 919 0
 2130 001c 03F58633 		add	r3, r3, #68608
 2131 0020 5A6C     		ldr	r2, [r3, #68]
 2132 0022 42F40062 		orr	r2, r2, #2048
 2133 0026 5A64     		str	r2, [r3, #68]
 2134 0028 5A6C     		ldr	r2, [r3, #68]
 2135 002a 02F40062 		and	r2, r2, #2048
 2136 002e 0092     		str	r2, [sp]
 2137 0030 009A     		ldr	r2, [sp]
 2138              	.LBE36:
 2139              	.LBB37:
 921:Core/Src/stm32f7xx_hal_msp.c ****     __HAL_RCC_GPIOD_CLK_ENABLE();
 2140              		.loc 1 921 0
 2141 0032 1A6B     		ldr	r2, [r3, #48]
 2142 0034 42F00402 		orr	r2, r2, #4
 2143 0038 1A63     		str	r2, [r3, #48]
 2144 003a 1A6B     		ldr	r2, [r3, #48]
 2145 003c 02F00402 		and	r2, r2, #4
 2146 0040 0192     		str	r2, [sp, #4]
 2147 0042 019A     		ldr	r2, [sp, #4]
 2148              	.LBE37:
 2149              	.LBB38:
 922:Core/Src/stm32f7xx_hal_msp.c ****     /**SDMMC1 GPIO Configuration    
 2150              		.loc 1 922 0
 2151 0044 1A6B     		ldr	r2, [r3, #48]
 2152 0046 42F00802 		orr	r2, r2, #8
 2153 004a 1A63     		str	r2, [r3, #48]
 2154 004c 1B6B     		ldr	r3, [r3, #48]
 2155 004e 03F00803 		and	r3, r3, #8
 2156 0052 0293     		str	r3, [sp, #8]
 2157 0054 029B     		ldr	r3, [sp, #8]
 2158              	.LBE38:
 931:Core/Src/stm32f7xx_hal_msp.c ****                           |GPIO_PIN_8;
 2159              		.loc 1 931 0
 2160 0056 4FF4F853 		mov	r3, #7936
 2161 005a 0393     		str	r3, [sp, #12]
 933:Core/Src/stm32f7xx_hal_msp.c ****     GPIO_InitStruct.Pull = GPIO_NOPULL;
 2162              		.loc 1 933 0
ARM GAS  /tmp/ccJDgDyU.s 			page 74


 2163 005c 0226     		movs	r6, #2
 2164 005e 0496     		str	r6, [sp, #16]
 935:Core/Src/stm32f7xx_hal_msp.c ****     GPIO_InitStruct.Alternate = GPIO_AF12_SDMMC1;
 2165              		.loc 1 935 0
 2166 0060 0325     		movs	r5, #3
 2167 0062 0695     		str	r5, [sp, #24]
 936:Core/Src/stm32f7xx_hal_msp.c ****     HAL_GPIO_Init(GPIOC, &GPIO_InitStruct);
 2168              		.loc 1 936 0
 2169 0064 0C24     		movs	r4, #12
 2170 0066 0794     		str	r4, [sp, #28]
 937:Core/Src/stm32f7xx_hal_msp.c **** 
 2171              		.loc 1 937 0
 2172 0068 0DEB0401 		add	r1, sp, r4
 2173 006c 0848     		ldr	r0, .L137+4
 2174              	.LVL125:
 2175 006e FFF7FEFF 		bl	HAL_GPIO_Init
 2176              	.LVL126:
 939:Core/Src/stm32f7xx_hal_msp.c ****     GPIO_InitStruct.Mode = GPIO_MODE_AF_PP;
 2177              		.loc 1 939 0
 2178 0072 0423     		movs	r3, #4
 2179 0074 0393     		str	r3, [sp, #12]
 940:Core/Src/stm32f7xx_hal_msp.c ****     GPIO_InitStruct.Pull = GPIO_NOPULL;
 2180              		.loc 1 940 0
 2181 0076 0496     		str	r6, [sp, #16]
 941:Core/Src/stm32f7xx_hal_msp.c ****     GPIO_InitStruct.Speed = GPIO_SPEED_FREQ_VERY_HIGH;
 2182              		.loc 1 941 0
 2183 0078 0023     		movs	r3, #0
 2184 007a 0593     		str	r3, [sp, #20]
 942:Core/Src/stm32f7xx_hal_msp.c ****     GPIO_InitStruct.Alternate = GPIO_AF12_SDMMC1;
 2185              		.loc 1 942 0
 2186 007c 0695     		str	r5, [sp, #24]
 943:Core/Src/stm32f7xx_hal_msp.c ****     HAL_GPIO_Init(SDMMC_CMD_GPIO_Port, &GPIO_InitStruct);
 2187              		.loc 1 943 0
 2188 007e 0794     		str	r4, [sp, #28]
 944:Core/Src/stm32f7xx_hal_msp.c **** 
 2189              		.loc 1 944 0
 2190 0080 0DEB0401 		add	r1, sp, r4
 2191 0084 0348     		ldr	r0, .L137+8
 2192 0086 FFF7FEFF 		bl	HAL_GPIO_Init
 2193              	.LVL127:
 951:Core/Src/stm32f7xx_hal_msp.c **** 
 2194              		.loc 1 951 0
 2195 008a C5E7     		b	.L133
 2196              	.L138:
 2197              		.align	2
 2198              	.L137:
 2199 008c 002C0140 		.word	1073818624
 2200 0090 00080240 		.word	1073874944
 2201 0094 000C0240 		.word	1073875968
 2202              		.cfi_endproc
 2203              	.LFE160:
 2205              		.section	.text.HAL_SD_MspDeInit,"ax",%progbits
 2206              		.align	1
 2207              		.global	HAL_SD_MspDeInit
 2208              		.syntax unified
 2209              		.thumb
 2210              		.thumb_func
ARM GAS  /tmp/ccJDgDyU.s 			page 75


 2211              		.fpu fpv5-sp-d16
 2213              	HAL_SD_MspDeInit:
 2214              	.LFB161:
 960:Core/Src/stm32f7xx_hal_msp.c ****   if(hsd->Instance==SDMMC1)
 2215              		.loc 1 960 0
 2216              		.cfi_startproc
 2217              		@ args = 0, pretend = 0, frame = 0
 2218              		@ frame_needed = 0, uses_anonymous_args = 0
 2219              	.LVL128:
 2220 0000 08B5     		push	{r3, lr}
 2221              	.LCFI48:
 2222              		.cfi_def_cfa_offset 8
 2223              		.cfi_offset 3, -8
 2224              		.cfi_offset 14, -4
 961:Core/Src/stm32f7xx_hal_msp.c ****   {
 2225              		.loc 1 961 0
 2226 0002 0268     		ldr	r2, [r0]
 2227 0004 094B     		ldr	r3, .L143
 2228 0006 9A42     		cmp	r2, r3
 2229 0008 00D0     		beq	.L142
 2230              	.LVL129:
 2231              	.L139:
 987:Core/Src/stm32f7xx_hal_msp.c **** 
 2232              		.loc 1 987 0
 2233 000a 08BD     		pop	{r3, pc}
 2234              	.LVL130:
 2235              	.L142:
 967:Core/Src/stm32f7xx_hal_msp.c ****   
 2236              		.loc 1 967 0
 2237 000c 084A     		ldr	r2, .L143+4
 2238 000e 536C     		ldr	r3, [r2, #68]
 2239 0010 23F40063 		bic	r3, r3, #2048
 2240 0014 5364     		str	r3, [r2, #68]
 977:Core/Src/stm32f7xx_hal_msp.c ****                           |GPIO_PIN_8);
 2241              		.loc 1 977 0
 2242 0016 4FF4F851 		mov	r1, #7936
 2243 001a 0648     		ldr	r0, .L143+8
 2244              	.LVL131:
 2245 001c FFF7FEFF 		bl	HAL_GPIO_DeInit
 2246              	.LVL132:
 980:Core/Src/stm32f7xx_hal_msp.c **** 
 2247              		.loc 1 980 0
 2248 0020 0421     		movs	r1, #4
 2249 0022 0548     		ldr	r0, .L143+12
 2250 0024 FFF7FEFF 		bl	HAL_GPIO_DeInit
 2251              	.LVL133:
 987:Core/Src/stm32f7xx_hal_msp.c **** 
 2252              		.loc 1 987 0
 2253 0028 EFE7     		b	.L139
 2254              	.L144:
 2255 002a 00BF     		.align	2
 2256              	.L143:
 2257 002c 002C0140 		.word	1073818624
 2258 0030 00380240 		.word	1073887232
 2259 0034 00080240 		.word	1073874944
 2260 0038 000C0240 		.word	1073875968
 2261              		.cfi_endproc
ARM GAS  /tmp/ccJDgDyU.s 			page 76


 2262              	.LFE161:
 2264              		.section	.text.HAL_SPDIFRX_MspInit,"ax",%progbits
 2265              		.align	1
 2266              		.global	HAL_SPDIFRX_MspInit
 2267              		.syntax unified
 2268              		.thumb
 2269              		.thumb_func
 2270              		.fpu fpv5-sp-d16
 2272              	HAL_SPDIFRX_MspInit:
 2273              	.LFB162:
 996:Core/Src/stm32f7xx_hal_msp.c ****   GPIO_InitTypeDef GPIO_InitStruct = {0};
 2274              		.loc 1 996 0
 2275              		.cfi_startproc
 2276              		@ args = 0, pretend = 0, frame = 32
 2277              		@ frame_needed = 0, uses_anonymous_args = 0
 2278              	.LVL134:
 2279 0000 00B5     		push	{lr}
 2280              	.LCFI49:
 2281              		.cfi_def_cfa_offset 4
 2282              		.cfi_offset 14, -4
 2283 0002 89B0     		sub	sp, sp, #36
 2284              	.LCFI50:
 2285              		.cfi_def_cfa_offset 40
 997:Core/Src/stm32f7xx_hal_msp.c ****   if(hspdifrx->Instance==SPDIFRX)
 2286              		.loc 1 997 0
 2287 0004 0023     		movs	r3, #0
 2288 0006 0393     		str	r3, [sp, #12]
 2289 0008 0493     		str	r3, [sp, #16]
 2290 000a 0593     		str	r3, [sp, #20]
 2291 000c 0693     		str	r3, [sp, #24]
 2292 000e 0793     		str	r3, [sp, #28]
 998:Core/Src/stm32f7xx_hal_msp.c ****   {
 2293              		.loc 1 998 0
 2294 0010 0368     		ldr	r3, [r0]
 2295 0012 B3F1402F 		cmp	r3, #1073758208
 2296 0016 02D0     		beq	.L148
 2297              	.LVL135:
 2298              	.L145:
1022:Core/Src/stm32f7xx_hal_msp.c **** 
 2299              		.loc 1 1022 0
 2300 0018 09B0     		add	sp, sp, #36
 2301              	.LCFI51:
 2302              		.cfi_remember_state
 2303              		.cfi_def_cfa_offset 4
 2304              		@ sp needed
 2305 001a 5DF804FB 		ldr	pc, [sp], #4
 2306              	.LVL136:
 2307              	.L148:
 2308              	.LCFI52:
 2309              		.cfi_restore_state
 2310              	.LBB39:
1004:Core/Src/stm32f7xx_hal_msp.c ****   
 2311              		.loc 1 1004 0
 2312 001e 03F5FC33 		add	r3, r3, #129024
 2313 0022 1A6C     		ldr	r2, [r3, #64]
 2314 0024 42F48032 		orr	r2, r2, #65536
 2315 0028 1A64     		str	r2, [r3, #64]
ARM GAS  /tmp/ccJDgDyU.s 			page 77


 2316 002a 1A6C     		ldr	r2, [r3, #64]
 2317 002c 02F48032 		and	r2, r2, #65536
 2318 0030 0192     		str	r2, [sp, #4]
 2319 0032 019A     		ldr	r2, [sp, #4]
 2320              	.LBE39:
 2321              	.LBB40:
1006:Core/Src/stm32f7xx_hal_msp.c ****     /**SPDIFRX GPIO Configuration    
 2322              		.loc 1 1006 0
 2323 0034 1A6B     		ldr	r2, [r3, #48]
 2324 0036 42F00802 		orr	r2, r2, #8
 2325 003a 1A63     		str	r2, [r3, #48]
 2326 003c 1B6B     		ldr	r3, [r3, #48]
 2327 003e 03F00803 		and	r3, r3, #8
 2328 0042 0293     		str	r3, [sp, #8]
 2329 0044 029B     		ldr	r3, [sp, #8]
 2330              	.LBE40:
1010:Core/Src/stm32f7xx_hal_msp.c ****     GPIO_InitStruct.Mode = GPIO_MODE_AF_PP;
 2331              		.loc 1 1010 0
 2332 0046 8023     		movs	r3, #128
 2333 0048 0393     		str	r3, [sp, #12]
1011:Core/Src/stm32f7xx_hal_msp.c ****     GPIO_InitStruct.Pull = GPIO_NOPULL;
 2334              		.loc 1 1011 0
 2335 004a 0223     		movs	r3, #2
 2336 004c 0493     		str	r3, [sp, #16]
1014:Core/Src/stm32f7xx_hal_msp.c ****     HAL_GPIO_Init(SPDIF_RX0_GPIO_Port, &GPIO_InitStruct);
 2337              		.loc 1 1014 0
 2338 004e 0823     		movs	r3, #8
 2339 0050 0793     		str	r3, [sp, #28]
1015:Core/Src/stm32f7xx_hal_msp.c **** 
 2340              		.loc 1 1015 0
 2341 0052 03A9     		add	r1, sp, #12
 2342 0054 0148     		ldr	r0, .L149
 2343              	.LVL137:
 2344 0056 FFF7FEFF 		bl	HAL_GPIO_Init
 2345              	.LVL138:
1022:Core/Src/stm32f7xx_hal_msp.c **** 
 2346              		.loc 1 1022 0
 2347 005a DDE7     		b	.L145
 2348              	.L150:
 2349              		.align	2
 2350              	.L149:
 2351 005c 000C0240 		.word	1073875968
 2352              		.cfi_endproc
 2353              	.LFE162:
 2355              		.section	.text.HAL_SPDIFRX_MspDeInit,"ax",%progbits
 2356              		.align	1
 2357              		.global	HAL_SPDIFRX_MspDeInit
 2358              		.syntax unified
 2359              		.thumb
 2360              		.thumb_func
 2361              		.fpu fpv5-sp-d16
 2363              	HAL_SPDIFRX_MspDeInit:
 2364              	.LFB163:
1031:Core/Src/stm32f7xx_hal_msp.c ****   if(hspdifrx->Instance==SPDIFRX)
 2365              		.loc 1 1031 0
 2366              		.cfi_startproc
 2367              		@ args = 0, pretend = 0, frame = 0
ARM GAS  /tmp/ccJDgDyU.s 			page 78


 2368              		@ frame_needed = 0, uses_anonymous_args = 0
 2369              	.LVL139:
 2370 0000 08B5     		push	{r3, lr}
 2371              	.LCFI53:
 2372              		.cfi_def_cfa_offset 8
 2373              		.cfi_offset 3, -8
 2374              		.cfi_offset 14, -4
1032:Core/Src/stm32f7xx_hal_msp.c ****   {
 2375              		.loc 1 1032 0
 2376 0002 0368     		ldr	r3, [r0]
 2377 0004 B3F1402F 		cmp	r3, #1073758208
 2378 0008 00D0     		beq	.L154
 2379              	.LVL140:
 2380              	.L151:
1050:Core/Src/stm32f7xx_hal_msp.c **** 
 2381              		.loc 1 1050 0
 2382 000a 08BD     		pop	{r3, pc}
 2383              	.LVL141:
 2384              	.L154:
1038:Core/Src/stm32f7xx_hal_msp.c ****   
 2385              		.loc 1 1038 0
 2386 000c 044A     		ldr	r2, .L155
 2387 000e 136C     		ldr	r3, [r2, #64]
 2388 0010 23F48033 		bic	r3, r3, #65536
 2389 0014 1364     		str	r3, [r2, #64]
1043:Core/Src/stm32f7xx_hal_msp.c **** 
 2390              		.loc 1 1043 0
 2391 0016 8021     		movs	r1, #128
 2392 0018 0248     		ldr	r0, .L155+4
 2393              	.LVL142:
 2394 001a FFF7FEFF 		bl	HAL_GPIO_DeInit
 2395              	.LVL143:
1050:Core/Src/stm32f7xx_hal_msp.c **** 
 2396              		.loc 1 1050 0
 2397 001e F4E7     		b	.L151
 2398              	.L156:
 2399              		.align	2
 2400              	.L155:
 2401 0020 00380240 		.word	1073887232
 2402 0024 000C0240 		.word	1073875968
 2403              		.cfi_endproc
 2404              	.LFE163:
 2406              		.section	.text.HAL_SPI_MspInit,"ax",%progbits
 2407              		.align	1
 2408              		.global	HAL_SPI_MspInit
 2409              		.syntax unified
 2410              		.thumb
 2411              		.thumb_func
 2412              		.fpu fpv5-sp-d16
 2414              	HAL_SPI_MspInit:
 2415              	.LFB164:
1059:Core/Src/stm32f7xx_hal_msp.c ****   GPIO_InitTypeDef GPIO_InitStruct = {0};
 2416              		.loc 1 1059 0
 2417              		.cfi_startproc
 2418              		@ args = 0, pretend = 0, frame = 32
 2419              		@ frame_needed = 0, uses_anonymous_args = 0
 2420              	.LVL144:
ARM GAS  /tmp/ccJDgDyU.s 			page 79


 2421 0000 30B5     		push	{r4, r5, lr}
 2422              	.LCFI54:
 2423              		.cfi_def_cfa_offset 12
 2424              		.cfi_offset 4, -12
 2425              		.cfi_offset 5, -8
 2426              		.cfi_offset 14, -4
 2427 0002 89B0     		sub	sp, sp, #36
 2428              	.LCFI55:
 2429              		.cfi_def_cfa_offset 48
1060:Core/Src/stm32f7xx_hal_msp.c ****   if(hspi->Instance==SPI2)
 2430              		.loc 1 1060 0
 2431 0004 0023     		movs	r3, #0
 2432 0006 0393     		str	r3, [sp, #12]
 2433 0008 0493     		str	r3, [sp, #16]
 2434 000a 0593     		str	r3, [sp, #20]
 2435 000c 0693     		str	r3, [sp, #24]
 2436 000e 0793     		str	r3, [sp, #28]
1061:Core/Src/stm32f7xx_hal_msp.c ****   {
 2437              		.loc 1 1061 0
 2438 0010 0268     		ldr	r2, [r0]
 2439 0012 1C4B     		ldr	r3, .L161
 2440 0014 9A42     		cmp	r2, r3
 2441 0016 01D0     		beq	.L160
 2442              	.LVL145:
 2443              	.L157:
1095:Core/Src/stm32f7xx_hal_msp.c **** 
 2444              		.loc 1 1095 0
 2445 0018 09B0     		add	sp, sp, #36
 2446              	.LCFI56:
 2447              		.cfi_remember_state
 2448              		.cfi_def_cfa_offset 12
 2449              		@ sp needed
 2450 001a 30BD     		pop	{r4, r5, pc}
 2451              	.LVL146:
 2452              	.L160:
 2453              	.LCFI57:
 2454              		.cfi_restore_state
 2455              	.LBB41:
1067:Core/Src/stm32f7xx_hal_msp.c ****   
 2456              		.loc 1 1067 0
 2457 001c 03F50033 		add	r3, r3, #131072
 2458 0020 1A6C     		ldr	r2, [r3, #64]
 2459 0022 42F48042 		orr	r2, r2, #16384
 2460 0026 1A64     		str	r2, [r3, #64]
 2461 0028 1A6C     		ldr	r2, [r3, #64]
 2462 002a 02F48042 		and	r2, r2, #16384
 2463 002e 0092     		str	r2, [sp]
 2464 0030 009A     		ldr	r2, [sp]
 2465              	.LBE41:
 2466              	.LBB42:
1069:Core/Src/stm32f7xx_hal_msp.c ****     __HAL_RCC_GPIOB_CLK_ENABLE();
 2467              		.loc 1 1069 0
 2468 0032 1A6B     		ldr	r2, [r3, #48]
 2469 0034 42F48072 		orr	r2, r2, #256
 2470 0038 1A63     		str	r2, [r3, #48]
 2471 003a 1A6B     		ldr	r2, [r3, #48]
 2472 003c 02F48072 		and	r2, r2, #256
ARM GAS  /tmp/ccJDgDyU.s 			page 80


 2473 0040 0192     		str	r2, [sp, #4]
 2474 0042 019A     		ldr	r2, [sp, #4]
 2475              	.LBE42:
 2476              	.LBB43:
1070:Core/Src/stm32f7xx_hal_msp.c ****     /**SPI2 GPIO Configuration    
 2477              		.loc 1 1070 0
 2478 0044 1A6B     		ldr	r2, [r3, #48]
 2479 0046 42F00202 		orr	r2, r2, #2
 2480 004a 1A63     		str	r2, [r3, #48]
 2481 004c 1B6B     		ldr	r3, [r3, #48]
 2482 004e 03F00203 		and	r3, r3, #2
 2483 0052 0293     		str	r3, [sp, #8]
 2484 0054 029B     		ldr	r3, [sp, #8]
 2485              	.LBE43:
1076:Core/Src/stm32f7xx_hal_msp.c ****     GPIO_InitStruct.Mode = GPIO_MODE_AF_PP;
 2486              		.loc 1 1076 0
 2487 0056 0224     		movs	r4, #2
 2488 0058 0394     		str	r4, [sp, #12]
1077:Core/Src/stm32f7xx_hal_msp.c ****     GPIO_InitStruct.Pull = GPIO_NOPULL;
 2489              		.loc 1 1077 0
 2490 005a 0494     		str	r4, [sp, #16]
1080:Core/Src/stm32f7xx_hal_msp.c ****     HAL_GPIO_Init(ARDUINO_SCK_D13_GPIO_Port, &GPIO_InitStruct);
 2491              		.loc 1 1080 0
 2492 005c 0525     		movs	r5, #5
 2493 005e 0795     		str	r5, [sp, #28]
1081:Core/Src/stm32f7xx_hal_msp.c **** 
 2494              		.loc 1 1081 0
 2495 0060 03A9     		add	r1, sp, #12
 2496 0062 0948     		ldr	r0, .L161+4
 2497              	.LVL147:
 2498 0064 FFF7FEFF 		bl	HAL_GPIO_Init
 2499              	.LVL148:
1083:Core/Src/stm32f7xx_hal_msp.c ****     GPIO_InitStruct.Mode = GPIO_MODE_AF_PP;
 2500              		.loc 1 1083 0
 2501 0068 4FF44043 		mov	r3, #49152
 2502 006c 0393     		str	r3, [sp, #12]
1084:Core/Src/stm32f7xx_hal_msp.c ****     GPIO_InitStruct.Pull = GPIO_NOPULL;
 2503              		.loc 1 1084 0
 2504 006e 0494     		str	r4, [sp, #16]
1085:Core/Src/stm32f7xx_hal_msp.c ****     GPIO_InitStruct.Speed = GPIO_SPEED_FREQ_LOW;
 2505              		.loc 1 1085 0
 2506 0070 0023     		movs	r3, #0
 2507 0072 0593     		str	r3, [sp, #20]
1086:Core/Src/stm32f7xx_hal_msp.c ****     GPIO_InitStruct.Alternate = GPIO_AF5_SPI2;
 2508              		.loc 1 1086 0
 2509 0074 0693     		str	r3, [sp, #24]
1087:Core/Src/stm32f7xx_hal_msp.c ****     HAL_GPIO_Init(GPIOB, &GPIO_InitStruct);
 2510              		.loc 1 1087 0
 2511 0076 0795     		str	r5, [sp, #28]
1088:Core/Src/stm32f7xx_hal_msp.c **** 
 2512              		.loc 1 1088 0
 2513 0078 03A9     		add	r1, sp, #12
 2514 007a 0448     		ldr	r0, .L161+8
 2515 007c FFF7FEFF 		bl	HAL_GPIO_Init
 2516              	.LVL149:
1095:Core/Src/stm32f7xx_hal_msp.c **** 
 2517              		.loc 1 1095 0
ARM GAS  /tmp/ccJDgDyU.s 			page 81


 2518 0080 CAE7     		b	.L157
 2519              	.L162:
 2520 0082 00BF     		.align	2
 2521              	.L161:
 2522 0084 00380040 		.word	1073756160
 2523 0088 00200240 		.word	1073881088
 2524 008c 00040240 		.word	1073873920
 2525              		.cfi_endproc
 2526              	.LFE164:
 2528              		.section	.text.HAL_SPI_MspDeInit,"ax",%progbits
 2529              		.align	1
 2530              		.global	HAL_SPI_MspDeInit
 2531              		.syntax unified
 2532              		.thumb
 2533              		.thumb_func
 2534              		.fpu fpv5-sp-d16
 2536              	HAL_SPI_MspDeInit:
 2537              	.LFB165:
1104:Core/Src/stm32f7xx_hal_msp.c ****   if(hspi->Instance==SPI2)
 2538              		.loc 1 1104 0
 2539              		.cfi_startproc
 2540              		@ args = 0, pretend = 0, frame = 0
 2541              		@ frame_needed = 0, uses_anonymous_args = 0
 2542              	.LVL150:
 2543 0000 08B5     		push	{r3, lr}
 2544              	.LCFI58:
 2545              		.cfi_def_cfa_offset 8
 2546              		.cfi_offset 3, -8
 2547              		.cfi_offset 14, -4
1105:Core/Src/stm32f7xx_hal_msp.c ****   {
 2548              		.loc 1 1105 0
 2549 0002 0268     		ldr	r2, [r0]
 2550 0004 094B     		ldr	r3, .L167
 2551 0006 9A42     		cmp	r2, r3
 2552 0008 00D0     		beq	.L166
 2553              	.LVL151:
 2554              	.L163:
1127:Core/Src/stm32f7xx_hal_msp.c **** 
 2555              		.loc 1 1127 0
 2556 000a 08BD     		pop	{r3, pc}
 2557              	.LVL152:
 2558              	.L166:
1111:Core/Src/stm32f7xx_hal_msp.c ****   
 2559              		.loc 1 1111 0
 2560 000c 084A     		ldr	r2, .L167+4
 2561 000e 136C     		ldr	r3, [r2, #64]
 2562 0010 23F48043 		bic	r3, r3, #16384
 2563 0014 1364     		str	r3, [r2, #64]
1118:Core/Src/stm32f7xx_hal_msp.c **** 
 2564              		.loc 1 1118 0
 2565 0016 0221     		movs	r1, #2
 2566 0018 0648     		ldr	r0, .L167+8
 2567              	.LVL153:
 2568 001a FFF7FEFF 		bl	HAL_GPIO_DeInit
 2569              	.LVL154:
1120:Core/Src/stm32f7xx_hal_msp.c **** 
 2570              		.loc 1 1120 0
ARM GAS  /tmp/ccJDgDyU.s 			page 82


 2571 001e 4FF44041 		mov	r1, #49152
 2572 0022 0548     		ldr	r0, .L167+12
 2573 0024 FFF7FEFF 		bl	HAL_GPIO_DeInit
 2574              	.LVL155:
1127:Core/Src/stm32f7xx_hal_msp.c **** 
 2575              		.loc 1 1127 0
 2576 0028 EFE7     		b	.L163
 2577              	.L168:
 2578 002a 00BF     		.align	2
 2579              	.L167:
 2580 002c 00380040 		.word	1073756160
 2581 0030 00380240 		.word	1073887232
 2582 0034 00200240 		.word	1073881088
 2583 0038 00040240 		.word	1073873920
 2584              		.cfi_endproc
 2585              	.LFE165:
 2587              		.section	.text.HAL_TIM_Base_MspInit,"ax",%progbits
 2588              		.align	1
 2589              		.global	HAL_TIM_Base_MspInit
 2590              		.syntax unified
 2591              		.thumb
 2592              		.thumb_func
 2593              		.fpu fpv5-sp-d16
 2595              	HAL_TIM_Base_MspInit:
 2596              	.LFB166:
1136:Core/Src/stm32f7xx_hal_msp.c ****   if(htim_base->Instance==TIM1)
 2597              		.loc 1 1136 0
 2598              		.cfi_startproc
 2599              		@ args = 0, pretend = 0, frame = 24
 2600              		@ frame_needed = 0, uses_anonymous_args = 0
 2601              		@ link register save eliminated.
 2602              	.LVL156:
 2603 0000 86B0     		sub	sp, sp, #24
 2604              	.LCFI59:
 2605              		.cfi_def_cfa_offset 24
1137:Core/Src/stm32f7xx_hal_msp.c ****   {
 2606              		.loc 1 1137 0
 2607 0002 0368     		ldr	r3, [r0]
 2608 0004 234A     		ldr	r2, .L180
 2609 0006 9342     		cmp	r3, r2
 2610 0008 16D0     		beq	.L176
1148:Core/Src/stm32f7xx_hal_msp.c ****   {
 2611              		.loc 1 1148 0
 2612 000a B3F1804F 		cmp	r3, #1073741824
 2613 000e 1FD0     		beq	.L177
1159:Core/Src/stm32f7xx_hal_msp.c ****   {
 2614              		.loc 1 1159 0
 2615 0010 214A     		ldr	r2, .L180+4
 2616 0012 9342     		cmp	r3, r2
 2617 0014 28D0     		beq	.L178
1170:Core/Src/stm32f7xx_hal_msp.c ****   {
 2618              		.loc 1 1170 0
 2619 0016 214A     		ldr	r2, .L180+8
 2620 0018 9342     		cmp	r3, r2
 2621 001a 30D0     		beq	.L179
1181:Core/Src/stm32f7xx_hal_msp.c ****   {
 2622              		.loc 1 1181 0
ARM GAS  /tmp/ccJDgDyU.s 			page 83


 2623 001c 204A     		ldr	r2, .L180+12
 2624 001e 9342     		cmp	r3, r2
 2625 0020 14D1     		bne	.L169
 2626              	.LBB44:
1187:Core/Src/stm32f7xx_hal_msp.c ****   /* USER CODE BEGIN TIM8_MspInit 1 */
 2627              		.loc 1 1187 0
 2628 0022 204B     		ldr	r3, .L180+16
 2629 0024 5A6C     		ldr	r2, [r3, #68]
 2630 0026 42F00202 		orr	r2, r2, #2
 2631 002a 5A64     		str	r2, [r3, #68]
 2632 002c 5B6C     		ldr	r3, [r3, #68]
 2633 002e 03F00203 		and	r3, r3, #2
 2634 0032 0593     		str	r3, [sp, #20]
 2635 0034 059B     		ldr	r3, [sp, #20]
 2636              	.LBE44:
1193:Core/Src/stm32f7xx_hal_msp.c **** 
 2637              		.loc 1 1193 0
 2638 0036 09E0     		b	.L169
 2639              	.L176:
 2640              	.LBB45:
1143:Core/Src/stm32f7xx_hal_msp.c ****   /* USER CODE BEGIN TIM1_MspInit 1 */
 2641              		.loc 1 1143 0
 2642 0038 1A4B     		ldr	r3, .L180+16
 2643 003a 5A6C     		ldr	r2, [r3, #68]
 2644 003c 42F00102 		orr	r2, r2, #1
 2645 0040 5A64     		str	r2, [r3, #68]
 2646 0042 5B6C     		ldr	r3, [r3, #68]
 2647 0044 03F00103 		and	r3, r3, #1
 2648 0048 0193     		str	r3, [sp, #4]
 2649 004a 019B     		ldr	r3, [sp, #4]
 2650              	.L169:
 2651              	.LBE45:
1193:Core/Src/stm32f7xx_hal_msp.c **** 
 2652              		.loc 1 1193 0
 2653 004c 06B0     		add	sp, sp, #24
 2654              	.LCFI60:
 2655              		.cfi_remember_state
 2656              		.cfi_def_cfa_offset 0
 2657              		@ sp needed
 2658 004e 7047     		bx	lr
 2659              	.L177:
 2660              	.LCFI61:
 2661              		.cfi_restore_state
 2662              	.LBB46:
1154:Core/Src/stm32f7xx_hal_msp.c ****   /* USER CODE BEGIN TIM2_MspInit 1 */
 2663              		.loc 1 1154 0
 2664 0050 03F50E33 		add	r3, r3, #145408
 2665 0054 1A6C     		ldr	r2, [r3, #64]
 2666 0056 42F00102 		orr	r2, r2, #1
 2667 005a 1A64     		str	r2, [r3, #64]
 2668 005c 1B6C     		ldr	r3, [r3, #64]
 2669 005e 03F00103 		and	r3, r3, #1
 2670 0062 0293     		str	r3, [sp, #8]
 2671 0064 029B     		ldr	r3, [sp, #8]
 2672              	.LBE46:
 2673 0066 F1E7     		b	.L169
 2674              	.L178:
ARM GAS  /tmp/ccJDgDyU.s 			page 84


 2675              	.LBB47:
1165:Core/Src/stm32f7xx_hal_msp.c ****   /* USER CODE BEGIN TIM3_MspInit 1 */
 2676              		.loc 1 1165 0
 2677 0068 0E4B     		ldr	r3, .L180+16
 2678 006a 1A6C     		ldr	r2, [r3, #64]
 2679 006c 42F00202 		orr	r2, r2, #2
 2680 0070 1A64     		str	r2, [r3, #64]
 2681 0072 1B6C     		ldr	r3, [r3, #64]
 2682 0074 03F00203 		and	r3, r3, #2
 2683 0078 0393     		str	r3, [sp, #12]
 2684 007a 039B     		ldr	r3, [sp, #12]
 2685              	.LBE47:
 2686 007c E6E7     		b	.L169
 2687              	.L179:
 2688              	.LBB48:
1176:Core/Src/stm32f7xx_hal_msp.c ****   /* USER CODE BEGIN TIM5_MspInit 1 */
 2689              		.loc 1 1176 0
 2690 007e 094B     		ldr	r3, .L180+16
 2691 0080 1A6C     		ldr	r2, [r3, #64]
 2692 0082 42F00802 		orr	r2, r2, #8
 2693 0086 1A64     		str	r2, [r3, #64]
 2694 0088 1B6C     		ldr	r3, [r3, #64]
 2695 008a 03F00803 		and	r3, r3, #8
 2696 008e 0493     		str	r3, [sp, #16]
 2697 0090 049B     		ldr	r3, [sp, #16]
 2698              	.LBE48:
 2699 0092 DBE7     		b	.L169
 2700              	.L181:
 2701              		.align	2
 2702              	.L180:
 2703 0094 00000140 		.word	1073807360
 2704 0098 00040040 		.word	1073742848
 2705 009c 000C0040 		.word	1073744896
 2706 00a0 00040140 		.word	1073808384
 2707 00a4 00380240 		.word	1073887232
 2708              		.cfi_endproc
 2709              	.LFE166:
 2711              		.section	.text.HAL_TIM_PWM_MspInit,"ax",%progbits
 2712              		.align	1
 2713              		.global	HAL_TIM_PWM_MspInit
 2714              		.syntax unified
 2715              		.thumb
 2716              		.thumb_func
 2717              		.fpu fpv5-sp-d16
 2719              	HAL_TIM_PWM_MspInit:
 2720              	.LFB167:
1202:Core/Src/stm32f7xx_hal_msp.c ****   if(htim_pwm->Instance==TIM12)
 2721              		.loc 1 1202 0
 2722              		.cfi_startproc
 2723              		@ args = 0, pretend = 0, frame = 8
 2724              		@ frame_needed = 0, uses_anonymous_args = 0
 2725              		@ link register save eliminated.
 2726              	.LVL157:
1203:Core/Src/stm32f7xx_hal_msp.c ****   {
 2727              		.loc 1 1203 0
 2728 0000 0268     		ldr	r2, [r0]
 2729 0002 094B     		ldr	r3, .L189
ARM GAS  /tmp/ccJDgDyU.s 			page 85


 2730 0004 9A42     		cmp	r2, r3
 2731 0006 00D0     		beq	.L188
 2732 0008 7047     		bx	lr
 2733              	.L188:
1202:Core/Src/stm32f7xx_hal_msp.c ****   if(htim_pwm->Instance==TIM12)
 2734              		.loc 1 1202 0
 2735 000a 82B0     		sub	sp, sp, #8
 2736              	.LCFI62:
 2737              		.cfi_def_cfa_offset 8
 2738              	.LBB49:
1209:Core/Src/stm32f7xx_hal_msp.c ****   /* USER CODE BEGIN TIM12_MspInit 1 */
 2739              		.loc 1 1209 0
 2740 000c 03F50833 		add	r3, r3, #139264
 2741 0010 1A6C     		ldr	r2, [r3, #64]
 2742 0012 42F04002 		orr	r2, r2, #64
 2743 0016 1A64     		str	r2, [r3, #64]
 2744 0018 1B6C     		ldr	r3, [r3, #64]
 2745 001a 03F04003 		and	r3, r3, #64
 2746 001e 0193     		str	r3, [sp, #4]
 2747 0020 019B     		ldr	r3, [sp, #4]
 2748              	.LBE49:
1215:Core/Src/stm32f7xx_hal_msp.c **** 
 2749              		.loc 1 1215 0
 2750 0022 02B0     		add	sp, sp, #8
 2751              	.LCFI63:
 2752              		.cfi_def_cfa_offset 0
 2753              		@ sp needed
 2754 0024 7047     		bx	lr
 2755              	.L190:
 2756 0026 00BF     		.align	2
 2757              	.L189:
 2758 0028 00180040 		.word	1073747968
 2759              		.cfi_endproc
 2760              	.LFE167:
 2762              		.section	.text.HAL_TIM_MspPostInit,"ax",%progbits
 2763              		.align	1
 2764              		.global	HAL_TIM_MspPostInit
 2765              		.syntax unified
 2766              		.thumb
 2767              		.thumb_func
 2768              		.fpu fpv5-sp-d16
 2770              	HAL_TIM_MspPostInit:
 2771              	.LFB168:
1218:Core/Src/stm32f7xx_hal_msp.c ****   GPIO_InitTypeDef GPIO_InitStruct = {0};
 2772              		.loc 1 1218 0
 2773              		.cfi_startproc
 2774              		@ args = 0, pretend = 0, frame = 40
 2775              		@ frame_needed = 0, uses_anonymous_args = 0
 2776              	.LVL158:
 2777 0000 00B5     		push	{lr}
 2778              	.LCFI64:
 2779              		.cfi_def_cfa_offset 4
 2780              		.cfi_offset 14, -4
 2781 0002 8BB0     		sub	sp, sp, #44
 2782              	.LCFI65:
 2783              		.cfi_def_cfa_offset 48
1219:Core/Src/stm32f7xx_hal_msp.c ****   if(htim->Instance==TIM1)
ARM GAS  /tmp/ccJDgDyU.s 			page 86


 2784              		.loc 1 1219 0
 2785 0004 0023     		movs	r3, #0
 2786 0006 0593     		str	r3, [sp, #20]
 2787 0008 0693     		str	r3, [sp, #24]
 2788 000a 0793     		str	r3, [sp, #28]
 2789 000c 0893     		str	r3, [sp, #32]
 2790 000e 0993     		str	r3, [sp, #36]
1220:Core/Src/stm32f7xx_hal_msp.c ****   {
 2791              		.loc 1 1220 0
 2792 0010 0368     		ldr	r3, [r0]
 2793 0012 3E4A     		ldr	r2, .L203
 2794 0014 9342     		cmp	r3, r2
 2795 0016 0ED0     		beq	.L198
1240:Core/Src/stm32f7xx_hal_msp.c ****   {
 2796              		.loc 1 1240 0
 2797 0018 B3F1804F 		cmp	r3, #1073741824
 2798 001c 21D0     		beq	.L199
1261:Core/Src/stm32f7xx_hal_msp.c ****   {
 2799              		.loc 1 1261 0
 2800 001e 3C4A     		ldr	r2, .L203+4
 2801 0020 9342     		cmp	r3, r2
 2802 0022 35D0     		beq	.L200
1282:Core/Src/stm32f7xx_hal_msp.c ****   {
 2803              		.loc 1 1282 0
 2804 0024 3B4A     		ldr	r2, .L203+8
 2805 0026 9342     		cmp	r3, r2
 2806 0028 46D0     		beq	.L201
1303:Core/Src/stm32f7xx_hal_msp.c ****   {
 2807              		.loc 1 1303 0
 2808 002a 3B4A     		ldr	r2, .L203+12
 2809 002c 9342     		cmp	r3, r2
 2810 002e 57D0     		beq	.L202
 2811              	.LVL159:
 2812              	.L191:
1325:Core/Src/stm32f7xx_hal_msp.c **** /**
 2813              		.loc 1 1325 0
 2814 0030 0BB0     		add	sp, sp, #44
 2815              	.LCFI66:
 2816              		.cfi_remember_state
 2817              		.cfi_def_cfa_offset 4
 2818              		@ sp needed
 2819 0032 5DF804FB 		ldr	pc, [sp], #4
 2820              	.LVL160:
 2821              	.L198:
 2822              	.LCFI67:
 2823              		.cfi_restore_state
 2824              	.LBB50:
1225:Core/Src/stm32f7xx_hal_msp.c ****     /**TIM1 GPIO Configuration    
 2825              		.loc 1 1225 0
 2826 0036 394B     		ldr	r3, .L203+16
 2827 0038 1A6B     		ldr	r2, [r3, #48]
 2828 003a 42F00102 		orr	r2, r2, #1
 2829 003e 1A63     		str	r2, [r3, #48]
 2830 0040 1B6B     		ldr	r3, [r3, #48]
 2831 0042 03F00103 		and	r3, r3, #1
 2832 0046 0093     		str	r3, [sp]
 2833 0048 009B     		ldr	r3, [sp]
ARM GAS  /tmp/ccJDgDyU.s 			page 87


 2834              	.LBE50:
1229:Core/Src/stm32f7xx_hal_msp.c ****     GPIO_InitStruct.Mode = GPIO_MODE_AF_PP;
 2835              		.loc 1 1229 0
 2836 004a 4FF48073 		mov	r3, #256
 2837 004e 0593     		str	r3, [sp, #20]
1230:Core/Src/stm32f7xx_hal_msp.c ****     GPIO_InitStruct.Pull = GPIO_NOPULL;
 2838              		.loc 1 1230 0
 2839 0050 0223     		movs	r3, #2
 2840 0052 0693     		str	r3, [sp, #24]
1233:Core/Src/stm32f7xx_hal_msp.c ****     HAL_GPIO_Init(ARDUINO_PWM_D10_GPIO_Port, &GPIO_InitStruct);
 2841              		.loc 1 1233 0
 2842 0054 0123     		movs	r3, #1
 2843 0056 0993     		str	r3, [sp, #36]
1234:Core/Src/stm32f7xx_hal_msp.c **** 
 2844              		.loc 1 1234 0
 2845 0058 05A9     		add	r1, sp, #20
 2846 005a 3148     		ldr	r0, .L203+20
 2847              	.LVL161:
 2848 005c FFF7FEFF 		bl	HAL_GPIO_Init
 2849              	.LVL162:
 2850 0060 E6E7     		b	.L191
 2851              	.LVL163:
 2852              	.L199:
 2853              	.LBB51:
1246:Core/Src/stm32f7xx_hal_msp.c ****     /**TIM2 GPIO Configuration    
 2854              		.loc 1 1246 0
 2855 0062 03F50E33 		add	r3, r3, #145408
 2856 0066 1A6B     		ldr	r2, [r3, #48]
 2857 0068 42F00102 		orr	r2, r2, #1
 2858 006c 1A63     		str	r2, [r3, #48]
 2859 006e 1B6B     		ldr	r3, [r3, #48]
 2860 0070 03F00103 		and	r3, r3, #1
 2861 0074 0193     		str	r3, [sp, #4]
 2862 0076 019B     		ldr	r3, [sp, #4]
 2863              	.LBE51:
1250:Core/Src/stm32f7xx_hal_msp.c ****     GPIO_InitStruct.Mode = GPIO_MODE_AF_PP;
 2864              		.loc 1 1250 0
 2865 0078 4FF40043 		mov	r3, #32768
 2866 007c 0593     		str	r3, [sp, #20]
1251:Core/Src/stm32f7xx_hal_msp.c ****     GPIO_InitStruct.Pull = GPIO_NOPULL;
 2867              		.loc 1 1251 0
 2868 007e 0223     		movs	r3, #2
 2869 0080 0693     		str	r3, [sp, #24]
1254:Core/Src/stm32f7xx_hal_msp.c ****     HAL_GPIO_Init(ARDUINO_PWM_D9_GPIO_Port, &GPIO_InitStruct);
 2870              		.loc 1 1254 0
 2871 0082 0123     		movs	r3, #1
 2872 0084 0993     		str	r3, [sp, #36]
1255:Core/Src/stm32f7xx_hal_msp.c **** 
 2873              		.loc 1 1255 0
 2874 0086 05A9     		add	r1, sp, #20
 2875 0088 2548     		ldr	r0, .L203+20
 2876              	.LVL164:
 2877 008a FFF7FEFF 		bl	HAL_GPIO_Init
 2878              	.LVL165:
 2879 008e CFE7     		b	.L191
 2880              	.LVL166:
 2881              	.L200:
ARM GAS  /tmp/ccJDgDyU.s 			page 88


 2882              	.LBB52:
1267:Core/Src/stm32f7xx_hal_msp.c ****     /**TIM3 GPIO Configuration    
 2883              		.loc 1 1267 0
 2884 0090 224B     		ldr	r3, .L203+16
 2885 0092 1A6B     		ldr	r2, [r3, #48]
 2886 0094 42F00202 		orr	r2, r2, #2
 2887 0098 1A63     		str	r2, [r3, #48]
 2888 009a 1B6B     		ldr	r3, [r3, #48]
 2889 009c 03F00203 		and	r3, r3, #2
 2890 00a0 0293     		str	r3, [sp, #8]
 2891 00a2 029B     		ldr	r3, [sp, #8]
 2892              	.LBE52:
1271:Core/Src/stm32f7xx_hal_msp.c ****     GPIO_InitStruct.Mode = GPIO_MODE_AF_PP;
 2893              		.loc 1 1271 0
 2894 00a4 1023     		movs	r3, #16
 2895 00a6 0593     		str	r3, [sp, #20]
1272:Core/Src/stm32f7xx_hal_msp.c ****     GPIO_InitStruct.Pull = GPIO_NOPULL;
 2896              		.loc 1 1272 0
 2897 00a8 0223     		movs	r3, #2
 2898 00aa 0693     		str	r3, [sp, #24]
1275:Core/Src/stm32f7xx_hal_msp.c ****     HAL_GPIO_Init(ARDUINO_PWM_D3_GPIO_Port, &GPIO_InitStruct);
 2899              		.loc 1 1275 0
 2900 00ac 0993     		str	r3, [sp, #36]
1276:Core/Src/stm32f7xx_hal_msp.c **** 
 2901              		.loc 1 1276 0
 2902 00ae 05A9     		add	r1, sp, #20
 2903 00b0 1C48     		ldr	r0, .L203+24
 2904              	.LVL167:
 2905 00b2 FFF7FEFF 		bl	HAL_GPIO_Init
 2906              	.LVL168:
 2907 00b6 BBE7     		b	.L191
 2908              	.LVL169:
 2909              	.L201:
 2910              	.LBB53:
1288:Core/Src/stm32f7xx_hal_msp.c ****     /**TIM5 GPIO Configuration    
 2911              		.loc 1 1288 0
 2912 00b8 184B     		ldr	r3, .L203+16
 2913 00ba 1A6B     		ldr	r2, [r3, #48]
 2914 00bc 42F48072 		orr	r2, r2, #256
 2915 00c0 1A63     		str	r2, [r3, #48]
 2916 00c2 1B6B     		ldr	r3, [r3, #48]
 2917 00c4 03F48073 		and	r3, r3, #256
 2918 00c8 0393     		str	r3, [sp, #12]
 2919 00ca 039B     		ldr	r3, [sp, #12]
 2920              	.LBE53:
1292:Core/Src/stm32f7xx_hal_msp.c ****     GPIO_InitStruct.Mode = GPIO_MODE_AF_PP;
 2921              		.loc 1 1292 0
 2922 00cc 0123     		movs	r3, #1
 2923 00ce 0593     		str	r3, [sp, #20]
1293:Core/Src/stm32f7xx_hal_msp.c ****     GPIO_InitStruct.Pull = GPIO_NOPULL;
 2924              		.loc 1 1293 0
 2925 00d0 0223     		movs	r3, #2
 2926 00d2 0693     		str	r3, [sp, #24]
1296:Core/Src/stm32f7xx_hal_msp.c ****     HAL_GPIO_Init(ARDUINO_PWM_CS_D5_GPIO_Port, &GPIO_InitStruct);
 2927              		.loc 1 1296 0
 2928 00d4 0993     		str	r3, [sp, #36]
1297:Core/Src/stm32f7xx_hal_msp.c **** 
ARM GAS  /tmp/ccJDgDyU.s 			page 89


 2929              		.loc 1 1297 0
 2930 00d6 05A9     		add	r1, sp, #20
 2931 00d8 1348     		ldr	r0, .L203+28
 2932              	.LVL170:
 2933 00da FFF7FEFF 		bl	HAL_GPIO_Init
 2934              	.LVL171:
 2935 00de A7E7     		b	.L191
 2936              	.LVL172:
 2937              	.L202:
 2938              	.LBB54:
1309:Core/Src/stm32f7xx_hal_msp.c ****     /**TIM12 GPIO Configuration    
 2939              		.loc 1 1309 0
 2940 00e0 0E4B     		ldr	r3, .L203+16
 2941 00e2 1A6B     		ldr	r2, [r3, #48]
 2942 00e4 42F08002 		orr	r2, r2, #128
 2943 00e8 1A63     		str	r2, [r3, #48]
 2944 00ea 1B6B     		ldr	r3, [r3, #48]
 2945 00ec 03F08003 		and	r3, r3, #128
 2946 00f0 0493     		str	r3, [sp, #16]
 2947 00f2 049B     		ldr	r3, [sp, #16]
 2948              	.LBE54:
1313:Core/Src/stm32f7xx_hal_msp.c ****     GPIO_InitStruct.Mode = GPIO_MODE_AF_PP;
 2949              		.loc 1 1313 0
 2950 00f4 4023     		movs	r3, #64
 2951 00f6 0593     		str	r3, [sp, #20]
1314:Core/Src/stm32f7xx_hal_msp.c ****     GPIO_InitStruct.Pull = GPIO_NOPULL;
 2952              		.loc 1 1314 0
 2953 00f8 0223     		movs	r3, #2
 2954 00fa 0693     		str	r3, [sp, #24]
1317:Core/Src/stm32f7xx_hal_msp.c ****     HAL_GPIO_Init(ARDUINO_PWM_D6_GPIO_Port, &GPIO_InitStruct);
 2955              		.loc 1 1317 0
 2956 00fc 0923     		movs	r3, #9
 2957 00fe 0993     		str	r3, [sp, #36]
1318:Core/Src/stm32f7xx_hal_msp.c **** 
 2958              		.loc 1 1318 0
 2959 0100 05A9     		add	r1, sp, #20
 2960 0102 0A48     		ldr	r0, .L203+32
 2961              	.LVL173:
 2962 0104 FFF7FEFF 		bl	HAL_GPIO_Init
 2963              	.LVL174:
1325:Core/Src/stm32f7xx_hal_msp.c **** /**
 2964              		.loc 1 1325 0
 2965 0108 92E7     		b	.L191
 2966              	.L204:
 2967 010a 00BF     		.align	2
 2968              	.L203:
 2969 010c 00000140 		.word	1073807360
 2970 0110 00040040 		.word	1073742848
 2971 0114 000C0040 		.word	1073744896
 2972 0118 00180040 		.word	1073747968
 2973 011c 00380240 		.word	1073887232
 2974 0120 00000240 		.word	1073872896
 2975 0124 00040240 		.word	1073873920
 2976 0128 00200240 		.word	1073881088
 2977 012c 001C0240 		.word	1073880064
 2978              		.cfi_endproc
 2979              	.LFE168:
ARM GAS  /tmp/ccJDgDyU.s 			page 90


 2981              		.section	.text.HAL_TIM_Base_MspDeInit,"ax",%progbits
 2982              		.align	1
 2983              		.global	HAL_TIM_Base_MspDeInit
 2984              		.syntax unified
 2985              		.thumb
 2986              		.thumb_func
 2987              		.fpu fpv5-sp-d16
 2989              	HAL_TIM_Base_MspDeInit:
 2990              	.LFB169:
1333:Core/Src/stm32f7xx_hal_msp.c ****   if(htim_base->Instance==TIM1)
 2991              		.loc 1 1333 0
 2992              		.cfi_startproc
 2993              		@ args = 0, pretend = 0, frame = 0
 2994              		@ frame_needed = 0, uses_anonymous_args = 0
 2995              		@ link register save eliminated.
 2996              	.LVL175:
1334:Core/Src/stm32f7xx_hal_msp.c ****   {
 2997              		.loc 1 1334 0
 2998 0000 0368     		ldr	r3, [r0]
 2999 0002 194A     		ldr	r2, .L216
 3000 0004 9342     		cmp	r3, r2
 3001 0006 0CD0     		beq	.L211
1345:Core/Src/stm32f7xx_hal_msp.c ****   {
 3002              		.loc 1 1345 0
 3003 0008 B3F1804F 		cmp	r3, #1073741824
 3004 000c 10D0     		beq	.L212
1356:Core/Src/stm32f7xx_hal_msp.c ****   {
 3005              		.loc 1 1356 0
 3006 000e 174A     		ldr	r2, .L216+4
 3007 0010 9342     		cmp	r3, r2
 3008 0012 13D0     		beq	.L213
1367:Core/Src/stm32f7xx_hal_msp.c ****   {
 3009              		.loc 1 1367 0
 3010 0014 164A     		ldr	r2, .L216+8
 3011 0016 9342     		cmp	r3, r2
 3012 0018 17D0     		beq	.L214
1378:Core/Src/stm32f7xx_hal_msp.c ****   {
 3013              		.loc 1 1378 0
 3014 001a 164A     		ldr	r2, .L216+12
 3015 001c 9342     		cmp	r3, r2
 3016 001e 1BD0     		beq	.L215
 3017              	.L205:
1390:Core/Src/stm32f7xx_hal_msp.c **** 
 3018              		.loc 1 1390 0
 3019 0020 7047     		bx	lr
 3020              	.L211:
1340:Core/Src/stm32f7xx_hal_msp.c ****   /* USER CODE BEGIN TIM1_MspDeInit 1 */
 3021              		.loc 1 1340 0
 3022 0022 02F59C32 		add	r2, r2, #79872
 3023 0026 536C     		ldr	r3, [r2, #68]
 3024 0028 23F00103 		bic	r3, r3, #1
 3025 002c 5364     		str	r3, [r2, #68]
 3026 002e 7047     		bx	lr
 3027              	.L212:
1351:Core/Src/stm32f7xx_hal_msp.c ****   /* USER CODE BEGIN TIM2_MspDeInit 1 */
 3028              		.loc 1 1351 0
 3029 0030 114A     		ldr	r2, .L216+16
ARM GAS  /tmp/ccJDgDyU.s 			page 91


 3030 0032 136C     		ldr	r3, [r2, #64]
 3031 0034 23F00103 		bic	r3, r3, #1
 3032 0038 1364     		str	r3, [r2, #64]
 3033 003a 7047     		bx	lr
 3034              	.L213:
1362:Core/Src/stm32f7xx_hal_msp.c ****   /* USER CODE BEGIN TIM3_MspDeInit 1 */
 3035              		.loc 1 1362 0
 3036 003c 02F50D32 		add	r2, r2, #144384
 3037 0040 136C     		ldr	r3, [r2, #64]
 3038 0042 23F00203 		bic	r3, r3, #2
 3039 0046 1364     		str	r3, [r2, #64]
 3040 0048 7047     		bx	lr
 3041              	.L214:
1373:Core/Src/stm32f7xx_hal_msp.c ****   /* USER CODE BEGIN TIM5_MspDeInit 1 */
 3042              		.loc 1 1373 0
 3043 004a 02F50B32 		add	r2, r2, #142336
 3044 004e 136C     		ldr	r3, [r2, #64]
 3045 0050 23F00803 		bic	r3, r3, #8
 3046 0054 1364     		str	r3, [r2, #64]
 3047 0056 7047     		bx	lr
 3048              	.L215:
1384:Core/Src/stm32f7xx_hal_msp.c ****   /* USER CODE BEGIN TIM8_MspDeInit 1 */
 3049              		.loc 1 1384 0
 3050 0058 02F59A32 		add	r2, r2, #78848
 3051 005c 536C     		ldr	r3, [r2, #68]
 3052 005e 23F00203 		bic	r3, r3, #2
 3053 0062 5364     		str	r3, [r2, #68]
1390:Core/Src/stm32f7xx_hal_msp.c **** 
 3054              		.loc 1 1390 0
 3055 0064 DCE7     		b	.L205
 3056              	.L217:
 3057 0066 00BF     		.align	2
 3058              	.L216:
 3059 0068 00000140 		.word	1073807360
 3060 006c 00040040 		.word	1073742848
 3061 0070 000C0040 		.word	1073744896
 3062 0074 00040140 		.word	1073808384
 3063 0078 00380240 		.word	1073887232
 3064              		.cfi_endproc
 3065              	.LFE169:
 3067              		.section	.text.HAL_TIM_PWM_MspDeInit,"ax",%progbits
 3068              		.align	1
 3069              		.global	HAL_TIM_PWM_MspDeInit
 3070              		.syntax unified
 3071              		.thumb
 3072              		.thumb_func
 3073              		.fpu fpv5-sp-d16
 3075              	HAL_TIM_PWM_MspDeInit:
 3076              	.LFB170:
1399:Core/Src/stm32f7xx_hal_msp.c ****   if(htim_pwm->Instance==TIM12)
 3077              		.loc 1 1399 0
 3078              		.cfi_startproc
 3079              		@ args = 0, pretend = 0, frame = 0
 3080              		@ frame_needed = 0, uses_anonymous_args = 0
 3081              		@ link register save eliminated.
 3082              	.LVL176:
1400:Core/Src/stm32f7xx_hal_msp.c ****   {
ARM GAS  /tmp/ccJDgDyU.s 			page 92


 3083              		.loc 1 1400 0
 3084 0000 0268     		ldr	r2, [r0]
 3085 0002 054B     		ldr	r3, .L221
 3086 0004 9A42     		cmp	r2, r3
 3087 0006 00D0     		beq	.L220
 3088              	.L218:
1412:Core/Src/stm32f7xx_hal_msp.c **** 
 3089              		.loc 1 1412 0
 3090 0008 7047     		bx	lr
 3091              	.L220:
1406:Core/Src/stm32f7xx_hal_msp.c ****   /* USER CODE BEGIN TIM12_MspDeInit 1 */
 3092              		.loc 1 1406 0
 3093 000a 044A     		ldr	r2, .L221+4
 3094 000c 136C     		ldr	r3, [r2, #64]
 3095 000e 23F04003 		bic	r3, r3, #64
 3096 0012 1364     		str	r3, [r2, #64]
1412:Core/Src/stm32f7xx_hal_msp.c **** 
 3097              		.loc 1 1412 0
 3098 0014 F8E7     		b	.L218
 3099              	.L222:
 3100 0016 00BF     		.align	2
 3101              	.L221:
 3102 0018 00180040 		.word	1073747968
 3103 001c 00380240 		.word	1073887232
 3104              		.cfi_endproc
 3105              	.LFE170:
 3107              		.section	.text.HAL_UART_MspInit,"ax",%progbits
 3108              		.align	1
 3109              		.global	HAL_UART_MspInit
 3110              		.syntax unified
 3111              		.thumb
 3112              		.thumb_func
 3113              		.fpu fpv5-sp-d16
 3115              	HAL_UART_MspInit:
 3116              	.LFB171:
1421:Core/Src/stm32f7xx_hal_msp.c ****   GPIO_InitTypeDef GPIO_InitStruct = {0};
 3117              		.loc 1 1421 0
 3118              		.cfi_startproc
 3119              		@ args = 0, pretend = 0, frame = 40
 3120              		@ frame_needed = 0, uses_anonymous_args = 0
 3121              	.LVL177:
 3122 0000 30B5     		push	{r4, r5, lr}
 3123              	.LCFI68:
 3124              		.cfi_def_cfa_offset 12
 3125              		.cfi_offset 4, -12
 3126              		.cfi_offset 5, -8
 3127              		.cfi_offset 14, -4
 3128 0002 8BB0     		sub	sp, sp, #44
 3129              	.LCFI69:
 3130              		.cfi_def_cfa_offset 56
1422:Core/Src/stm32f7xx_hal_msp.c ****   if(huart->Instance==USART1)
 3131              		.loc 1 1422 0
 3132 0004 0023     		movs	r3, #0
 3133 0006 0593     		str	r3, [sp, #20]
 3134 0008 0693     		str	r3, [sp, #24]
 3135 000a 0793     		str	r3, [sp, #28]
 3136 000c 0893     		str	r3, [sp, #32]
ARM GAS  /tmp/ccJDgDyU.s 			page 93


 3137 000e 0993     		str	r3, [sp, #36]
1423:Core/Src/stm32f7xx_hal_msp.c ****   {
 3138              		.loc 1 1423 0
 3139 0010 0368     		ldr	r3, [r0]
 3140 0012 2D4A     		ldr	r2, .L229
 3141 0014 9342     		cmp	r3, r2
 3142 0016 04D0     		beq	.L227
1455:Core/Src/stm32f7xx_hal_msp.c ****   {
 3143              		.loc 1 1455 0
 3144 0018 2C4A     		ldr	r2, .L229+4
 3145 001a 9342     		cmp	r3, r2
 3146 001c 34D0     		beq	.L228
 3147              	.LVL178:
 3148              	.L223:
1480:Core/Src/stm32f7xx_hal_msp.c **** 
 3149              		.loc 1 1480 0
 3150 001e 0BB0     		add	sp, sp, #44
 3151              	.LCFI70:
 3152              		.cfi_remember_state
 3153              		.cfi_def_cfa_offset 12
 3154              		@ sp needed
 3155 0020 30BD     		pop	{r4, r5, pc}
 3156              	.LVL179:
 3157              	.L227:
 3158              	.LCFI71:
 3159              		.cfi_restore_state
 3160              	.LBB55:
1429:Core/Src/stm32f7xx_hal_msp.c ****   
 3161              		.loc 1 1429 0
 3162 0022 2B4B     		ldr	r3, .L229+8
 3163 0024 5A6C     		ldr	r2, [r3, #68]
 3164 0026 42F01002 		orr	r2, r2, #16
 3165 002a 5A64     		str	r2, [r3, #68]
 3166 002c 5A6C     		ldr	r2, [r3, #68]
 3167 002e 02F01002 		and	r2, r2, #16
 3168 0032 0092     		str	r2, [sp]
 3169 0034 009A     		ldr	r2, [sp]
 3170              	.LBE55:
 3171              	.LBB56:
1431:Core/Src/stm32f7xx_hal_msp.c ****     __HAL_RCC_GPIOA_CLK_ENABLE();
 3172              		.loc 1 1431 0
 3173 0036 1A6B     		ldr	r2, [r3, #48]
 3174 0038 42F00202 		orr	r2, r2, #2
 3175 003c 1A63     		str	r2, [r3, #48]
 3176 003e 1A6B     		ldr	r2, [r3, #48]
 3177 0040 02F00202 		and	r2, r2, #2
 3178 0044 0192     		str	r2, [sp, #4]
 3179 0046 019A     		ldr	r2, [sp, #4]
 3180              	.LBE56:
 3181              	.LBB57:
1432:Core/Src/stm32f7xx_hal_msp.c ****     /**USART1 GPIO Configuration    
 3182              		.loc 1 1432 0
 3183 0048 1A6B     		ldr	r2, [r3, #48]
 3184 004a 42F00102 		orr	r2, r2, #1
 3185 004e 1A63     		str	r2, [r3, #48]
 3186 0050 1B6B     		ldr	r3, [r3, #48]
 3187 0052 03F00103 		and	r3, r3, #1
ARM GAS  /tmp/ccJDgDyU.s 			page 94


 3188 0056 0293     		str	r3, [sp, #8]
 3189 0058 029B     		ldr	r3, [sp, #8]
 3190              	.LBE57:
1437:Core/Src/stm32f7xx_hal_msp.c ****     GPIO_InitStruct.Mode = GPIO_MODE_AF_PP;
 3191              		.loc 1 1437 0
 3192 005a 8023     		movs	r3, #128
 3193 005c 0593     		str	r3, [sp, #20]
1438:Core/Src/stm32f7xx_hal_msp.c ****     GPIO_InitStruct.Pull = GPIO_NOPULL;
 3194              		.loc 1 1438 0
 3195 005e 0225     		movs	r5, #2
 3196 0060 0695     		str	r5, [sp, #24]
1441:Core/Src/stm32f7xx_hal_msp.c ****     HAL_GPIO_Init(VCP_RX_GPIO_Port, &GPIO_InitStruct);
 3197              		.loc 1 1441 0
 3198 0062 0724     		movs	r4, #7
 3199 0064 0994     		str	r4, [sp, #36]
1442:Core/Src/stm32f7xx_hal_msp.c **** 
 3200              		.loc 1 1442 0
 3201 0066 05A9     		add	r1, sp, #20
 3202 0068 1A48     		ldr	r0, .L229+12
 3203              	.LVL180:
 3204 006a FFF7FEFF 		bl	HAL_GPIO_Init
 3205              	.LVL181:
1444:Core/Src/stm32f7xx_hal_msp.c ****     GPIO_InitStruct.Mode = GPIO_MODE_AF_PP;
 3206              		.loc 1 1444 0
 3207 006e 4FF40073 		mov	r3, #512
 3208 0072 0593     		str	r3, [sp, #20]
1445:Core/Src/stm32f7xx_hal_msp.c ****     GPIO_InitStruct.Pull = GPIO_NOPULL;
 3209              		.loc 1 1445 0
 3210 0074 0695     		str	r5, [sp, #24]
1446:Core/Src/stm32f7xx_hal_msp.c ****     GPIO_InitStruct.Speed = GPIO_SPEED_FREQ_LOW;
 3211              		.loc 1 1446 0
 3212 0076 0023     		movs	r3, #0
 3213 0078 0793     		str	r3, [sp, #28]
1447:Core/Src/stm32f7xx_hal_msp.c ****     GPIO_InitStruct.Alternate = GPIO_AF7_USART1;
 3214              		.loc 1 1447 0
 3215 007a 0893     		str	r3, [sp, #32]
1448:Core/Src/stm32f7xx_hal_msp.c ****     HAL_GPIO_Init(VCP_TX_GPIO_Port, &GPIO_InitStruct);
 3216              		.loc 1 1448 0
 3217 007c 0994     		str	r4, [sp, #36]
1449:Core/Src/stm32f7xx_hal_msp.c **** 
 3218              		.loc 1 1449 0
 3219 007e 05A9     		add	r1, sp, #20
 3220 0080 1548     		ldr	r0, .L229+16
 3221 0082 FFF7FEFF 		bl	HAL_GPIO_Init
 3222              	.LVL182:
 3223 0086 CAE7     		b	.L223
 3224              	.LVL183:
 3225              	.L228:
 3226              	.LBB58:
1461:Core/Src/stm32f7xx_hal_msp.c ****   
 3227              		.loc 1 1461 0
 3228 0088 114B     		ldr	r3, .L229+8
 3229 008a 5A6C     		ldr	r2, [r3, #68]
 3230 008c 42F02002 		orr	r2, r2, #32
 3231 0090 5A64     		str	r2, [r3, #68]
 3232 0092 5A6C     		ldr	r2, [r3, #68]
 3233 0094 02F02002 		and	r2, r2, #32
ARM GAS  /tmp/ccJDgDyU.s 			page 95


 3234 0098 0392     		str	r2, [sp, #12]
 3235 009a 039A     		ldr	r2, [sp, #12]
 3236              	.LBE58:
 3237              	.LBB59:
1463:Core/Src/stm32f7xx_hal_msp.c ****     /**USART6 GPIO Configuration    
 3238              		.loc 1 1463 0
 3239 009c 1A6B     		ldr	r2, [r3, #48]
 3240 009e 42F00402 		orr	r2, r2, #4
 3241 00a2 1A63     		str	r2, [r3, #48]
 3242 00a4 1B6B     		ldr	r3, [r3, #48]
 3243 00a6 03F00403 		and	r3, r3, #4
 3244 00aa 0493     		str	r3, [sp, #16]
 3245 00ac 049B     		ldr	r3, [sp, #16]
 3246              	.LBE59:
1468:Core/Src/stm32f7xx_hal_msp.c ****     GPIO_InitStruct.Mode = GPIO_MODE_AF_PP;
 3247              		.loc 1 1468 0
 3248 00ae C023     		movs	r3, #192
 3249 00b0 0593     		str	r3, [sp, #20]
1469:Core/Src/stm32f7xx_hal_msp.c ****     GPIO_InitStruct.Pull = GPIO_NOPULL;
 3250              		.loc 1 1469 0
 3251 00b2 0223     		movs	r3, #2
 3252 00b4 0693     		str	r3, [sp, #24]
1471:Core/Src/stm32f7xx_hal_msp.c ****     GPIO_InitStruct.Alternate = GPIO_AF8_USART6;
 3253              		.loc 1 1471 0
 3254 00b6 0323     		movs	r3, #3
 3255 00b8 0893     		str	r3, [sp, #32]
1472:Core/Src/stm32f7xx_hal_msp.c ****     HAL_GPIO_Init(GPIOC, &GPIO_InitStruct);
 3256              		.loc 1 1472 0
 3257 00ba 0823     		movs	r3, #8
 3258 00bc 0993     		str	r3, [sp, #36]
1473:Core/Src/stm32f7xx_hal_msp.c **** 
 3259              		.loc 1 1473 0
 3260 00be 05A9     		add	r1, sp, #20
 3261 00c0 0648     		ldr	r0, .L229+20
 3262              	.LVL184:
 3263 00c2 FFF7FEFF 		bl	HAL_GPIO_Init
 3264              	.LVL185:
1480:Core/Src/stm32f7xx_hal_msp.c **** 
 3265              		.loc 1 1480 0
 3266 00c6 AAE7     		b	.L223
 3267              	.L230:
 3268              		.align	2
 3269              	.L229:
 3270 00c8 00100140 		.word	1073811456
 3271 00cc 00140140 		.word	1073812480
 3272 00d0 00380240 		.word	1073887232
 3273 00d4 00040240 		.word	1073873920
 3274 00d8 00000240 		.word	1073872896
 3275 00dc 00080240 		.word	1073874944
 3276              		.cfi_endproc
 3277              	.LFE171:
 3279              		.section	.text.HAL_UART_MspDeInit,"ax",%progbits
 3280              		.align	1
 3281              		.global	HAL_UART_MspDeInit
 3282              		.syntax unified
 3283              		.thumb
 3284              		.thumb_func
ARM GAS  /tmp/ccJDgDyU.s 			page 96


 3285              		.fpu fpv5-sp-d16
 3287              	HAL_UART_MspDeInit:
 3288              	.LFB172:
1489:Core/Src/stm32f7xx_hal_msp.c ****   if(huart->Instance==USART1)
 3289              		.loc 1 1489 0
 3290              		.cfi_startproc
 3291              		@ args = 0, pretend = 0, frame = 0
 3292              		@ frame_needed = 0, uses_anonymous_args = 0
 3293              	.LVL186:
 3294 0000 08B5     		push	{r3, lr}
 3295              	.LCFI72:
 3296              		.cfi_def_cfa_offset 8
 3297              		.cfi_offset 3, -8
 3298              		.cfi_offset 14, -4
1490:Core/Src/stm32f7xx_hal_msp.c ****   {
 3299              		.loc 1 1490 0
 3300 0002 0368     		ldr	r3, [r0]
 3301 0004 104A     		ldr	r2, .L237
 3302 0006 9342     		cmp	r3, r2
 3303 0008 03D0     		beq	.L235
1510:Core/Src/stm32f7xx_hal_msp.c ****   {
 3304              		.loc 1 1510 0
 3305 000a 104A     		ldr	r2, .L237+4
 3306 000c 9342     		cmp	r3, r2
 3307 000e 10D0     		beq	.L236
 3308              	.LVL187:
 3309              	.L231:
1529:Core/Src/stm32f7xx_hal_msp.c **** 
 3310              		.loc 1 1529 0
 3311 0010 08BD     		pop	{r3, pc}
 3312              	.LVL188:
 3313              	.L235:
1496:Core/Src/stm32f7xx_hal_msp.c ****   
 3314              		.loc 1 1496 0
 3315 0012 02F59432 		add	r2, r2, #75776
 3316 0016 536C     		ldr	r3, [r2, #68]
 3317 0018 23F01003 		bic	r3, r3, #16
 3318 001c 5364     		str	r3, [r2, #68]
1502:Core/Src/stm32f7xx_hal_msp.c **** 
 3319              		.loc 1 1502 0
 3320 001e 8021     		movs	r1, #128
 3321 0020 0B48     		ldr	r0, .L237+8
 3322              	.LVL189:
 3323 0022 FFF7FEFF 		bl	HAL_GPIO_DeInit
 3324              	.LVL190:
1504:Core/Src/stm32f7xx_hal_msp.c **** 
 3325              		.loc 1 1504 0
 3326 0026 4FF40071 		mov	r1, #512
 3327 002a 0A48     		ldr	r0, .L237+12
 3328 002c FFF7FEFF 		bl	HAL_GPIO_DeInit
 3329              	.LVL191:
 3330 0030 EEE7     		b	.L231
 3331              	.LVL192:
 3332              	.L236:
1516:Core/Src/stm32f7xx_hal_msp.c ****   
 3333              		.loc 1 1516 0
 3334 0032 02F59232 		add	r2, r2, #74752
ARM GAS  /tmp/ccJDgDyU.s 			page 97


 3335 0036 536C     		ldr	r3, [r2, #68]
 3336 0038 23F02003 		bic	r3, r3, #32
 3337 003c 5364     		str	r3, [r2, #68]
1522:Core/Src/stm32f7xx_hal_msp.c **** 
 3338              		.loc 1 1522 0
 3339 003e C021     		movs	r1, #192
 3340 0040 0548     		ldr	r0, .L237+16
 3341              	.LVL193:
 3342 0042 FFF7FEFF 		bl	HAL_GPIO_DeInit
 3343              	.LVL194:
1529:Core/Src/stm32f7xx_hal_msp.c **** 
 3344              		.loc 1 1529 0
 3345 0046 E3E7     		b	.L231
 3346              	.L238:
 3347              		.align	2
 3348              	.L237:
 3349 0048 00100140 		.word	1073811456
 3350 004c 00140140 		.word	1073812480
 3351 0050 00040240 		.word	1073873920
 3352 0054 00000240 		.word	1073872896
 3353 0058 00080240 		.word	1073874944
 3354              		.cfi_endproc
 3355              	.LFE172:
 3357              		.section	.text.HAL_SDRAM_MspInit,"ax",%progbits
 3358              		.align	1
 3359              		.global	HAL_SDRAM_MspInit
 3360              		.syntax unified
 3361              		.thumb
 3362              		.thumb_func
 3363              		.fpu fpv5-sp-d16
 3365              	HAL_SDRAM_MspInit:
 3366              	.LFB174:
1639:Core/Src/stm32f7xx_hal_msp.c ****   /* USER CODE BEGIN SDRAM_MspInit 0 */
 3367              		.loc 1 1639 0
 3368              		.cfi_startproc
 3369              		@ args = 0, pretend = 0, frame = 0
 3370              		@ frame_needed = 0, uses_anonymous_args = 0
 3371              	.LVL195:
 3372 0000 08B5     		push	{r3, lr}
 3373              	.LCFI73:
 3374              		.cfi_def_cfa_offset 8
 3375              		.cfi_offset 3, -8
 3376              		.cfi_offset 14, -4
1643:Core/Src/stm32f7xx_hal_msp.c ****   /* USER CODE BEGIN SDRAM_MspInit 1 */
 3377              		.loc 1 1643 0
 3378 0002 FFF7FEFF 		bl	HAL_FMC_MspInit
 3379              	.LVL196:
1647:Core/Src/stm32f7xx_hal_msp.c **** 
 3380              		.loc 1 1647 0
 3381 0006 08BD     		pop	{r3, pc}
 3382              		.cfi_endproc
 3383              	.LFE174:
 3385              		.section	.text.HAL_SDRAM_MspDeInit,"ax",%progbits
 3386              		.align	1
 3387              		.global	HAL_SDRAM_MspDeInit
 3388              		.syntax unified
 3389              		.thumb
ARM GAS  /tmp/ccJDgDyU.s 			page 98


 3390              		.thumb_func
 3391              		.fpu fpv5-sp-d16
 3393              	HAL_SDRAM_MspDeInit:
 3394              	.LFB176:
1724:Core/Src/stm32f7xx_hal_msp.c **** 
1725:Core/Src/stm32f7xx_hal_msp.c **** void HAL_SDRAM_MspDeInit(SDRAM_HandleTypeDef* hsdram){
 3395              		.loc 1 1725 0
 3396              		.cfi_startproc
 3397              		@ args = 0, pretend = 0, frame = 0
 3398              		@ frame_needed = 0, uses_anonymous_args = 0
 3399              	.LVL197:
 3400 0000 08B5     		push	{r3, lr}
 3401              	.LCFI74:
 3402              		.cfi_def_cfa_offset 8
 3403              		.cfi_offset 3, -8
 3404              		.cfi_offset 14, -4
1726:Core/Src/stm32f7xx_hal_msp.c ****   /* USER CODE BEGIN SDRAM_MspDeInit 0 */
1727:Core/Src/stm32f7xx_hal_msp.c **** 
1728:Core/Src/stm32f7xx_hal_msp.c ****   /* USER CODE END SDRAM_MspDeInit 0 */
1729:Core/Src/stm32f7xx_hal_msp.c ****   HAL_FMC_MspDeInit();
 3405              		.loc 1 1729 0
 3406 0002 FFF7FEFF 		bl	HAL_FMC_MspDeInit
 3407              	.LVL198:
1730:Core/Src/stm32f7xx_hal_msp.c ****   /* USER CODE BEGIN SDRAM_MspDeInit 1 */
1731:Core/Src/stm32f7xx_hal_msp.c **** 
1732:Core/Src/stm32f7xx_hal_msp.c ****   /* USER CODE END SDRAM_MspDeInit 1 */
1733:Core/Src/stm32f7xx_hal_msp.c **** }
 3408              		.loc 1 1733 0
 3409 0006 08BD     		pop	{r3, pc}
 3410              		.cfi_endproc
 3411              	.LFE176:
 3413              		.section	.text.HAL_SAI_MspInit,"ax",%progbits
 3414              		.align	1
 3415              		.global	HAL_SAI_MspInit
 3416              		.syntax unified
 3417              		.thumb
 3418              		.thumb_func
 3419              		.fpu fpv5-sp-d16
 3421              	HAL_SAI_MspInit:
 3422              	.LFB177:
1734:Core/Src/stm32f7xx_hal_msp.c **** 
1735:Core/Src/stm32f7xx_hal_msp.c **** static uint32_t SAI2_client =0;
1736:Core/Src/stm32f7xx_hal_msp.c **** 
1737:Core/Src/stm32f7xx_hal_msp.c **** void HAL_SAI_MspInit(SAI_HandleTypeDef* hsai)
1738:Core/Src/stm32f7xx_hal_msp.c **** {
 3423              		.loc 1 1738 0
 3424              		.cfi_startproc
 3425              		@ args = 0, pretend = 0, frame = 32
 3426              		@ frame_needed = 0, uses_anonymous_args = 0
 3427              	.LVL199:
 3428 0000 10B5     		push	{r4, lr}
 3429              	.LCFI75:
 3430              		.cfi_def_cfa_offset 8
 3431              		.cfi_offset 4, -8
 3432              		.cfi_offset 14, -4
 3433 0002 88B0     		sub	sp, sp, #32
 3434              	.LCFI76:
ARM GAS  /tmp/ccJDgDyU.s 			page 99


 3435              		.cfi_def_cfa_offset 40
 3436 0004 0446     		mov	r4, r0
1739:Core/Src/stm32f7xx_hal_msp.c **** 
1740:Core/Src/stm32f7xx_hal_msp.c ****   GPIO_InitTypeDef GPIO_InitStruct;
1741:Core/Src/stm32f7xx_hal_msp.c **** /* SAI2 */
1742:Core/Src/stm32f7xx_hal_msp.c ****     if(hsai->Instance==SAI2_Block_A)
 3437              		.loc 1 1742 0
 3438 0006 0268     		ldr	r2, [r0]
 3439 0008 224B     		ldr	r3, .L251
 3440 000a 9A42     		cmp	r2, r3
 3441 000c 05D0     		beq	.L249
 3442              	.LVL200:
 3443              	.L244:
1743:Core/Src/stm32f7xx_hal_msp.c ****     {
1744:Core/Src/stm32f7xx_hal_msp.c ****     /* Peripheral clock enable */
1745:Core/Src/stm32f7xx_hal_msp.c ****     if (SAI2_client == 0)
1746:Core/Src/stm32f7xx_hal_msp.c ****     {
1747:Core/Src/stm32f7xx_hal_msp.c ****        __HAL_RCC_SAI2_CLK_ENABLE();
1748:Core/Src/stm32f7xx_hal_msp.c ****     }
1749:Core/Src/stm32f7xx_hal_msp.c ****     SAI2_client ++;
1750:Core/Src/stm32f7xx_hal_msp.c ****     
1751:Core/Src/stm32f7xx_hal_msp.c ****     /**SAI2_A_Block_A GPIO Configuration    
1752:Core/Src/stm32f7xx_hal_msp.c ****     PI4     ------> SAI2_MCLK_A
1753:Core/Src/stm32f7xx_hal_msp.c ****     PI5     ------> SAI2_SCK_A
1754:Core/Src/stm32f7xx_hal_msp.c ****     PI7     ------> SAI2_FS_A
1755:Core/Src/stm32f7xx_hal_msp.c ****     PI6     ------> SAI2_SD_A 
1756:Core/Src/stm32f7xx_hal_msp.c ****     */
1757:Core/Src/stm32f7xx_hal_msp.c ****     GPIO_InitStruct.Pin = SAI2_MCLKA_Pin|SAI2_SCKA_Pin|SAI2_FSA_Pin|SAI2_SDA_Pin;
1758:Core/Src/stm32f7xx_hal_msp.c ****     GPIO_InitStruct.Mode = GPIO_MODE_AF_PP;
1759:Core/Src/stm32f7xx_hal_msp.c ****     GPIO_InitStruct.Pull = GPIO_NOPULL;
1760:Core/Src/stm32f7xx_hal_msp.c ****     GPIO_InitStruct.Speed = GPIO_SPEED_FREQ_LOW;
1761:Core/Src/stm32f7xx_hal_msp.c ****     GPIO_InitStruct.Alternate = GPIO_AF10_SAI2;
1762:Core/Src/stm32f7xx_hal_msp.c ****     HAL_GPIO_Init(GPIOI, &GPIO_InitStruct);
1763:Core/Src/stm32f7xx_hal_msp.c **** 
1764:Core/Src/stm32f7xx_hal_msp.c ****     }
1765:Core/Src/stm32f7xx_hal_msp.c ****     if(hsai->Instance==SAI2_Block_B)
 3444              		.loc 1 1765 0
 3445 000e 2268     		ldr	r2, [r4]
 3446 0010 214B     		ldr	r3, .L251+4
 3447 0012 9A42     		cmp	r2, r3
 3448 0014 1FD0     		beq	.L250
 3449              	.L243:
1766:Core/Src/stm32f7xx_hal_msp.c ****     {
1767:Core/Src/stm32f7xx_hal_msp.c ****       /* Peripheral clock enable */
1768:Core/Src/stm32f7xx_hal_msp.c ****       if (SAI2_client == 0)
1769:Core/Src/stm32f7xx_hal_msp.c ****       {
1770:Core/Src/stm32f7xx_hal_msp.c ****        __HAL_RCC_SAI2_CLK_ENABLE();
1771:Core/Src/stm32f7xx_hal_msp.c ****       }
1772:Core/Src/stm32f7xx_hal_msp.c ****     SAI2_client ++;
1773:Core/Src/stm32f7xx_hal_msp.c ****     
1774:Core/Src/stm32f7xx_hal_msp.c ****     /**SAI2_B_Block_B GPIO Configuration    
1775:Core/Src/stm32f7xx_hal_msp.c ****     PG10     ------> SAI2_SD_B 
1776:Core/Src/stm32f7xx_hal_msp.c ****     */
1777:Core/Src/stm32f7xx_hal_msp.c ****     GPIO_InitStruct.Pin = SAI2_SDB_Pin;
1778:Core/Src/stm32f7xx_hal_msp.c ****     GPIO_InitStruct.Mode = GPIO_MODE_AF_PP;
1779:Core/Src/stm32f7xx_hal_msp.c ****     GPIO_InitStruct.Pull = GPIO_NOPULL;
1780:Core/Src/stm32f7xx_hal_msp.c ****     GPIO_InitStruct.Speed = GPIO_SPEED_FREQ_LOW;
ARM GAS  /tmp/ccJDgDyU.s 			page 100


1781:Core/Src/stm32f7xx_hal_msp.c ****     GPIO_InitStruct.Alternate = GPIO_AF10_SAI2;
1782:Core/Src/stm32f7xx_hal_msp.c ****     HAL_GPIO_Init(SAI2_SDB_GPIO_Port, &GPIO_InitStruct);
1783:Core/Src/stm32f7xx_hal_msp.c **** 
1784:Core/Src/stm32f7xx_hal_msp.c ****     }
1785:Core/Src/stm32f7xx_hal_msp.c **** }
 3450              		.loc 1 1785 0
 3451 0016 08B0     		add	sp, sp, #32
 3452              	.LCFI77:
 3453              		.cfi_remember_state
 3454              		.cfi_def_cfa_offset 8
 3455              		@ sp needed
 3456 0018 10BD     		pop	{r4, pc}
 3457              	.LVL201:
 3458              	.L249:
 3459              	.LCFI78:
 3460              		.cfi_restore_state
1745:Core/Src/stm32f7xx_hal_msp.c ****     {
 3461              		.loc 1 1745 0
 3462 001a 204B     		ldr	r3, .L251+8
 3463 001c 1B68     		ldr	r3, [r3]
 3464 001e 4BB9     		cbnz	r3, .L245
 3465              	.LBB60:
1747:Core/Src/stm32f7xx_hal_msp.c ****     }
 3466              		.loc 1 1747 0
 3467 0020 1F4A     		ldr	r2, .L251+12
 3468 0022 516C     		ldr	r1, [r2, #68]
 3469 0024 41F40001 		orr	r1, r1, #8388608
 3470 0028 5164     		str	r1, [r2, #68]
 3471 002a 526C     		ldr	r2, [r2, #68]
 3472 002c 02F40002 		and	r2, r2, #8388608
 3473 0030 0192     		str	r2, [sp, #4]
 3474 0032 019A     		ldr	r2, [sp, #4]
 3475              	.L245:
 3476              	.LBE60:
1749:Core/Src/stm32f7xx_hal_msp.c ****     
 3477              		.loc 1 1749 0
 3478 0034 0133     		adds	r3, r3, #1
 3479 0036 194A     		ldr	r2, .L251+8
 3480 0038 1360     		str	r3, [r2]
1757:Core/Src/stm32f7xx_hal_msp.c ****     GPIO_InitStruct.Mode = GPIO_MODE_AF_PP;
 3481              		.loc 1 1757 0
 3482 003a F023     		movs	r3, #240
 3483 003c 0393     		str	r3, [sp, #12]
1758:Core/Src/stm32f7xx_hal_msp.c ****     GPIO_InitStruct.Pull = GPIO_NOPULL;
 3484              		.loc 1 1758 0
 3485 003e 0223     		movs	r3, #2
 3486 0040 0493     		str	r3, [sp, #16]
1759:Core/Src/stm32f7xx_hal_msp.c ****     GPIO_InitStruct.Speed = GPIO_SPEED_FREQ_LOW;
 3487              		.loc 1 1759 0
 3488 0042 0023     		movs	r3, #0
 3489 0044 0593     		str	r3, [sp, #20]
1760:Core/Src/stm32f7xx_hal_msp.c ****     GPIO_InitStruct.Alternate = GPIO_AF10_SAI2;
 3490              		.loc 1 1760 0
 3491 0046 0693     		str	r3, [sp, #24]
1761:Core/Src/stm32f7xx_hal_msp.c ****     HAL_GPIO_Init(GPIOI, &GPIO_InitStruct);
 3492              		.loc 1 1761 0
 3493 0048 0A23     		movs	r3, #10
ARM GAS  /tmp/ccJDgDyU.s 			page 101


 3494 004a 0793     		str	r3, [sp, #28]
1762:Core/Src/stm32f7xx_hal_msp.c **** 
 3495              		.loc 1 1762 0
 3496 004c 03A9     		add	r1, sp, #12
 3497 004e 1548     		ldr	r0, .L251+16
 3498              	.LVL202:
 3499 0050 FFF7FEFF 		bl	HAL_GPIO_Init
 3500              	.LVL203:
 3501 0054 DBE7     		b	.L244
 3502              	.L250:
1768:Core/Src/stm32f7xx_hal_msp.c ****       {
 3503              		.loc 1 1768 0
 3504 0056 114B     		ldr	r3, .L251+8
 3505 0058 1B68     		ldr	r3, [r3]
 3506 005a 4BB9     		cbnz	r3, .L247
 3507              	.LBB61:
1770:Core/Src/stm32f7xx_hal_msp.c ****       }
 3508              		.loc 1 1770 0
 3509 005c 104A     		ldr	r2, .L251+12
 3510 005e 516C     		ldr	r1, [r2, #68]
 3511 0060 41F40001 		orr	r1, r1, #8388608
 3512 0064 5164     		str	r1, [r2, #68]
 3513 0066 526C     		ldr	r2, [r2, #68]
 3514 0068 02F40002 		and	r2, r2, #8388608
 3515 006c 0292     		str	r2, [sp, #8]
 3516 006e 029A     		ldr	r2, [sp, #8]
 3517              	.L247:
 3518              	.LBE61:
1772:Core/Src/stm32f7xx_hal_msp.c ****     
 3519              		.loc 1 1772 0
 3520 0070 0133     		adds	r3, r3, #1
 3521 0072 0A4A     		ldr	r2, .L251+8
 3522 0074 1360     		str	r3, [r2]
1777:Core/Src/stm32f7xx_hal_msp.c ****     GPIO_InitStruct.Mode = GPIO_MODE_AF_PP;
 3523              		.loc 1 1777 0
 3524 0076 4FF48063 		mov	r3, #1024
 3525 007a 0393     		str	r3, [sp, #12]
1778:Core/Src/stm32f7xx_hal_msp.c ****     GPIO_InitStruct.Pull = GPIO_NOPULL;
 3526              		.loc 1 1778 0
 3527 007c 0223     		movs	r3, #2
 3528 007e 0493     		str	r3, [sp, #16]
1779:Core/Src/stm32f7xx_hal_msp.c ****     GPIO_InitStruct.Speed = GPIO_SPEED_FREQ_LOW;
 3529              		.loc 1 1779 0
 3530 0080 0023     		movs	r3, #0
 3531 0082 0593     		str	r3, [sp, #20]
1780:Core/Src/stm32f7xx_hal_msp.c ****     GPIO_InitStruct.Alternate = GPIO_AF10_SAI2;
 3532              		.loc 1 1780 0
 3533 0084 0693     		str	r3, [sp, #24]
1781:Core/Src/stm32f7xx_hal_msp.c ****     HAL_GPIO_Init(SAI2_SDB_GPIO_Port, &GPIO_InitStruct);
 3534              		.loc 1 1781 0
 3535 0086 0A23     		movs	r3, #10
 3536 0088 0793     		str	r3, [sp, #28]
1782:Core/Src/stm32f7xx_hal_msp.c **** 
 3537              		.loc 1 1782 0
 3538 008a 03A9     		add	r1, sp, #12
 3539 008c 0648     		ldr	r0, .L251+20
 3540 008e FFF7FEFF 		bl	HAL_GPIO_Init
ARM GAS  /tmp/ccJDgDyU.s 			page 102


 3541              	.LVL204:
 3542              		.loc 1 1785 0
 3543 0092 C0E7     		b	.L243
 3544              	.L252:
 3545              		.align	2
 3546              	.L251:
 3547 0094 045C0140 		.word	1073830916
 3548 0098 245C0140 		.word	1073830948
 3549 009c 00000000 		.word	.LANCHOR2
 3550 00a0 00380240 		.word	1073887232
 3551 00a4 00200240 		.word	1073881088
 3552 00a8 00180240 		.word	1073879040
 3553              		.cfi_endproc
 3554              	.LFE177:
 3556              		.section	.text.HAL_SAI_MspDeInit,"ax",%progbits
 3557              		.align	1
 3558              		.global	HAL_SAI_MspDeInit
 3559              		.syntax unified
 3560              		.thumb
 3561              		.thumb_func
 3562              		.fpu fpv5-sp-d16
 3564              	HAL_SAI_MspDeInit:
 3565              	.LFB178:
1786:Core/Src/stm32f7xx_hal_msp.c **** 
1787:Core/Src/stm32f7xx_hal_msp.c **** void HAL_SAI_MspDeInit(SAI_HandleTypeDef* hsai)
1788:Core/Src/stm32f7xx_hal_msp.c **** {
 3566              		.loc 1 1788 0
 3567              		.cfi_startproc
 3568              		@ args = 0, pretend = 0, frame = 0
 3569              		@ frame_needed = 0, uses_anonymous_args = 0
 3570              	.LVL205:
 3571 0000 10B5     		push	{r4, lr}
 3572              	.LCFI79:
 3573              		.cfi_def_cfa_offset 8
 3574              		.cfi_offset 4, -8
 3575              		.cfi_offset 14, -4
 3576 0002 0446     		mov	r4, r0
1789:Core/Src/stm32f7xx_hal_msp.c **** /* SAI2 */
1790:Core/Src/stm32f7xx_hal_msp.c ****     if(hsai->Instance==SAI2_Block_A)
 3577              		.loc 1 1790 0
 3578 0004 0268     		ldr	r2, [r0]
 3579 0006 134B     		ldr	r3, .L261
 3580 0008 9A42     		cmp	r2, r3
 3581 000a 04D0     		beq	.L259
 3582              	.LVL206:
 3583              	.L254:
1791:Core/Src/stm32f7xx_hal_msp.c ****     {
1792:Core/Src/stm32f7xx_hal_msp.c ****     SAI2_client --;
1793:Core/Src/stm32f7xx_hal_msp.c ****     if (SAI2_client == 0)
1794:Core/Src/stm32f7xx_hal_msp.c ****       {
1795:Core/Src/stm32f7xx_hal_msp.c ****       /* Peripheral clock disable */ 
1796:Core/Src/stm32f7xx_hal_msp.c ****        __HAL_RCC_SAI2_CLK_DISABLE();
1797:Core/Src/stm32f7xx_hal_msp.c ****       }
1798:Core/Src/stm32f7xx_hal_msp.c ****     
1799:Core/Src/stm32f7xx_hal_msp.c ****     /**SAI2_A_Block_A GPIO Configuration    
1800:Core/Src/stm32f7xx_hal_msp.c ****     PI4     ------> SAI2_MCLK_A
1801:Core/Src/stm32f7xx_hal_msp.c ****     PI5     ------> SAI2_SCK_A
ARM GAS  /tmp/ccJDgDyU.s 			page 103


1802:Core/Src/stm32f7xx_hal_msp.c ****     PI7     ------> SAI2_FS_A
1803:Core/Src/stm32f7xx_hal_msp.c ****     PI6     ------> SAI2_SD_A 
1804:Core/Src/stm32f7xx_hal_msp.c ****     */
1805:Core/Src/stm32f7xx_hal_msp.c ****     HAL_GPIO_DeInit(GPIOI, SAI2_MCLKA_Pin|SAI2_SCKA_Pin|SAI2_FSA_Pin|SAI2_SDA_Pin);
1806:Core/Src/stm32f7xx_hal_msp.c **** 
1807:Core/Src/stm32f7xx_hal_msp.c ****     }
1808:Core/Src/stm32f7xx_hal_msp.c ****     if(hsai->Instance==SAI2_Block_B)
 3584              		.loc 1 1808 0
 3585 000c 2268     		ldr	r2, [r4]
 3586 000e 124B     		ldr	r3, .L261+4
 3587 0010 9A42     		cmp	r2, r3
 3588 0012 0FD0     		beq	.L260
 3589              	.L253:
1809:Core/Src/stm32f7xx_hal_msp.c ****     {
1810:Core/Src/stm32f7xx_hal_msp.c ****     SAI2_client --;
1811:Core/Src/stm32f7xx_hal_msp.c ****       if (SAI2_client == 0)
1812:Core/Src/stm32f7xx_hal_msp.c ****       {
1813:Core/Src/stm32f7xx_hal_msp.c ****       /* Peripheral clock disable */
1814:Core/Src/stm32f7xx_hal_msp.c ****       __HAL_RCC_SAI2_CLK_DISABLE();
1815:Core/Src/stm32f7xx_hal_msp.c ****       }
1816:Core/Src/stm32f7xx_hal_msp.c ****     
1817:Core/Src/stm32f7xx_hal_msp.c ****     /**SAI2_B_Block_B GPIO Configuration    
1818:Core/Src/stm32f7xx_hal_msp.c ****     PG10     ------> SAI2_SD_B 
1819:Core/Src/stm32f7xx_hal_msp.c ****     */
1820:Core/Src/stm32f7xx_hal_msp.c ****     HAL_GPIO_DeInit(SAI2_SDB_GPIO_Port, SAI2_SDB_Pin);
1821:Core/Src/stm32f7xx_hal_msp.c **** 
1822:Core/Src/stm32f7xx_hal_msp.c ****     }
1823:Core/Src/stm32f7xx_hal_msp.c **** }
 3590              		.loc 1 1823 0
 3591 0014 10BD     		pop	{r4, pc}
 3592              	.LVL207:
 3593              	.L259:
1792:Core/Src/stm32f7xx_hal_msp.c ****     if (SAI2_client == 0)
 3594              		.loc 1 1792 0
 3595 0016 114A     		ldr	r2, .L261+8
 3596 0018 1368     		ldr	r3, [r2]
 3597 001a 013B     		subs	r3, r3, #1
 3598 001c 1360     		str	r3, [r2]
1793:Core/Src/stm32f7xx_hal_msp.c ****       {
 3599              		.loc 1 1793 0
 3600 001e 23B9     		cbnz	r3, .L255
1796:Core/Src/stm32f7xx_hal_msp.c ****       }
 3601              		.loc 1 1796 0
 3602 0020 0F4A     		ldr	r2, .L261+12
 3603 0022 536C     		ldr	r3, [r2, #68]
 3604 0024 23F40003 		bic	r3, r3, #8388608
 3605 0028 5364     		str	r3, [r2, #68]
 3606              	.L255:
1805:Core/Src/stm32f7xx_hal_msp.c **** 
 3607              		.loc 1 1805 0
 3608 002a F021     		movs	r1, #240
 3609 002c 0D48     		ldr	r0, .L261+16
 3610              	.LVL208:
 3611 002e FFF7FEFF 		bl	HAL_GPIO_DeInit
 3612              	.LVL209:
 3613 0032 EBE7     		b	.L254
 3614              	.L260:
ARM GAS  /tmp/ccJDgDyU.s 			page 104


1810:Core/Src/stm32f7xx_hal_msp.c ****       if (SAI2_client == 0)
 3615              		.loc 1 1810 0
 3616 0034 094A     		ldr	r2, .L261+8
 3617 0036 1368     		ldr	r3, [r2]
 3618 0038 013B     		subs	r3, r3, #1
 3619 003a 1360     		str	r3, [r2]
1811:Core/Src/stm32f7xx_hal_msp.c ****       {
 3620              		.loc 1 1811 0
 3621 003c 23B9     		cbnz	r3, .L257
1814:Core/Src/stm32f7xx_hal_msp.c ****       }
 3622              		.loc 1 1814 0
 3623 003e 084A     		ldr	r2, .L261+12
 3624 0040 536C     		ldr	r3, [r2, #68]
 3625 0042 23F40003 		bic	r3, r3, #8388608
 3626 0046 5364     		str	r3, [r2, #68]
 3627              	.L257:
1820:Core/Src/stm32f7xx_hal_msp.c **** 
 3628              		.loc 1 1820 0
 3629 0048 4FF48061 		mov	r1, #1024
 3630 004c 0648     		ldr	r0, .L261+20
 3631 004e FFF7FEFF 		bl	HAL_GPIO_DeInit
 3632              	.LVL210:
 3633              		.loc 1 1823 0
 3634 0052 DFE7     		b	.L253
 3635              	.L262:
 3636              		.align	2
 3637              	.L261:
 3638 0054 045C0140 		.word	1073830916
 3639 0058 245C0140 		.word	1073830948
 3640 005c 00000000 		.word	.LANCHOR2
 3641 0060 00380240 		.word	1073887232
 3642 0064 00200240 		.word	1073881088
 3643 0068 00180240 		.word	1073879040
 3644              		.cfi_endproc
 3645              	.LFE178:
 3647              		.section	.bss.FMC_DeInitialized,"aw",%nobits
 3648              		.align	2
 3649              		.set	.LANCHOR1,. + 0
 3652              	FMC_DeInitialized:
 3653 0000 00000000 		.space	4
 3654              		.section	.bss.FMC_Initialized,"aw",%nobits
 3655              		.align	2
 3656              		.set	.LANCHOR0,. + 0
 3659              	FMC_Initialized:
 3660 0000 00000000 		.space	4
 3661              		.section	.bss.SAI2_client,"aw",%nobits
 3662              		.align	2
 3663              		.set	.LANCHOR2,. + 0
 3666              	SAI2_client:
 3667 0000 00000000 		.space	4
 3668              		.text
 3669              	.Letext0:
 3670              		.file 2 "/usr/include/newlib/machine/_default_types.h"
 3671              		.file 3 "/usr/include/newlib/sys/_stdint.h"
 3672              		.file 4 "Drivers/CMSIS/Include/core_cm7.h"
 3673              		.file 5 "Drivers/CMSIS/Device/ST/STM32F7xx/Include/system_stm32f7xx.h"
 3674              		.file 6 "Drivers/CMSIS/Device/ST/STM32F7xx/Include/stm32f746xx.h"
ARM GAS  /tmp/ccJDgDyU.s 			page 105


 3675              		.file 7 "Drivers/CMSIS/Device/ST/STM32F7xx/Include/stm32f7xx.h"
 3676              		.file 8 "Drivers/STM32F7xx_HAL_Driver/Inc/stm32f7xx_hal_def.h"
 3677              		.file 9 "Drivers/STM32F7xx_HAL_Driver/Inc/stm32f7xx_hal_gpio.h"
 3678              		.file 10 "Drivers/STM32F7xx_HAL_Driver/Inc/stm32f7xx_hal_dma.h"
 3679              		.file 11 "Drivers/STM32F7xx_HAL_Driver/Inc/stm32f7xx_hal_adc.h"
 3680              		.file 12 "Drivers/STM32F7xx_HAL_Driver/Inc/stm32f7xx_hal_crc.h"
 3681              		.file 13 "Drivers/STM32F7xx_HAL_Driver/Inc/stm32f7xx_hal_dma2d.h"
 3682              		.file 14 "Drivers/STM32F7xx_HAL_Driver/Inc/stm32f7xx_hal_dcmi.h"
 3683              		.file 15 "Drivers/STM32F7xx_HAL_Driver/Inc/stm32f7xx_hal_eth.h"
 3684              		.file 16 "Drivers/STM32F7xx_HAL_Driver/Inc/stm32f7xx_ll_fmc.h"
 3685              		.file 17 "Drivers/STM32F7xx_HAL_Driver/Inc/stm32f7xx_hal_sdram.h"
 3686              		.file 18 "Drivers/STM32F7xx_HAL_Driver/Inc/stm32f7xx_hal_i2c.h"
 3687              		.file 19 "Drivers/STM32F7xx_HAL_Driver/Inc/stm32f7xx_hal_ltdc.h"
 3688              		.file 20 "Drivers/STM32F7xx_HAL_Driver/Inc/stm32f7xx_hal_qspi.h"
 3689              		.file 21 "Drivers/STM32F7xx_HAL_Driver/Inc/stm32f7xx_hal_rtc.h"
 3690              		.file 22 "Drivers/STM32F7xx_HAL_Driver/Inc/stm32f7xx_hal_sai.h"
 3691              		.file 23 "Drivers/STM32F7xx_HAL_Driver/Inc/stm32f7xx_ll_sdmmc.h"
 3692              		.file 24 "Drivers/STM32F7xx_HAL_Driver/Inc/stm32f7xx_hal_sd.h"
 3693              		.file 25 "Drivers/STM32F7xx_HAL_Driver/Inc/stm32f7xx_hal_spdifrx.h"
 3694              		.file 26 "Drivers/STM32F7xx_HAL_Driver/Inc/stm32f7xx_hal_spi.h"
 3695              		.file 27 "Drivers/STM32F7xx_HAL_Driver/Inc/stm32f7xx_hal_tim.h"
 3696              		.file 28 "Drivers/STM32F7xx_HAL_Driver/Inc/stm32f7xx_hal_uart.h"
 3697              		.file 29 "Drivers/STM32F7xx_HAL_Driver/Inc/stm32f7xx_hal.h"
 3698              		.file 30 "Drivers/STM32F7xx_HAL_Driver/Inc/stm32f7xx_hal_cortex.h"
ARM GAS  /tmp/ccJDgDyU.s 			page 106


DEFINED SYMBOLS
                            *ABS*:0000000000000000 stm32f7xx_hal_msp.c
     /tmp/ccJDgDyU.s:18     .text.HAL_FMC_MspInit:0000000000000000 $t
     /tmp/ccJDgDyU.s:24     .text.HAL_FMC_MspInit:0000000000000000 HAL_FMC_MspInit
     /tmp/ccJDgDyU.s:181    .text.HAL_FMC_MspInit:00000000000000bc $d
     /tmp/ccJDgDyU.s:193    .text.HAL_FMC_MspDeInit:0000000000000000 $t
     /tmp/ccJDgDyU.s:199    .text.HAL_FMC_MspDeInit:0000000000000000 HAL_FMC_MspDeInit
     /tmp/ccJDgDyU.s:261    .text.HAL_FMC_MspDeInit:0000000000000054 $d
     /tmp/ccJDgDyU.s:273    .text.HAL_MspInit:0000000000000000 $t
     /tmp/ccJDgDyU.s:280    .text.HAL_MspInit:0000000000000000 HAL_MspInit
     /tmp/ccJDgDyU.s:329    .text.HAL_MspInit:000000000000003c $d
     /tmp/ccJDgDyU.s:334    .text.HAL_ADC_MspInit:0000000000000000 $t
     /tmp/ccJDgDyU.s:341    .text.HAL_ADC_MspInit:0000000000000000 HAL_ADC_MspInit
     /tmp/ccJDgDyU.s:442    .text.HAL_ADC_MspInit:000000000000007c $d
     /tmp/ccJDgDyU.s:449    .text.HAL_ADC_MspDeInit:0000000000000000 $t
     /tmp/ccJDgDyU.s:456    .text.HAL_ADC_MspDeInit:0000000000000000 HAL_ADC_MspDeInit
     /tmp/ccJDgDyU.s:500    .text.HAL_ADC_MspDeInit:000000000000002c $d
     /tmp/ccJDgDyU.s:508    .text.HAL_CRC_MspInit:0000000000000000 $t
     /tmp/ccJDgDyU.s:515    .text.HAL_CRC_MspInit:0000000000000000 HAL_CRC_MspInit
     /tmp/ccJDgDyU.s:554    .text.HAL_CRC_MspInit:0000000000000028 $d
     /tmp/ccJDgDyU.s:559    .text.HAL_CRC_MspDeInit:0000000000000000 $t
     /tmp/ccJDgDyU.s:566    .text.HAL_CRC_MspDeInit:0000000000000000 HAL_CRC_MspDeInit
     /tmp/ccJDgDyU.s:593    .text.HAL_CRC_MspDeInit:0000000000000018 $d
     /tmp/ccJDgDyU.s:599    .text.HAL_DCMI_MspInit:0000000000000000 $t
     /tmp/ccJDgDyU.s:606    .text.HAL_DCMI_MspInit:0000000000000000 HAL_DCMI_MspInit
     /tmp/ccJDgDyU.s:794    .text.HAL_DCMI_MspInit:00000000000000f8 $d
     /tmp/ccJDgDyU.s:805    .text.HAL_DCMI_MspDeInit:0000000000000000 $t
     /tmp/ccJDgDyU.s:812    .text.HAL_DCMI_MspDeInit:0000000000000000 HAL_DCMI_MspDeInit
     /tmp/ccJDgDyU.s:871    .text.HAL_DCMI_MspDeInit:0000000000000044 $d
     /tmp/ccJDgDyU.s:882    .text.HAL_DMA2D_MspInit:0000000000000000 $t
     /tmp/ccJDgDyU.s:889    .text.HAL_DMA2D_MspInit:0000000000000000 HAL_DMA2D_MspInit
     /tmp/ccJDgDyU.s:942    .text.HAL_DMA2D_MspInit:000000000000003c $d
     /tmp/ccJDgDyU.s:947    .text.HAL_DMA2D_MspDeInit:0000000000000000 $t
     /tmp/ccJDgDyU.s:954    .text.HAL_DMA2D_MspDeInit:0000000000000000 HAL_DMA2D_MspDeInit
     /tmp/ccJDgDyU.s:992    .text.HAL_DMA2D_MspDeInit:0000000000000020 $d
     /tmp/ccJDgDyU.s:998    .text.HAL_ETH_MspInit:0000000000000000 $t
     /tmp/ccJDgDyU.s:1005   .text.HAL_ETH_MspInit:0000000000000000 HAL_ETH_MspInit
     /tmp/ccJDgDyU.s:1163   .text.HAL_ETH_MspInit:00000000000000d4 $d
     /tmp/ccJDgDyU.s:1171   .text.HAL_ETH_MspDeInit:0000000000000000 $t
     /tmp/ccJDgDyU.s:1178   .text.HAL_ETH_MspDeInit:0000000000000000 HAL_ETH_MspDeInit
     /tmp/ccJDgDyU.s:1233   .text.HAL_ETH_MspDeInit:0000000000000044 $d
     /tmp/ccJDgDyU.s:1241   .text.HAL_I2C_MspInit:0000000000000000 $t
     /tmp/ccJDgDyU.s:1248   .text.HAL_I2C_MspInit:0000000000000000 HAL_I2C_MspInit
     /tmp/ccJDgDyU.s:1381   .text.HAL_I2C_MspInit:00000000000000ac $d
     /tmp/ccJDgDyU.s:1390   .text.HAL_I2C_MspDeInit:0000000000000000 $t
     /tmp/ccJDgDyU.s:1397   .text.HAL_I2C_MspDeInit:0000000000000000 HAL_I2C_MspDeInit
     /tmp/ccJDgDyU.s:1454   .text.HAL_I2C_MspDeInit:0000000000000044 $d
     /tmp/ccJDgDyU.s:1462   .text.HAL_LTDC_MspInit:0000000000000000 $t
     /tmp/ccJDgDyU.s:1469   .text.HAL_LTDC_MspInit:0000000000000000 HAL_LTDC_MspInit
     /tmp/ccJDgDyU.s:1668   .text.HAL_LTDC_MspInit:000000000000010c $d
     /tmp/ccJDgDyU.s:1678   .text.HAL_LTDC_MspDeInit:0000000000000000 $t
     /tmp/ccJDgDyU.s:1685   .text.HAL_LTDC_MspDeInit:0000000000000000 HAL_LTDC_MspDeInit
     /tmp/ccJDgDyU.s:1748   .text.HAL_LTDC_MspDeInit:000000000000004c $d
     /tmp/ccJDgDyU.s:1759   .text.HAL_QSPI_MspInit:0000000000000000 $t
     /tmp/ccJDgDyU.s:1766   .text.HAL_QSPI_MspInit:0000000000000000 HAL_QSPI_MspInit
     /tmp/ccJDgDyU.s:1925   .text.HAL_QSPI_MspInit:00000000000000d0 $d
     /tmp/ccJDgDyU.s:1934   .text.HAL_QSPI_MspDeInit:0000000000000000 $t
ARM GAS  /tmp/ccJDgDyU.s 			page 107


     /tmp/ccJDgDyU.s:1941   .text.HAL_QSPI_MspDeInit:0000000000000000 HAL_QSPI_MspDeInit
     /tmp/ccJDgDyU.s:1990   .text.HAL_QSPI_MspDeInit:0000000000000034 $d
     /tmp/ccJDgDyU.s:1999   .text.HAL_RTC_MspInit:0000000000000000 $t
     /tmp/ccJDgDyU.s:2006   .text.HAL_RTC_MspInit:0000000000000000 HAL_RTC_MspInit
     /tmp/ccJDgDyU.s:2033   .text.HAL_RTC_MspInit:0000000000000018 $d
     /tmp/ccJDgDyU.s:2039   .text.HAL_RTC_MspDeInit:0000000000000000 $t
     /tmp/ccJDgDyU.s:2046   .text.HAL_RTC_MspDeInit:0000000000000000 HAL_RTC_MspDeInit
     /tmp/ccJDgDyU.s:2073   .text.HAL_RTC_MspDeInit:0000000000000018 $d
     /tmp/ccJDgDyU.s:2079   .text.HAL_SD_MspInit:0000000000000000 $t
     /tmp/ccJDgDyU.s:2086   .text.HAL_SD_MspInit:0000000000000000 HAL_SD_MspInit
     /tmp/ccJDgDyU.s:2199   .text.HAL_SD_MspInit:000000000000008c $d
     /tmp/ccJDgDyU.s:2206   .text.HAL_SD_MspDeInit:0000000000000000 $t
     /tmp/ccJDgDyU.s:2213   .text.HAL_SD_MspDeInit:0000000000000000 HAL_SD_MspDeInit
     /tmp/ccJDgDyU.s:2257   .text.HAL_SD_MspDeInit:000000000000002c $d
     /tmp/ccJDgDyU.s:2265   .text.HAL_SPDIFRX_MspInit:0000000000000000 $t
     /tmp/ccJDgDyU.s:2272   .text.HAL_SPDIFRX_MspInit:0000000000000000 HAL_SPDIFRX_MspInit
     /tmp/ccJDgDyU.s:2351   .text.HAL_SPDIFRX_MspInit:000000000000005c $d
     /tmp/ccJDgDyU.s:2356   .text.HAL_SPDIFRX_MspDeInit:0000000000000000 $t
     /tmp/ccJDgDyU.s:2363   .text.HAL_SPDIFRX_MspDeInit:0000000000000000 HAL_SPDIFRX_MspDeInit
     /tmp/ccJDgDyU.s:2401   .text.HAL_SPDIFRX_MspDeInit:0000000000000020 $d
     /tmp/ccJDgDyU.s:2407   .text.HAL_SPI_MspInit:0000000000000000 $t
     /tmp/ccJDgDyU.s:2414   .text.HAL_SPI_MspInit:0000000000000000 HAL_SPI_MspInit
     /tmp/ccJDgDyU.s:2522   .text.HAL_SPI_MspInit:0000000000000084 $d
     /tmp/ccJDgDyU.s:2529   .text.HAL_SPI_MspDeInit:0000000000000000 $t
     /tmp/ccJDgDyU.s:2536   .text.HAL_SPI_MspDeInit:0000000000000000 HAL_SPI_MspDeInit
     /tmp/ccJDgDyU.s:2580   .text.HAL_SPI_MspDeInit:000000000000002c $d
     /tmp/ccJDgDyU.s:2588   .text.HAL_TIM_Base_MspInit:0000000000000000 $t
     /tmp/ccJDgDyU.s:2595   .text.HAL_TIM_Base_MspInit:0000000000000000 HAL_TIM_Base_MspInit
     /tmp/ccJDgDyU.s:2703   .text.HAL_TIM_Base_MspInit:0000000000000094 $d
     /tmp/ccJDgDyU.s:2712   .text.HAL_TIM_PWM_MspInit:0000000000000000 $t
     /tmp/ccJDgDyU.s:2719   .text.HAL_TIM_PWM_MspInit:0000000000000000 HAL_TIM_PWM_MspInit
     /tmp/ccJDgDyU.s:2758   .text.HAL_TIM_PWM_MspInit:0000000000000028 $d
     /tmp/ccJDgDyU.s:2763   .text.HAL_TIM_MspPostInit:0000000000000000 $t
     /tmp/ccJDgDyU.s:2770   .text.HAL_TIM_MspPostInit:0000000000000000 HAL_TIM_MspPostInit
     /tmp/ccJDgDyU.s:2969   .text.HAL_TIM_MspPostInit:000000000000010c $d
     /tmp/ccJDgDyU.s:2982   .text.HAL_TIM_Base_MspDeInit:0000000000000000 $t
     /tmp/ccJDgDyU.s:2989   .text.HAL_TIM_Base_MspDeInit:0000000000000000 HAL_TIM_Base_MspDeInit
     /tmp/ccJDgDyU.s:3059   .text.HAL_TIM_Base_MspDeInit:0000000000000068 $d
     /tmp/ccJDgDyU.s:3068   .text.HAL_TIM_PWM_MspDeInit:0000000000000000 $t
     /tmp/ccJDgDyU.s:3075   .text.HAL_TIM_PWM_MspDeInit:0000000000000000 HAL_TIM_PWM_MspDeInit
     /tmp/ccJDgDyU.s:3102   .text.HAL_TIM_PWM_MspDeInit:0000000000000018 $d
     /tmp/ccJDgDyU.s:3108   .text.HAL_UART_MspInit:0000000000000000 $t
     /tmp/ccJDgDyU.s:3115   .text.HAL_UART_MspInit:0000000000000000 HAL_UART_MspInit
     /tmp/ccJDgDyU.s:3270   .text.HAL_UART_MspInit:00000000000000c8 $d
     /tmp/ccJDgDyU.s:3280   .text.HAL_UART_MspDeInit:0000000000000000 $t
     /tmp/ccJDgDyU.s:3287   .text.HAL_UART_MspDeInit:0000000000000000 HAL_UART_MspDeInit
     /tmp/ccJDgDyU.s:3349   .text.HAL_UART_MspDeInit:0000000000000048 $d
     /tmp/ccJDgDyU.s:3358   .text.HAL_SDRAM_MspInit:0000000000000000 $t
     /tmp/ccJDgDyU.s:3365   .text.HAL_SDRAM_MspInit:0000000000000000 HAL_SDRAM_MspInit
     /tmp/ccJDgDyU.s:3386   .text.HAL_SDRAM_MspDeInit:0000000000000000 $t
     /tmp/ccJDgDyU.s:3393   .text.HAL_SDRAM_MspDeInit:0000000000000000 HAL_SDRAM_MspDeInit
     /tmp/ccJDgDyU.s:3414   .text.HAL_SAI_MspInit:0000000000000000 $t
     /tmp/ccJDgDyU.s:3421   .text.HAL_SAI_MspInit:0000000000000000 HAL_SAI_MspInit
     /tmp/ccJDgDyU.s:3547   .text.HAL_SAI_MspInit:0000000000000094 $d
     /tmp/ccJDgDyU.s:3557   .text.HAL_SAI_MspDeInit:0000000000000000 $t
     /tmp/ccJDgDyU.s:3564   .text.HAL_SAI_MspDeInit:0000000000000000 HAL_SAI_MspDeInit
     /tmp/ccJDgDyU.s:3638   .text.HAL_SAI_MspDeInit:0000000000000054 $d
ARM GAS  /tmp/ccJDgDyU.s 			page 108


     /tmp/ccJDgDyU.s:3648   .bss.FMC_DeInitialized:0000000000000000 $d
     /tmp/ccJDgDyU.s:3652   .bss.FMC_DeInitialized:0000000000000000 FMC_DeInitialized
     /tmp/ccJDgDyU.s:3655   .bss.FMC_Initialized:0000000000000000 $d
     /tmp/ccJDgDyU.s:3659   .bss.FMC_Initialized:0000000000000000 FMC_Initialized
     /tmp/ccJDgDyU.s:3662   .bss.SAI2_client:0000000000000000 $d
     /tmp/ccJDgDyU.s:3666   .bss.SAI2_client:0000000000000000 SAI2_client

UNDEFINED SYMBOLS
HAL_GPIO_Init
HAL_GPIO_DeInit
HAL_NVIC_SetPriority
HAL_NVIC_EnableIRQ
HAL_NVIC_DisableIRQ
